
of-eye-gimbal.elf:     file format elf32-littlearm

Sections:
Idx Name          Size      VMA       LMA       File off  Algn
  0 .isr_vector   00000188  08000000  08000000  00010000  2**0
                  CONTENTS, ALLOC, LOAD, READONLY, DATA
  1 .text         000065a4  08000190  08000190  00010190  2**4
                  CONTENTS, ALLOC, LOAD, READONLY, CODE
  2 .rodata       00000ff4  08006734  08006734  00016734  2**2
                  CONTENTS, ALLOC, LOAD, READONLY, DATA
  3 .ARM.extab    00000000  08007728  08007728  000205c4  2**0
                  CONTENTS
  4 .ARM          00000008  08007728  08007728  00017728  2**2
                  CONTENTS, ALLOC, LOAD, READONLY, DATA
  5 .preinit_array 00000000  08007730  08007730  000205c4  2**0
                  CONTENTS, ALLOC, LOAD, DATA
  6 .init_array   00000004  08007730  08007730  00017730  2**2
                  CONTENTS, ALLOC, LOAD, DATA
  7 .fini_array   00000004  08007734  08007734  00017734  2**2
                  CONTENTS, ALLOC, LOAD, DATA
  8 .data         000005c4  20000000  08007738  00020000  2**2
                  CONTENTS, ALLOC, LOAD, DATA
  9 .bss          000000d0  200005c8  08007cfc  000205c8  2**3
                  ALLOC
 10 ._user_heap_stack 00000600  20000698  08007cfc  00020698  2**0
                  ALLOC
 11 .ARM.attributes 00000030  00000000  00000000  000205c4  2**0
                  CONTENTS, READONLY
 12 .debug_info   000112c3  00000000  00000000  000205f4  2**0
                  CONTENTS, READONLY, DEBUGGING
 13 .debug_abbrev 00002a47  00000000  00000000  000318b7  2**0
                  CONTENTS, READONLY, DEBUGGING
 14 .debug_aranges 00000c78  00000000  00000000  00034300  2**3
                  CONTENTS, READONLY, DEBUGGING
 15 .debug_ranges 00000b30  00000000  00000000  00034f78  2**3
                  CONTENTS, READONLY, DEBUGGING
 16 .debug_macro  0002488d  00000000  00000000  00035aa8  2**0
                  CONTENTS, READONLY, DEBUGGING
 17 .debug_line   0000afb8  00000000  00000000  0005a335  2**0
                  CONTENTS, READONLY, DEBUGGING
 18 .debug_str    000bb5aa  00000000  00000000  000652ed  2**0
                  CONTENTS, READONLY, DEBUGGING
 19 .comment      0000007b  00000000  00000000  00120897  2**0
                  CONTENTS, READONLY
 20 .debug_frame  00003a7c  00000000  00000000  00120914  2**2
                  CONTENTS, READONLY, DEBUGGING

Disassembly of section .text:

08000190 <__do_global_dtors_aux>:
 8000190:	b510      	push	{r4, lr}
 8000192:	4c05      	ldr	r4, [pc, #20]	; (80001a8 <__do_global_dtors_aux+0x18>)
 8000194:	7823      	ldrb	r3, [r4, #0]
 8000196:	b933      	cbnz	r3, 80001a6 <__do_global_dtors_aux+0x16>
 8000198:	4b04      	ldr	r3, [pc, #16]	; (80001ac <__do_global_dtors_aux+0x1c>)
 800019a:	b113      	cbz	r3, 80001a2 <__do_global_dtors_aux+0x12>
 800019c:	4804      	ldr	r0, [pc, #16]	; (80001b0 <__do_global_dtors_aux+0x20>)
 800019e:	f3af 8000 	nop.w
 80001a2:	2301      	movs	r3, #1
 80001a4:	7023      	strb	r3, [r4, #0]
 80001a6:	bd10      	pop	{r4, pc}
 80001a8:	200005c8 	.word	0x200005c8
 80001ac:	00000000 	.word	0x00000000
 80001b0:	0800671c 	.word	0x0800671c

080001b4 <frame_dummy>:
 80001b4:	b508      	push	{r3, lr}
 80001b6:	4b03      	ldr	r3, [pc, #12]	; (80001c4 <frame_dummy+0x10>)
 80001b8:	b11b      	cbz	r3, 80001c2 <frame_dummy+0xe>
 80001ba:	4903      	ldr	r1, [pc, #12]	; (80001c8 <frame_dummy+0x14>)
 80001bc:	4803      	ldr	r0, [pc, #12]	; (80001cc <frame_dummy+0x18>)
 80001be:	f3af 8000 	nop.w
 80001c2:	bd08      	pop	{r3, pc}
 80001c4:	00000000 	.word	0x00000000
 80001c8:	200005cc 	.word	0x200005cc
 80001cc:	0800671c 	.word	0x0800671c

080001d0 <memchr>:
 80001d0:	f001 01ff 	and.w	r1, r1, #255	; 0xff
 80001d4:	2a10      	cmp	r2, #16
 80001d6:	db2b      	blt.n	8000230 <memchr+0x60>
 80001d8:	f010 0f07 	tst.w	r0, #7
 80001dc:	d008      	beq.n	80001f0 <memchr+0x20>
 80001de:	f810 3b01 	ldrb.w	r3, [r0], #1
 80001e2:	3a01      	subs	r2, #1
 80001e4:	428b      	cmp	r3, r1
 80001e6:	d02d      	beq.n	8000244 <memchr+0x74>
 80001e8:	f010 0f07 	tst.w	r0, #7
 80001ec:	b342      	cbz	r2, 8000240 <memchr+0x70>
 80001ee:	d1f6      	bne.n	80001de <memchr+0xe>
 80001f0:	b4f0      	push	{r4, r5, r6, r7}
 80001f2:	ea41 2101 	orr.w	r1, r1, r1, lsl #8
 80001f6:	ea41 4101 	orr.w	r1, r1, r1, lsl #16
 80001fa:	f022 0407 	bic.w	r4, r2, #7
 80001fe:	f07f 0700 	mvns.w	r7, #0
 8000202:	2300      	movs	r3, #0
 8000204:	e8f0 5602 	ldrd	r5, r6, [r0], #8
 8000208:	3c08      	subs	r4, #8
 800020a:	ea85 0501 	eor.w	r5, r5, r1
 800020e:	ea86 0601 	eor.w	r6, r6, r1
 8000212:	fa85 f547 	uadd8	r5, r5, r7
 8000216:	faa3 f587 	sel	r5, r3, r7
 800021a:	fa86 f647 	uadd8	r6, r6, r7
 800021e:	faa5 f687 	sel	r6, r5, r7
 8000222:	b98e      	cbnz	r6, 8000248 <memchr+0x78>
 8000224:	d1ee      	bne.n	8000204 <memchr+0x34>
 8000226:	bcf0      	pop	{r4, r5, r6, r7}
 8000228:	f001 01ff 	and.w	r1, r1, #255	; 0xff
 800022c:	f002 0207 	and.w	r2, r2, #7
 8000230:	b132      	cbz	r2, 8000240 <memchr+0x70>
 8000232:	f810 3b01 	ldrb.w	r3, [r0], #1
 8000236:	3a01      	subs	r2, #1
 8000238:	ea83 0301 	eor.w	r3, r3, r1
 800023c:	b113      	cbz	r3, 8000244 <memchr+0x74>
 800023e:	d1f8      	bne.n	8000232 <memchr+0x62>
 8000240:	2000      	movs	r0, #0
 8000242:	4770      	bx	lr
 8000244:	3801      	subs	r0, #1
 8000246:	4770      	bx	lr
 8000248:	2d00      	cmp	r5, #0
 800024a:	bf06      	itte	eq
 800024c:	4635      	moveq	r5, r6
 800024e:	3803      	subeq	r0, #3
 8000250:	3807      	subne	r0, #7
 8000252:	f015 0f01 	tst.w	r5, #1
 8000256:	d107      	bne.n	8000268 <memchr+0x98>
 8000258:	3001      	adds	r0, #1
 800025a:	f415 7f80 	tst.w	r5, #256	; 0x100
 800025e:	bf02      	ittt	eq
 8000260:	3001      	addeq	r0, #1
 8000262:	f415 3fc0 	tsteq.w	r5, #98304	; 0x18000
 8000266:	3001      	addeq	r0, #1
 8000268:	bcf0      	pop	{r4, r5, r6, r7}
 800026a:	3801      	subs	r0, #1
 800026c:	4770      	bx	lr
 800026e:	bf00      	nop

08000270 <__aeabi_drsub>:
 8000270:	f081 4100 	eor.w	r1, r1, #2147483648	; 0x80000000
 8000274:	e002      	b.n	800027c <__adddf3>
 8000276:	bf00      	nop

08000278 <__aeabi_dsub>:
 8000278:	f083 4300 	eor.w	r3, r3, #2147483648	; 0x80000000

0800027c <__adddf3>:
 800027c:	b530      	push	{r4, r5, lr}
 800027e:	ea4f 0441 	mov.w	r4, r1, lsl #1
 8000282:	ea4f 0543 	mov.w	r5, r3, lsl #1
 8000286:	ea94 0f05 	teq	r4, r5
 800028a:	bf08      	it	eq
 800028c:	ea90 0f02 	teqeq	r0, r2
 8000290:	bf1f      	itttt	ne
 8000292:	ea54 0c00 	orrsne.w	ip, r4, r0
 8000296:	ea55 0c02 	orrsne.w	ip, r5, r2
 800029a:	ea7f 5c64 	mvnsne.w	ip, r4, asr #21
 800029e:	ea7f 5c65 	mvnsne.w	ip, r5, asr #21
 80002a2:	f000 80e2 	beq.w	800046a <__adddf3+0x1ee>
 80002a6:	ea4f 5454 	mov.w	r4, r4, lsr #21
 80002aa:	ebd4 5555 	rsbs	r5, r4, r5, lsr #21
 80002ae:	bfb8      	it	lt
 80002b0:	426d      	neglt	r5, r5
 80002b2:	dd0c      	ble.n	80002ce <__adddf3+0x52>
 80002b4:	442c      	add	r4, r5
 80002b6:	ea80 0202 	eor.w	r2, r0, r2
 80002ba:	ea81 0303 	eor.w	r3, r1, r3
 80002be:	ea82 0000 	eor.w	r0, r2, r0
 80002c2:	ea83 0101 	eor.w	r1, r3, r1
 80002c6:	ea80 0202 	eor.w	r2, r0, r2
 80002ca:	ea81 0303 	eor.w	r3, r1, r3
 80002ce:	2d36      	cmp	r5, #54	; 0x36
 80002d0:	bf88      	it	hi
 80002d2:	bd30      	pophi	{r4, r5, pc}
 80002d4:	f011 4f00 	tst.w	r1, #2147483648	; 0x80000000
 80002d8:	ea4f 3101 	mov.w	r1, r1, lsl #12
 80002dc:	f44f 1c80 	mov.w	ip, #1048576	; 0x100000
 80002e0:	ea4c 3111 	orr.w	r1, ip, r1, lsr #12
 80002e4:	d002      	beq.n	80002ec <__adddf3+0x70>
 80002e6:	4240      	negs	r0, r0
 80002e8:	eb61 0141 	sbc.w	r1, r1, r1, lsl #1
 80002ec:	f013 4f00 	tst.w	r3, #2147483648	; 0x80000000
 80002f0:	ea4f 3303 	mov.w	r3, r3, lsl #12
 80002f4:	ea4c 3313 	orr.w	r3, ip, r3, lsr #12
 80002f8:	d002      	beq.n	8000300 <__adddf3+0x84>
 80002fa:	4252      	negs	r2, r2
 80002fc:	eb63 0343 	sbc.w	r3, r3, r3, lsl #1
 8000300:	ea94 0f05 	teq	r4, r5
 8000304:	f000 80a7 	beq.w	8000456 <__adddf3+0x1da>
 8000308:	f1a4 0401 	sub.w	r4, r4, #1
 800030c:	f1d5 0e20 	rsbs	lr, r5, #32
 8000310:	db0d      	blt.n	800032e <__adddf3+0xb2>
 8000312:	fa02 fc0e 	lsl.w	ip, r2, lr
 8000316:	fa22 f205 	lsr.w	r2, r2, r5
 800031a:	1880      	adds	r0, r0, r2
 800031c:	f141 0100 	adc.w	r1, r1, #0
 8000320:	fa03 f20e 	lsl.w	r2, r3, lr
 8000324:	1880      	adds	r0, r0, r2
 8000326:	fa43 f305 	asr.w	r3, r3, r5
 800032a:	4159      	adcs	r1, r3
 800032c:	e00e      	b.n	800034c <__adddf3+0xd0>
 800032e:	f1a5 0520 	sub.w	r5, r5, #32
 8000332:	f10e 0e20 	add.w	lr, lr, #32
 8000336:	2a01      	cmp	r2, #1
 8000338:	fa03 fc0e 	lsl.w	ip, r3, lr
 800033c:	bf28      	it	cs
 800033e:	f04c 0c02 	orrcs.w	ip, ip, #2
 8000342:	fa43 f305 	asr.w	r3, r3, r5
 8000346:	18c0      	adds	r0, r0, r3
 8000348:	eb51 71e3 	adcs.w	r1, r1, r3, asr #31
 800034c:	f001 4500 	and.w	r5, r1, #2147483648	; 0x80000000
 8000350:	d507      	bpl.n	8000362 <__adddf3+0xe6>
 8000352:	f04f 0e00 	mov.w	lr, #0
 8000356:	f1dc 0c00 	rsbs	ip, ip, #0
 800035a:	eb7e 0000 	sbcs.w	r0, lr, r0
 800035e:	eb6e 0101 	sbc.w	r1, lr, r1
 8000362:	f5b1 1f80 	cmp.w	r1, #1048576	; 0x100000
 8000366:	d31b      	bcc.n	80003a0 <__adddf3+0x124>
 8000368:	f5b1 1f00 	cmp.w	r1, #2097152	; 0x200000
 800036c:	d30c      	bcc.n	8000388 <__adddf3+0x10c>
 800036e:	0849      	lsrs	r1, r1, #1
 8000370:	ea5f 0030 	movs.w	r0, r0, rrx
 8000374:	ea4f 0c3c 	mov.w	ip, ip, rrx
 8000378:	f104 0401 	add.w	r4, r4, #1
 800037c:	ea4f 5244 	mov.w	r2, r4, lsl #21
 8000380:	f512 0f80 	cmn.w	r2, #4194304	; 0x400000
 8000384:	f080 809a 	bcs.w	80004bc <__adddf3+0x240>
 8000388:	f1bc 4f00 	cmp.w	ip, #2147483648	; 0x80000000
 800038c:	bf08      	it	eq
 800038e:	ea5f 0c50 	movseq.w	ip, r0, lsr #1
 8000392:	f150 0000 	adcs.w	r0, r0, #0
 8000396:	eb41 5104 	adc.w	r1, r1, r4, lsl #20
 800039a:	ea41 0105 	orr.w	r1, r1, r5
 800039e:	bd30      	pop	{r4, r5, pc}
 80003a0:	ea5f 0c4c 	movs.w	ip, ip, lsl #1
 80003a4:	4140      	adcs	r0, r0
 80003a6:	eb41 0101 	adc.w	r1, r1, r1
 80003aa:	f411 1f80 	tst.w	r1, #1048576	; 0x100000
 80003ae:	f1a4 0401 	sub.w	r4, r4, #1
 80003b2:	d1e9      	bne.n	8000388 <__adddf3+0x10c>
 80003b4:	f091 0f00 	teq	r1, #0
 80003b8:	bf04      	itt	eq
 80003ba:	4601      	moveq	r1, r0
 80003bc:	2000      	moveq	r0, #0
 80003be:	fab1 f381 	clz	r3, r1
 80003c2:	bf08      	it	eq
 80003c4:	3320      	addeq	r3, #32
 80003c6:	f1a3 030b 	sub.w	r3, r3, #11
 80003ca:	f1b3 0220 	subs.w	r2, r3, #32
 80003ce:	da0c      	bge.n	80003ea <__adddf3+0x16e>
 80003d0:	320c      	adds	r2, #12
 80003d2:	dd08      	ble.n	80003e6 <__adddf3+0x16a>
 80003d4:	f102 0c14 	add.w	ip, r2, #20
 80003d8:	f1c2 020c 	rsb	r2, r2, #12
 80003dc:	fa01 f00c 	lsl.w	r0, r1, ip
 80003e0:	fa21 f102 	lsr.w	r1, r1, r2
 80003e4:	e00c      	b.n	8000400 <__adddf3+0x184>
 80003e6:	f102 0214 	add.w	r2, r2, #20
 80003ea:	bfd8      	it	le
 80003ec:	f1c2 0c20 	rsble	ip, r2, #32
 80003f0:	fa01 f102 	lsl.w	r1, r1, r2
 80003f4:	fa20 fc0c 	lsr.w	ip, r0, ip
 80003f8:	bfdc      	itt	le
 80003fa:	ea41 010c 	orrle.w	r1, r1, ip
 80003fe:	4090      	lslle	r0, r2
 8000400:	1ae4      	subs	r4, r4, r3
 8000402:	bfa2      	ittt	ge
 8000404:	eb01 5104 	addge.w	r1, r1, r4, lsl #20
 8000408:	4329      	orrge	r1, r5
 800040a:	bd30      	popge	{r4, r5, pc}
 800040c:	ea6f 0404 	mvn.w	r4, r4
 8000410:	3c1f      	subs	r4, #31
 8000412:	da1c      	bge.n	800044e <__adddf3+0x1d2>
 8000414:	340c      	adds	r4, #12
 8000416:	dc0e      	bgt.n	8000436 <__adddf3+0x1ba>
 8000418:	f104 0414 	add.w	r4, r4, #20
 800041c:	f1c4 0220 	rsb	r2, r4, #32
 8000420:	fa20 f004 	lsr.w	r0, r0, r4
 8000424:	fa01 f302 	lsl.w	r3, r1, r2
 8000428:	ea40 0003 	orr.w	r0, r0, r3
 800042c:	fa21 f304 	lsr.w	r3, r1, r4
 8000430:	ea45 0103 	orr.w	r1, r5, r3
 8000434:	bd30      	pop	{r4, r5, pc}
 8000436:	f1c4 040c 	rsb	r4, r4, #12
 800043a:	f1c4 0220 	rsb	r2, r4, #32
 800043e:	fa20 f002 	lsr.w	r0, r0, r2
 8000442:	fa01 f304 	lsl.w	r3, r1, r4
 8000446:	ea40 0003 	orr.w	r0, r0, r3
 800044a:	4629      	mov	r1, r5
 800044c:	bd30      	pop	{r4, r5, pc}
 800044e:	fa21 f004 	lsr.w	r0, r1, r4
 8000452:	4629      	mov	r1, r5
 8000454:	bd30      	pop	{r4, r5, pc}
 8000456:	f094 0f00 	teq	r4, #0
 800045a:	f483 1380 	eor.w	r3, r3, #1048576	; 0x100000
 800045e:	bf06      	itte	eq
 8000460:	f481 1180 	eoreq.w	r1, r1, #1048576	; 0x100000
 8000464:	3401      	addeq	r4, #1
 8000466:	3d01      	subne	r5, #1
 8000468:	e74e      	b.n	8000308 <__adddf3+0x8c>
 800046a:	ea7f 5c64 	mvns.w	ip, r4, asr #21
 800046e:	bf18      	it	ne
 8000470:	ea7f 5c65 	mvnsne.w	ip, r5, asr #21
 8000474:	d029      	beq.n	80004ca <__adddf3+0x24e>
 8000476:	ea94 0f05 	teq	r4, r5
 800047a:	bf08      	it	eq
 800047c:	ea90 0f02 	teqeq	r0, r2
 8000480:	d005      	beq.n	800048e <__adddf3+0x212>
 8000482:	ea54 0c00 	orrs.w	ip, r4, r0
 8000486:	bf04      	itt	eq
 8000488:	4619      	moveq	r1, r3
 800048a:	4610      	moveq	r0, r2
 800048c:	bd30      	pop	{r4, r5, pc}
 800048e:	ea91 0f03 	teq	r1, r3
 8000492:	bf1e      	ittt	ne
 8000494:	2100      	movne	r1, #0
 8000496:	2000      	movne	r0, #0
 8000498:	bd30      	popne	{r4, r5, pc}
 800049a:	ea5f 5c54 	movs.w	ip, r4, lsr #21
 800049e:	d105      	bne.n	80004ac <__adddf3+0x230>
 80004a0:	0040      	lsls	r0, r0, #1
 80004a2:	4149      	adcs	r1, r1
 80004a4:	bf28      	it	cs
 80004a6:	f041 4100 	orrcs.w	r1, r1, #2147483648	; 0x80000000
 80004aa:	bd30      	pop	{r4, r5, pc}
 80004ac:	f514 0480 	adds.w	r4, r4, #4194304	; 0x400000
 80004b0:	bf3c      	itt	cc
 80004b2:	f501 1180 	addcc.w	r1, r1, #1048576	; 0x100000
 80004b6:	bd30      	popcc	{r4, r5, pc}
 80004b8:	f001 4500 	and.w	r5, r1, #2147483648	; 0x80000000
 80004bc:	f045 41fe 	orr.w	r1, r5, #2130706432	; 0x7f000000
 80004c0:	f441 0170 	orr.w	r1, r1, #15728640	; 0xf00000
 80004c4:	f04f 0000 	mov.w	r0, #0
 80004c8:	bd30      	pop	{r4, r5, pc}
 80004ca:	ea7f 5c64 	mvns.w	ip, r4, asr #21
 80004ce:	bf1a      	itte	ne
 80004d0:	4619      	movne	r1, r3
 80004d2:	4610      	movne	r0, r2
 80004d4:	ea7f 5c65 	mvnseq.w	ip, r5, asr #21
 80004d8:	bf1c      	itt	ne
 80004da:	460b      	movne	r3, r1
 80004dc:	4602      	movne	r2, r0
 80004de:	ea50 3401 	orrs.w	r4, r0, r1, lsl #12
 80004e2:	bf06      	itte	eq
 80004e4:	ea52 3503 	orrseq.w	r5, r2, r3, lsl #12
 80004e8:	ea91 0f03 	teqeq	r1, r3
 80004ec:	f441 2100 	orrne.w	r1, r1, #524288	; 0x80000
 80004f0:	bd30      	pop	{r4, r5, pc}
 80004f2:	bf00      	nop

080004f4 <__aeabi_ui2d>:
 80004f4:	f090 0f00 	teq	r0, #0
 80004f8:	bf04      	itt	eq
 80004fa:	2100      	moveq	r1, #0
 80004fc:	4770      	bxeq	lr
 80004fe:	b530      	push	{r4, r5, lr}
 8000500:	f44f 6480 	mov.w	r4, #1024	; 0x400
 8000504:	f104 0432 	add.w	r4, r4, #50	; 0x32
 8000508:	f04f 0500 	mov.w	r5, #0
 800050c:	f04f 0100 	mov.w	r1, #0
 8000510:	e750      	b.n	80003b4 <__adddf3+0x138>
 8000512:	bf00      	nop

08000514 <__aeabi_i2d>:
 8000514:	f090 0f00 	teq	r0, #0
 8000518:	bf04      	itt	eq
 800051a:	2100      	moveq	r1, #0
 800051c:	4770      	bxeq	lr
 800051e:	b530      	push	{r4, r5, lr}
 8000520:	f44f 6480 	mov.w	r4, #1024	; 0x400
 8000524:	f104 0432 	add.w	r4, r4, #50	; 0x32
 8000528:	f010 4500 	ands.w	r5, r0, #2147483648	; 0x80000000
 800052c:	bf48      	it	mi
 800052e:	4240      	negmi	r0, r0
 8000530:	f04f 0100 	mov.w	r1, #0
 8000534:	e73e      	b.n	80003b4 <__adddf3+0x138>
 8000536:	bf00      	nop

08000538 <__aeabi_f2d>:
 8000538:	0042      	lsls	r2, r0, #1
 800053a:	ea4f 01e2 	mov.w	r1, r2, asr #3
 800053e:	ea4f 0131 	mov.w	r1, r1, rrx
 8000542:	ea4f 7002 	mov.w	r0, r2, lsl #28
 8000546:	bf1f      	itttt	ne
 8000548:	f012 437f 	andsne.w	r3, r2, #4278190080	; 0xff000000
 800054c:	f093 4f7f 	teqne	r3, #4278190080	; 0xff000000
 8000550:	f081 5160 	eorne.w	r1, r1, #939524096	; 0x38000000
 8000554:	4770      	bxne	lr
 8000556:	f032 427f 	bics.w	r2, r2, #4278190080	; 0xff000000
 800055a:	bf08      	it	eq
 800055c:	4770      	bxeq	lr
 800055e:	f093 4f7f 	teq	r3, #4278190080	; 0xff000000
 8000562:	bf04      	itt	eq
 8000564:	f441 2100 	orreq.w	r1, r1, #524288	; 0x80000
 8000568:	4770      	bxeq	lr
 800056a:	b530      	push	{r4, r5, lr}
 800056c:	f44f 7460 	mov.w	r4, #896	; 0x380
 8000570:	f001 4500 	and.w	r5, r1, #2147483648	; 0x80000000
 8000574:	f021 4100 	bic.w	r1, r1, #2147483648	; 0x80000000
 8000578:	e71c      	b.n	80003b4 <__adddf3+0x138>
 800057a:	bf00      	nop

0800057c <__aeabi_ul2d>:
 800057c:	ea50 0201 	orrs.w	r2, r0, r1
 8000580:	bf08      	it	eq
 8000582:	4770      	bxeq	lr
 8000584:	b530      	push	{r4, r5, lr}
 8000586:	f04f 0500 	mov.w	r5, #0
 800058a:	e00a      	b.n	80005a2 <__aeabi_l2d+0x16>

0800058c <__aeabi_l2d>:
 800058c:	ea50 0201 	orrs.w	r2, r0, r1
 8000590:	bf08      	it	eq
 8000592:	4770      	bxeq	lr
 8000594:	b530      	push	{r4, r5, lr}
 8000596:	f011 4500 	ands.w	r5, r1, #2147483648	; 0x80000000
 800059a:	d502      	bpl.n	80005a2 <__aeabi_l2d+0x16>
 800059c:	4240      	negs	r0, r0
 800059e:	eb61 0141 	sbc.w	r1, r1, r1, lsl #1
 80005a2:	f44f 6480 	mov.w	r4, #1024	; 0x400
 80005a6:	f104 0432 	add.w	r4, r4, #50	; 0x32
 80005aa:	ea5f 5c91 	movs.w	ip, r1, lsr #22
 80005ae:	f43f aed8 	beq.w	8000362 <__adddf3+0xe6>
 80005b2:	f04f 0203 	mov.w	r2, #3
 80005b6:	ea5f 0cdc 	movs.w	ip, ip, lsr #3
 80005ba:	bf18      	it	ne
 80005bc:	3203      	addne	r2, #3
 80005be:	ea5f 0cdc 	movs.w	ip, ip, lsr #3
 80005c2:	bf18      	it	ne
 80005c4:	3203      	addne	r2, #3
 80005c6:	eb02 02dc 	add.w	r2, r2, ip, lsr #3
 80005ca:	f1c2 0320 	rsb	r3, r2, #32
 80005ce:	fa00 fc03 	lsl.w	ip, r0, r3
 80005d2:	fa20 f002 	lsr.w	r0, r0, r2
 80005d6:	fa01 fe03 	lsl.w	lr, r1, r3
 80005da:	ea40 000e 	orr.w	r0, r0, lr
 80005de:	fa21 f102 	lsr.w	r1, r1, r2
 80005e2:	4414      	add	r4, r2
 80005e4:	e6bd      	b.n	8000362 <__adddf3+0xe6>
 80005e6:	bf00      	nop

080005e8 <__aeabi_dmul>:
 80005e8:	b570      	push	{r4, r5, r6, lr}
 80005ea:	f04f 0cff 	mov.w	ip, #255	; 0xff
 80005ee:	f44c 6ce0 	orr.w	ip, ip, #1792	; 0x700
 80005f2:	ea1c 5411 	ands.w	r4, ip, r1, lsr #20
 80005f6:	bf1d      	ittte	ne
 80005f8:	ea1c 5513 	andsne.w	r5, ip, r3, lsr #20
 80005fc:	ea94 0f0c 	teqne	r4, ip
 8000600:	ea95 0f0c 	teqne	r5, ip
 8000604:	f000 f8de 	bleq	80007c4 <__aeabi_dmul+0x1dc>
 8000608:	442c      	add	r4, r5
 800060a:	ea81 0603 	eor.w	r6, r1, r3
 800060e:	ea21 514c 	bic.w	r1, r1, ip, lsl #21
 8000612:	ea23 534c 	bic.w	r3, r3, ip, lsl #21
 8000616:	ea50 3501 	orrs.w	r5, r0, r1, lsl #12
 800061a:	bf18      	it	ne
 800061c:	ea52 3503 	orrsne.w	r5, r2, r3, lsl #12
 8000620:	f441 1180 	orr.w	r1, r1, #1048576	; 0x100000
 8000624:	f443 1380 	orr.w	r3, r3, #1048576	; 0x100000
 8000628:	d038      	beq.n	800069c <__aeabi_dmul+0xb4>
 800062a:	fba0 ce02 	umull	ip, lr, r0, r2
 800062e:	f04f 0500 	mov.w	r5, #0
 8000632:	fbe1 e502 	umlal	lr, r5, r1, r2
 8000636:	f006 4200 	and.w	r2, r6, #2147483648	; 0x80000000
 800063a:	fbe0 e503 	umlal	lr, r5, r0, r3
 800063e:	f04f 0600 	mov.w	r6, #0
 8000642:	fbe1 5603 	umlal	r5, r6, r1, r3
 8000646:	f09c 0f00 	teq	ip, #0
 800064a:	bf18      	it	ne
 800064c:	f04e 0e01 	orrne.w	lr, lr, #1
 8000650:	f1a4 04ff 	sub.w	r4, r4, #255	; 0xff
 8000654:	f5b6 7f00 	cmp.w	r6, #512	; 0x200
 8000658:	f564 7440 	sbc.w	r4, r4, #768	; 0x300
 800065c:	d204      	bcs.n	8000668 <__aeabi_dmul+0x80>
 800065e:	ea5f 0e4e 	movs.w	lr, lr, lsl #1
 8000662:	416d      	adcs	r5, r5
 8000664:	eb46 0606 	adc.w	r6, r6, r6
 8000668:	ea42 21c6 	orr.w	r1, r2, r6, lsl #11
 800066c:	ea41 5155 	orr.w	r1, r1, r5, lsr #21
 8000670:	ea4f 20c5 	mov.w	r0, r5, lsl #11
 8000674:	ea40 505e 	orr.w	r0, r0, lr, lsr #21
 8000678:	ea4f 2ece 	mov.w	lr, lr, lsl #11
 800067c:	f1b4 0cfd 	subs.w	ip, r4, #253	; 0xfd
 8000680:	bf88      	it	hi
 8000682:	f5bc 6fe0 	cmphi.w	ip, #1792	; 0x700
 8000686:	d81e      	bhi.n	80006c6 <__aeabi_dmul+0xde>
 8000688:	f1be 4f00 	cmp.w	lr, #2147483648	; 0x80000000
 800068c:	bf08      	it	eq
 800068e:	ea5f 0e50 	movseq.w	lr, r0, lsr #1
 8000692:	f150 0000 	adcs.w	r0, r0, #0
 8000696:	eb41 5104 	adc.w	r1, r1, r4, lsl #20
 800069a:	bd70      	pop	{r4, r5, r6, pc}
 800069c:	f006 4600 	and.w	r6, r6, #2147483648	; 0x80000000
 80006a0:	ea46 0101 	orr.w	r1, r6, r1
 80006a4:	ea40 0002 	orr.w	r0, r0, r2
 80006a8:	ea81 0103 	eor.w	r1, r1, r3
 80006ac:	ebb4 045c 	subs.w	r4, r4, ip, lsr #1
 80006b0:	bfc2      	ittt	gt
 80006b2:	ebd4 050c 	rsbsgt	r5, r4, ip
 80006b6:	ea41 5104 	orrgt.w	r1, r1, r4, lsl #20
 80006ba:	bd70      	popgt	{r4, r5, r6, pc}
 80006bc:	f441 1180 	orr.w	r1, r1, #1048576	; 0x100000
 80006c0:	f04f 0e00 	mov.w	lr, #0
 80006c4:	3c01      	subs	r4, #1
 80006c6:	f300 80ab 	bgt.w	8000820 <__aeabi_dmul+0x238>
 80006ca:	f114 0f36 	cmn.w	r4, #54	; 0x36
 80006ce:	bfde      	ittt	le
 80006d0:	2000      	movle	r0, #0
 80006d2:	f001 4100 	andle.w	r1, r1, #2147483648	; 0x80000000
 80006d6:	bd70      	pople	{r4, r5, r6, pc}
 80006d8:	f1c4 0400 	rsb	r4, r4, #0
 80006dc:	3c20      	subs	r4, #32
 80006de:	da35      	bge.n	800074c <__aeabi_dmul+0x164>
 80006e0:	340c      	adds	r4, #12
 80006e2:	dc1b      	bgt.n	800071c <__aeabi_dmul+0x134>
 80006e4:	f104 0414 	add.w	r4, r4, #20
 80006e8:	f1c4 0520 	rsb	r5, r4, #32
 80006ec:	fa00 f305 	lsl.w	r3, r0, r5
 80006f0:	fa20 f004 	lsr.w	r0, r0, r4
 80006f4:	fa01 f205 	lsl.w	r2, r1, r5
 80006f8:	ea40 0002 	orr.w	r0, r0, r2
 80006fc:	f001 4200 	and.w	r2, r1, #2147483648	; 0x80000000
 8000700:	f021 4100 	bic.w	r1, r1, #2147483648	; 0x80000000
 8000704:	eb10 70d3 	adds.w	r0, r0, r3, lsr #31
 8000708:	fa21 f604 	lsr.w	r6, r1, r4
 800070c:	eb42 0106 	adc.w	r1, r2, r6
 8000710:	ea5e 0e43 	orrs.w	lr, lr, r3, lsl #1
 8000714:	bf08      	it	eq
 8000716:	ea20 70d3 	biceq.w	r0, r0, r3, lsr #31
 800071a:	bd70      	pop	{r4, r5, r6, pc}
 800071c:	f1c4 040c 	rsb	r4, r4, #12
 8000720:	f1c4 0520 	rsb	r5, r4, #32
 8000724:	fa00 f304 	lsl.w	r3, r0, r4
 8000728:	fa20 f005 	lsr.w	r0, r0, r5
 800072c:	fa01 f204 	lsl.w	r2, r1, r4
 8000730:	ea40 0002 	orr.w	r0, r0, r2
 8000734:	f001 4100 	and.w	r1, r1, #2147483648	; 0x80000000
 8000738:	eb10 70d3 	adds.w	r0, r0, r3, lsr #31
 800073c:	f141 0100 	adc.w	r1, r1, #0
 8000740:	ea5e 0e43 	orrs.w	lr, lr, r3, lsl #1
 8000744:	bf08      	it	eq
 8000746:	ea20 70d3 	biceq.w	r0, r0, r3, lsr #31
 800074a:	bd70      	pop	{r4, r5, r6, pc}
 800074c:	f1c4 0520 	rsb	r5, r4, #32
 8000750:	fa00 f205 	lsl.w	r2, r0, r5
 8000754:	ea4e 0e02 	orr.w	lr, lr, r2
 8000758:	fa20 f304 	lsr.w	r3, r0, r4
 800075c:	fa01 f205 	lsl.w	r2, r1, r5
 8000760:	ea43 0302 	orr.w	r3, r3, r2
 8000764:	fa21 f004 	lsr.w	r0, r1, r4
 8000768:	f001 4100 	and.w	r1, r1, #2147483648	; 0x80000000
 800076c:	fa21 f204 	lsr.w	r2, r1, r4
 8000770:	ea20 0002 	bic.w	r0, r0, r2
 8000774:	eb00 70d3 	add.w	r0, r0, r3, lsr #31
 8000778:	ea5e 0e43 	orrs.w	lr, lr, r3, lsl #1
 800077c:	bf08      	it	eq
 800077e:	ea20 70d3 	biceq.w	r0, r0, r3, lsr #31
 8000782:	bd70      	pop	{r4, r5, r6, pc}
 8000784:	f094 0f00 	teq	r4, #0
 8000788:	d10f      	bne.n	80007aa <__aeabi_dmul+0x1c2>
 800078a:	f001 4600 	and.w	r6, r1, #2147483648	; 0x80000000
 800078e:	0040      	lsls	r0, r0, #1
 8000790:	eb41 0101 	adc.w	r1, r1, r1
 8000794:	f411 1f80 	tst.w	r1, #1048576	; 0x100000
 8000798:	bf08      	it	eq
 800079a:	3c01      	subeq	r4, #1
 800079c:	d0f7      	beq.n	800078e <__aeabi_dmul+0x1a6>
 800079e:	ea41 0106 	orr.w	r1, r1, r6
 80007a2:	f095 0f00 	teq	r5, #0
 80007a6:	bf18      	it	ne
 80007a8:	4770      	bxne	lr
 80007aa:	f003 4600 	and.w	r6, r3, #2147483648	; 0x80000000
 80007ae:	0052      	lsls	r2, r2, #1
 80007b0:	eb43 0303 	adc.w	r3, r3, r3
 80007b4:	f413 1f80 	tst.w	r3, #1048576	; 0x100000
 80007b8:	bf08      	it	eq
 80007ba:	3d01      	subeq	r5, #1
 80007bc:	d0f7      	beq.n	80007ae <__aeabi_dmul+0x1c6>
 80007be:	ea43 0306 	orr.w	r3, r3, r6
 80007c2:	4770      	bx	lr
 80007c4:	ea94 0f0c 	teq	r4, ip
 80007c8:	ea0c 5513 	and.w	r5, ip, r3, lsr #20
 80007cc:	bf18      	it	ne
 80007ce:	ea95 0f0c 	teqne	r5, ip
 80007d2:	d00c      	beq.n	80007ee <__aeabi_dmul+0x206>
 80007d4:	ea50 0641 	orrs.w	r6, r0, r1, lsl #1
 80007d8:	bf18      	it	ne
 80007da:	ea52 0643 	orrsne.w	r6, r2, r3, lsl #1
 80007de:	d1d1      	bne.n	8000784 <__aeabi_dmul+0x19c>
 80007e0:	ea81 0103 	eor.w	r1, r1, r3
 80007e4:	f001 4100 	and.w	r1, r1, #2147483648	; 0x80000000
 80007e8:	f04f 0000 	mov.w	r0, #0
 80007ec:	bd70      	pop	{r4, r5, r6, pc}
 80007ee:	ea50 0641 	orrs.w	r6, r0, r1, lsl #1
 80007f2:	bf06      	itte	eq
 80007f4:	4610      	moveq	r0, r2
 80007f6:	4619      	moveq	r1, r3
 80007f8:	ea52 0643 	orrsne.w	r6, r2, r3, lsl #1
 80007fc:	d019      	beq.n	8000832 <__aeabi_dmul+0x24a>
 80007fe:	ea94 0f0c 	teq	r4, ip
 8000802:	d102      	bne.n	800080a <__aeabi_dmul+0x222>
 8000804:	ea50 3601 	orrs.w	r6, r0, r1, lsl #12
 8000808:	d113      	bne.n	8000832 <__aeabi_dmul+0x24a>
 800080a:	ea95 0f0c 	teq	r5, ip
 800080e:	d105      	bne.n	800081c <__aeabi_dmul+0x234>
 8000810:	ea52 3603 	orrs.w	r6, r2, r3, lsl #12
 8000814:	bf1c      	itt	ne
 8000816:	4610      	movne	r0, r2
 8000818:	4619      	movne	r1, r3
 800081a:	d10a      	bne.n	8000832 <__aeabi_dmul+0x24a>
 800081c:	ea81 0103 	eor.w	r1, r1, r3
 8000820:	f001 4100 	and.w	r1, r1, #2147483648	; 0x80000000
 8000824:	f041 41fe 	orr.w	r1, r1, #2130706432	; 0x7f000000
 8000828:	f441 0170 	orr.w	r1, r1, #15728640	; 0xf00000
 800082c:	f04f 0000 	mov.w	r0, #0
 8000830:	bd70      	pop	{r4, r5, r6, pc}
 8000832:	f041 41fe 	orr.w	r1, r1, #2130706432	; 0x7f000000
 8000836:	f441 0178 	orr.w	r1, r1, #16252928	; 0xf80000
 800083a:	bd70      	pop	{r4, r5, r6, pc}

0800083c <__aeabi_ddiv>:
 800083c:	b570      	push	{r4, r5, r6, lr}
 800083e:	f04f 0cff 	mov.w	ip, #255	; 0xff
 8000842:	f44c 6ce0 	orr.w	ip, ip, #1792	; 0x700
 8000846:	ea1c 5411 	ands.w	r4, ip, r1, lsr #20
 800084a:	bf1d      	ittte	ne
 800084c:	ea1c 5513 	andsne.w	r5, ip, r3, lsr #20
 8000850:	ea94 0f0c 	teqne	r4, ip
 8000854:	ea95 0f0c 	teqne	r5, ip
 8000858:	f000 f8a7 	bleq	80009aa <__aeabi_ddiv+0x16e>
 800085c:	eba4 0405 	sub.w	r4, r4, r5
 8000860:	ea81 0e03 	eor.w	lr, r1, r3
 8000864:	ea52 3503 	orrs.w	r5, r2, r3, lsl #12
 8000868:	ea4f 3101 	mov.w	r1, r1, lsl #12
 800086c:	f000 8088 	beq.w	8000980 <__aeabi_ddiv+0x144>
 8000870:	ea4f 3303 	mov.w	r3, r3, lsl #12
 8000874:	f04f 5580 	mov.w	r5, #268435456	; 0x10000000
 8000878:	ea45 1313 	orr.w	r3, r5, r3, lsr #4
 800087c:	ea43 6312 	orr.w	r3, r3, r2, lsr #24
 8000880:	ea4f 2202 	mov.w	r2, r2, lsl #8
 8000884:	ea45 1511 	orr.w	r5, r5, r1, lsr #4
 8000888:	ea45 6510 	orr.w	r5, r5, r0, lsr #24
 800088c:	ea4f 2600 	mov.w	r6, r0, lsl #8
 8000890:	f00e 4100 	and.w	r1, lr, #2147483648	; 0x80000000
 8000894:	429d      	cmp	r5, r3
 8000896:	bf08      	it	eq
 8000898:	4296      	cmpeq	r6, r2
 800089a:	f144 04fd 	adc.w	r4, r4, #253	; 0xfd
 800089e:	f504 7440 	add.w	r4, r4, #768	; 0x300
 80008a2:	d202      	bcs.n	80008aa <__aeabi_ddiv+0x6e>
 80008a4:	085b      	lsrs	r3, r3, #1
 80008a6:	ea4f 0232 	mov.w	r2, r2, rrx
 80008aa:	1ab6      	subs	r6, r6, r2
 80008ac:	eb65 0503 	sbc.w	r5, r5, r3
 80008b0:	085b      	lsrs	r3, r3, #1
 80008b2:	ea4f 0232 	mov.w	r2, r2, rrx
 80008b6:	f44f 1080 	mov.w	r0, #1048576	; 0x100000
 80008ba:	f44f 2c00 	mov.w	ip, #524288	; 0x80000
 80008be:	ebb6 0e02 	subs.w	lr, r6, r2
 80008c2:	eb75 0e03 	sbcs.w	lr, r5, r3
 80008c6:	bf22      	ittt	cs
 80008c8:	1ab6      	subcs	r6, r6, r2
 80008ca:	4675      	movcs	r5, lr
 80008cc:	ea40 000c 	orrcs.w	r0, r0, ip
 80008d0:	085b      	lsrs	r3, r3, #1
 80008d2:	ea4f 0232 	mov.w	r2, r2, rrx
 80008d6:	ebb6 0e02 	subs.w	lr, r6, r2
 80008da:	eb75 0e03 	sbcs.w	lr, r5, r3
 80008de:	bf22      	ittt	cs
 80008e0:	1ab6      	subcs	r6, r6, r2
 80008e2:	4675      	movcs	r5, lr
 80008e4:	ea40 005c 	orrcs.w	r0, r0, ip, lsr #1
 80008e8:	085b      	lsrs	r3, r3, #1
 80008ea:	ea4f 0232 	mov.w	r2, r2, rrx
 80008ee:	ebb6 0e02 	subs.w	lr, r6, r2
 80008f2:	eb75 0e03 	sbcs.w	lr, r5, r3
 80008f6:	bf22      	ittt	cs
 80008f8:	1ab6      	subcs	r6, r6, r2
 80008fa:	4675      	movcs	r5, lr
 80008fc:	ea40 009c 	orrcs.w	r0, r0, ip, lsr #2
 8000900:	085b      	lsrs	r3, r3, #1
 8000902:	ea4f 0232 	mov.w	r2, r2, rrx
 8000906:	ebb6 0e02 	subs.w	lr, r6, r2
 800090a:	eb75 0e03 	sbcs.w	lr, r5, r3
 800090e:	bf22      	ittt	cs
 8000910:	1ab6      	subcs	r6, r6, r2
 8000912:	4675      	movcs	r5, lr
 8000914:	ea40 00dc 	orrcs.w	r0, r0, ip, lsr #3
 8000918:	ea55 0e06 	orrs.w	lr, r5, r6
 800091c:	d018      	beq.n	8000950 <__aeabi_ddiv+0x114>
 800091e:	ea4f 1505 	mov.w	r5, r5, lsl #4
 8000922:	ea45 7516 	orr.w	r5, r5, r6, lsr #28
 8000926:	ea4f 1606 	mov.w	r6, r6, lsl #4
 800092a:	ea4f 03c3 	mov.w	r3, r3, lsl #3
 800092e:	ea43 7352 	orr.w	r3, r3, r2, lsr #29
 8000932:	ea4f 02c2 	mov.w	r2, r2, lsl #3
 8000936:	ea5f 1c1c 	movs.w	ip, ip, lsr #4
 800093a:	d1c0      	bne.n	80008be <__aeabi_ddiv+0x82>
 800093c:	f411 1f80 	tst.w	r1, #1048576	; 0x100000
 8000940:	d10b      	bne.n	800095a <__aeabi_ddiv+0x11e>
 8000942:	ea41 0100 	orr.w	r1, r1, r0
 8000946:	f04f 0000 	mov.w	r0, #0
 800094a:	f04f 4c00 	mov.w	ip, #2147483648	; 0x80000000
 800094e:	e7b6      	b.n	80008be <__aeabi_ddiv+0x82>
 8000950:	f411 1f80 	tst.w	r1, #1048576	; 0x100000
 8000954:	bf04      	itt	eq
 8000956:	4301      	orreq	r1, r0
 8000958:	2000      	moveq	r0, #0
 800095a:	f1b4 0cfd 	subs.w	ip, r4, #253	; 0xfd
 800095e:	bf88      	it	hi
 8000960:	f5bc 6fe0 	cmphi.w	ip, #1792	; 0x700
 8000964:	f63f aeaf 	bhi.w	80006c6 <__aeabi_dmul+0xde>
 8000968:	ebb5 0c03 	subs.w	ip, r5, r3
 800096c:	bf04      	itt	eq
 800096e:	ebb6 0c02 	subseq.w	ip, r6, r2
 8000972:	ea5f 0c50 	movseq.w	ip, r0, lsr #1
 8000976:	f150 0000 	adcs.w	r0, r0, #0
 800097a:	eb41 5104 	adc.w	r1, r1, r4, lsl #20
 800097e:	bd70      	pop	{r4, r5, r6, pc}
 8000980:	f00e 4e00 	and.w	lr, lr, #2147483648	; 0x80000000
 8000984:	ea4e 3111 	orr.w	r1, lr, r1, lsr #12
 8000988:	eb14 045c 	adds.w	r4, r4, ip, lsr #1
 800098c:	bfc2      	ittt	gt
 800098e:	ebd4 050c 	rsbsgt	r5, r4, ip
 8000992:	ea41 5104 	orrgt.w	r1, r1, r4, lsl #20
 8000996:	bd70      	popgt	{r4, r5, r6, pc}
 8000998:	f441 1180 	orr.w	r1, r1, #1048576	; 0x100000
 800099c:	f04f 0e00 	mov.w	lr, #0
 80009a0:	3c01      	subs	r4, #1
 80009a2:	e690      	b.n	80006c6 <__aeabi_dmul+0xde>
 80009a4:	ea45 0e06 	orr.w	lr, r5, r6
 80009a8:	e68d      	b.n	80006c6 <__aeabi_dmul+0xde>
 80009aa:	ea0c 5513 	and.w	r5, ip, r3, lsr #20
 80009ae:	ea94 0f0c 	teq	r4, ip
 80009b2:	bf08      	it	eq
 80009b4:	ea95 0f0c 	teqeq	r5, ip
 80009b8:	f43f af3b 	beq.w	8000832 <__aeabi_dmul+0x24a>
 80009bc:	ea94 0f0c 	teq	r4, ip
 80009c0:	d10a      	bne.n	80009d8 <__aeabi_ddiv+0x19c>
 80009c2:	ea50 3401 	orrs.w	r4, r0, r1, lsl #12
 80009c6:	f47f af34 	bne.w	8000832 <__aeabi_dmul+0x24a>
 80009ca:	ea95 0f0c 	teq	r5, ip
 80009ce:	f47f af25 	bne.w	800081c <__aeabi_dmul+0x234>
 80009d2:	4610      	mov	r0, r2
 80009d4:	4619      	mov	r1, r3
 80009d6:	e72c      	b.n	8000832 <__aeabi_dmul+0x24a>
 80009d8:	ea95 0f0c 	teq	r5, ip
 80009dc:	d106      	bne.n	80009ec <__aeabi_ddiv+0x1b0>
 80009de:	ea52 3503 	orrs.w	r5, r2, r3, lsl #12
 80009e2:	f43f aefd 	beq.w	80007e0 <__aeabi_dmul+0x1f8>
 80009e6:	4610      	mov	r0, r2
 80009e8:	4619      	mov	r1, r3
 80009ea:	e722      	b.n	8000832 <__aeabi_dmul+0x24a>
 80009ec:	ea50 0641 	orrs.w	r6, r0, r1, lsl #1
 80009f0:	bf18      	it	ne
 80009f2:	ea52 0643 	orrsne.w	r6, r2, r3, lsl #1
 80009f6:	f47f aec5 	bne.w	8000784 <__aeabi_dmul+0x19c>
 80009fa:	ea50 0441 	orrs.w	r4, r0, r1, lsl #1
 80009fe:	f47f af0d 	bne.w	800081c <__aeabi_dmul+0x234>
 8000a02:	ea52 0543 	orrs.w	r5, r2, r3, lsl #1
 8000a06:	f47f aeeb 	bne.w	80007e0 <__aeabi_dmul+0x1f8>
 8000a0a:	e712      	b.n	8000832 <__aeabi_dmul+0x24a>

08000a0c <__aeabi_d2f>:
 8000a0c:	ea4f 0241 	mov.w	r2, r1, lsl #1
 8000a10:	f1b2 43e0 	subs.w	r3, r2, #1879048192	; 0x70000000
 8000a14:	bf24      	itt	cs
 8000a16:	f5b3 1c00 	subscs.w	ip, r3, #2097152	; 0x200000
 8000a1a:	f1dc 5cfe 	rsbscs	ip, ip, #532676608	; 0x1fc00000
 8000a1e:	d90d      	bls.n	8000a3c <__aeabi_d2f+0x30>
 8000a20:	f001 4c00 	and.w	ip, r1, #2147483648	; 0x80000000
 8000a24:	ea4f 02c0 	mov.w	r2, r0, lsl #3
 8000a28:	ea4c 7050 	orr.w	r0, ip, r0, lsr #29
 8000a2c:	f1b2 4f00 	cmp.w	r2, #2147483648	; 0x80000000
 8000a30:	eb40 0083 	adc.w	r0, r0, r3, lsl #2
 8000a34:	bf08      	it	eq
 8000a36:	f020 0001 	biceq.w	r0, r0, #1
 8000a3a:	4770      	bx	lr
 8000a3c:	f011 4f80 	tst.w	r1, #1073741824	; 0x40000000
 8000a40:	d121      	bne.n	8000a86 <__aeabi_d2f+0x7a>
 8000a42:	f113 7238 	adds.w	r2, r3, #48234496	; 0x2e00000
 8000a46:	bfbc      	itt	lt
 8000a48:	f001 4000 	andlt.w	r0, r1, #2147483648	; 0x80000000
 8000a4c:	4770      	bxlt	lr
 8000a4e:	f441 1180 	orr.w	r1, r1, #1048576	; 0x100000
 8000a52:	ea4f 5252 	mov.w	r2, r2, lsr #21
 8000a56:	f1c2 0218 	rsb	r2, r2, #24
 8000a5a:	f1c2 0c20 	rsb	ip, r2, #32
 8000a5e:	fa10 f30c 	lsls.w	r3, r0, ip
 8000a62:	fa20 f002 	lsr.w	r0, r0, r2
 8000a66:	bf18      	it	ne
 8000a68:	f040 0001 	orrne.w	r0, r0, #1
 8000a6c:	ea4f 23c1 	mov.w	r3, r1, lsl #11
 8000a70:	ea4f 23d3 	mov.w	r3, r3, lsr #11
 8000a74:	fa03 fc0c 	lsl.w	ip, r3, ip
 8000a78:	ea40 000c 	orr.w	r0, r0, ip
 8000a7c:	fa23 f302 	lsr.w	r3, r3, r2
 8000a80:	ea4f 0343 	mov.w	r3, r3, lsl #1
 8000a84:	e7cc      	b.n	8000a20 <__aeabi_d2f+0x14>
 8000a86:	ea7f 5362 	mvns.w	r3, r2, asr #21
 8000a8a:	d107      	bne.n	8000a9c <__aeabi_d2f+0x90>
 8000a8c:	ea50 3301 	orrs.w	r3, r0, r1, lsl #12
 8000a90:	bf1e      	ittt	ne
 8000a92:	f04f 40fe 	movne.w	r0, #2130706432	; 0x7f000000
 8000a96:	f440 0040 	orrne.w	r0, r0, #12582912	; 0xc00000
 8000a9a:	4770      	bxne	lr
 8000a9c:	f001 4000 	and.w	r0, r1, #2147483648	; 0x80000000
 8000aa0:	f040 40fe 	orr.w	r0, r0, #2130706432	; 0x7f000000
 8000aa4:	f440 0000 	orr.w	r0, r0, #8388608	; 0x800000
 8000aa8:	4770      	bx	lr
 8000aaa:	bf00      	nop

08000aac <__aeabi_ldivmod>:
 8000aac:	b97b      	cbnz	r3, 8000ace <__aeabi_ldivmod+0x22>
 8000aae:	b972      	cbnz	r2, 8000ace <__aeabi_ldivmod+0x22>
 8000ab0:	2900      	cmp	r1, #0
 8000ab2:	bfbe      	ittt	lt
 8000ab4:	2000      	movlt	r0, #0
 8000ab6:	f04f 4100 	movlt.w	r1, #2147483648	; 0x80000000
 8000aba:	e006      	blt.n	8000aca <__aeabi_ldivmod+0x1e>
 8000abc:	bf08      	it	eq
 8000abe:	2800      	cmpeq	r0, #0
 8000ac0:	bf1c      	itt	ne
 8000ac2:	f06f 4100 	mvnne.w	r1, #2147483648	; 0x80000000
 8000ac6:	f04f 30ff 	movne.w	r0, #4294967295
 8000aca:	f000 b9a5 	b.w	8000e18 <__aeabi_idiv0>
 8000ace:	f1ad 0c08 	sub.w	ip, sp, #8
 8000ad2:	e96d ce04 	strd	ip, lr, [sp, #-16]!
 8000ad6:	2900      	cmp	r1, #0
 8000ad8:	db09      	blt.n	8000aee <__aeabi_ldivmod+0x42>
 8000ada:	2b00      	cmp	r3, #0
 8000adc:	db1a      	blt.n	8000b14 <__aeabi_ldivmod+0x68>
 8000ade:	f000 f835 	bl	8000b4c <__udivmoddi4>
 8000ae2:	f8dd e004 	ldr.w	lr, [sp, #4]
 8000ae6:	e9dd 2302 	ldrd	r2, r3, [sp, #8]
 8000aea:	b004      	add	sp, #16
 8000aec:	4770      	bx	lr
 8000aee:	4240      	negs	r0, r0
 8000af0:	eb61 0141 	sbc.w	r1, r1, r1, lsl #1
 8000af4:	2b00      	cmp	r3, #0
 8000af6:	db1b      	blt.n	8000b30 <__aeabi_ldivmod+0x84>
 8000af8:	f000 f828 	bl	8000b4c <__udivmoddi4>
 8000afc:	f8dd e004 	ldr.w	lr, [sp, #4]
 8000b00:	e9dd 2302 	ldrd	r2, r3, [sp, #8]
 8000b04:	b004      	add	sp, #16
 8000b06:	4240      	negs	r0, r0
 8000b08:	eb61 0141 	sbc.w	r1, r1, r1, lsl #1
 8000b0c:	4252      	negs	r2, r2
 8000b0e:	eb63 0343 	sbc.w	r3, r3, r3, lsl #1
 8000b12:	4770      	bx	lr
 8000b14:	4252      	negs	r2, r2
 8000b16:	eb63 0343 	sbc.w	r3, r3, r3, lsl #1
 8000b1a:	f000 f817 	bl	8000b4c <__udivmoddi4>
 8000b1e:	f8dd e004 	ldr.w	lr, [sp, #4]
 8000b22:	e9dd 2302 	ldrd	r2, r3, [sp, #8]
 8000b26:	b004      	add	sp, #16
 8000b28:	4240      	negs	r0, r0
 8000b2a:	eb61 0141 	sbc.w	r1, r1, r1, lsl #1
 8000b2e:	4770      	bx	lr
 8000b30:	4252      	negs	r2, r2
 8000b32:	eb63 0343 	sbc.w	r3, r3, r3, lsl #1
 8000b36:	f000 f809 	bl	8000b4c <__udivmoddi4>
 8000b3a:	f8dd e004 	ldr.w	lr, [sp, #4]
 8000b3e:	e9dd 2302 	ldrd	r2, r3, [sp, #8]
 8000b42:	b004      	add	sp, #16
 8000b44:	4252      	negs	r2, r2
 8000b46:	eb63 0343 	sbc.w	r3, r3, r3, lsl #1
 8000b4a:	4770      	bx	lr

08000b4c <__udivmoddi4>:
 8000b4c:	e92d 47f0 	stmdb	sp!, {r4, r5, r6, r7, r8, r9, sl, lr}
 8000b50:	9e08      	ldr	r6, [sp, #32]
 8000b52:	4604      	mov	r4, r0
 8000b54:	4688      	mov	r8, r1
 8000b56:	2b00      	cmp	r3, #0
 8000b58:	d14b      	bne.n	8000bf2 <__udivmoddi4+0xa6>
 8000b5a:	428a      	cmp	r2, r1
 8000b5c:	4615      	mov	r5, r2
 8000b5e:	d967      	bls.n	8000c30 <__udivmoddi4+0xe4>
 8000b60:	fab2 f282 	clz	r2, r2
 8000b64:	b14a      	cbz	r2, 8000b7a <__udivmoddi4+0x2e>
 8000b66:	f1c2 0720 	rsb	r7, r2, #32
 8000b6a:	fa01 f302 	lsl.w	r3, r1, r2
 8000b6e:	fa20 f707 	lsr.w	r7, r0, r7
 8000b72:	4095      	lsls	r5, r2
 8000b74:	ea47 0803 	orr.w	r8, r7, r3
 8000b78:	4094      	lsls	r4, r2
 8000b7a:	ea4f 4e15 	mov.w	lr, r5, lsr #16
 8000b7e:	0c23      	lsrs	r3, r4, #16
 8000b80:	fbb8 f7fe 	udiv	r7, r8, lr
 8000b84:	fa1f fc85 	uxth.w	ip, r5
 8000b88:	fb0e 8817 	mls	r8, lr, r7, r8
 8000b8c:	ea43 4308 	orr.w	r3, r3, r8, lsl #16
 8000b90:	fb07 f10c 	mul.w	r1, r7, ip
 8000b94:	4299      	cmp	r1, r3
 8000b96:	d909      	bls.n	8000bac <__udivmoddi4+0x60>
 8000b98:	18eb      	adds	r3, r5, r3
 8000b9a:	f107 30ff 	add.w	r0, r7, #4294967295
 8000b9e:	f080 811b 	bcs.w	8000dd8 <__udivmoddi4+0x28c>
 8000ba2:	4299      	cmp	r1, r3
 8000ba4:	f240 8118 	bls.w	8000dd8 <__udivmoddi4+0x28c>
 8000ba8:	3f02      	subs	r7, #2
 8000baa:	442b      	add	r3, r5
 8000bac:	1a5b      	subs	r3, r3, r1
 8000bae:	b2a4      	uxth	r4, r4
 8000bb0:	fbb3 f0fe 	udiv	r0, r3, lr
 8000bb4:	fb0e 3310 	mls	r3, lr, r0, r3
 8000bb8:	ea44 4403 	orr.w	r4, r4, r3, lsl #16
 8000bbc:	fb00 fc0c 	mul.w	ip, r0, ip
 8000bc0:	45a4      	cmp	ip, r4
 8000bc2:	d909      	bls.n	8000bd8 <__udivmoddi4+0x8c>
 8000bc4:	192c      	adds	r4, r5, r4
 8000bc6:	f100 33ff 	add.w	r3, r0, #4294967295
 8000bca:	f080 8107 	bcs.w	8000ddc <__udivmoddi4+0x290>
 8000bce:	45a4      	cmp	ip, r4
 8000bd0:	f240 8104 	bls.w	8000ddc <__udivmoddi4+0x290>
 8000bd4:	3802      	subs	r0, #2
 8000bd6:	442c      	add	r4, r5
 8000bd8:	ea40 4007 	orr.w	r0, r0, r7, lsl #16
 8000bdc:	eba4 040c 	sub.w	r4, r4, ip
 8000be0:	2700      	movs	r7, #0
 8000be2:	b11e      	cbz	r6, 8000bec <__udivmoddi4+0xa0>
 8000be4:	40d4      	lsrs	r4, r2
 8000be6:	2300      	movs	r3, #0
 8000be8:	e9c6 4300 	strd	r4, r3, [r6]
 8000bec:	4639      	mov	r1, r7
 8000bee:	e8bd 87f0 	ldmia.w	sp!, {r4, r5, r6, r7, r8, r9, sl, pc}
 8000bf2:	428b      	cmp	r3, r1
 8000bf4:	d909      	bls.n	8000c0a <__udivmoddi4+0xbe>
 8000bf6:	2e00      	cmp	r6, #0
 8000bf8:	f000 80eb 	beq.w	8000dd2 <__udivmoddi4+0x286>
 8000bfc:	2700      	movs	r7, #0
 8000bfe:	e9c6 0100 	strd	r0, r1, [r6]
 8000c02:	4638      	mov	r0, r7
 8000c04:	4639      	mov	r1, r7
 8000c06:	e8bd 87f0 	ldmia.w	sp!, {r4, r5, r6, r7, r8, r9, sl, pc}
 8000c0a:	fab3 f783 	clz	r7, r3
 8000c0e:	2f00      	cmp	r7, #0
 8000c10:	d147      	bne.n	8000ca2 <__udivmoddi4+0x156>
 8000c12:	428b      	cmp	r3, r1
 8000c14:	d302      	bcc.n	8000c1c <__udivmoddi4+0xd0>
 8000c16:	4282      	cmp	r2, r0
 8000c18:	f200 80fa 	bhi.w	8000e10 <__udivmoddi4+0x2c4>
 8000c1c:	1a84      	subs	r4, r0, r2
 8000c1e:	eb61 0303 	sbc.w	r3, r1, r3
 8000c22:	2001      	movs	r0, #1
 8000c24:	4698      	mov	r8, r3
 8000c26:	2e00      	cmp	r6, #0
 8000c28:	d0e0      	beq.n	8000bec <__udivmoddi4+0xa0>
 8000c2a:	e9c6 4800 	strd	r4, r8, [r6]
 8000c2e:	e7dd      	b.n	8000bec <__udivmoddi4+0xa0>
 8000c30:	b902      	cbnz	r2, 8000c34 <__udivmoddi4+0xe8>
 8000c32:	deff      	udf	#255	; 0xff
 8000c34:	fab2 f282 	clz	r2, r2
 8000c38:	2a00      	cmp	r2, #0
 8000c3a:	f040 808f 	bne.w	8000d5c <__udivmoddi4+0x210>
 8000c3e:	1b49      	subs	r1, r1, r5
 8000c40:	ea4f 4e15 	mov.w	lr, r5, lsr #16
 8000c44:	fa1f f885 	uxth.w	r8, r5
 8000c48:	2701      	movs	r7, #1
 8000c4a:	fbb1 fcfe 	udiv	ip, r1, lr
 8000c4e:	0c23      	lsrs	r3, r4, #16
 8000c50:	fb0e 111c 	mls	r1, lr, ip, r1
 8000c54:	ea43 4301 	orr.w	r3, r3, r1, lsl #16
 8000c58:	fb08 f10c 	mul.w	r1, r8, ip
 8000c5c:	4299      	cmp	r1, r3
 8000c5e:	d907      	bls.n	8000c70 <__udivmoddi4+0x124>
 8000c60:	18eb      	adds	r3, r5, r3
 8000c62:	f10c 30ff 	add.w	r0, ip, #4294967295
 8000c66:	d202      	bcs.n	8000c6e <__udivmoddi4+0x122>
 8000c68:	4299      	cmp	r1, r3
 8000c6a:	f200 80cd 	bhi.w	8000e08 <__udivmoddi4+0x2bc>
 8000c6e:	4684      	mov	ip, r0
 8000c70:	1a59      	subs	r1, r3, r1
 8000c72:	b2a3      	uxth	r3, r4
 8000c74:	fbb1 f0fe 	udiv	r0, r1, lr
 8000c78:	fb0e 1410 	mls	r4, lr, r0, r1
 8000c7c:	ea43 4404 	orr.w	r4, r3, r4, lsl #16
 8000c80:	fb08 f800 	mul.w	r8, r8, r0
 8000c84:	45a0      	cmp	r8, r4
 8000c86:	d907      	bls.n	8000c98 <__udivmoddi4+0x14c>
 8000c88:	192c      	adds	r4, r5, r4
 8000c8a:	f100 33ff 	add.w	r3, r0, #4294967295
 8000c8e:	d202      	bcs.n	8000c96 <__udivmoddi4+0x14a>
 8000c90:	45a0      	cmp	r8, r4
 8000c92:	f200 80b6 	bhi.w	8000e02 <__udivmoddi4+0x2b6>
 8000c96:	4618      	mov	r0, r3
 8000c98:	eba4 0408 	sub.w	r4, r4, r8
 8000c9c:	ea40 400c 	orr.w	r0, r0, ip, lsl #16
 8000ca0:	e79f      	b.n	8000be2 <__udivmoddi4+0x96>
 8000ca2:	f1c7 0c20 	rsb	ip, r7, #32
 8000ca6:	40bb      	lsls	r3, r7
 8000ca8:	fa22 fe0c 	lsr.w	lr, r2, ip
 8000cac:	ea4e 0e03 	orr.w	lr, lr, r3
 8000cb0:	fa01 f407 	lsl.w	r4, r1, r7
 8000cb4:	fa20 f50c 	lsr.w	r5, r0, ip
 8000cb8:	fa21 f30c 	lsr.w	r3, r1, ip
 8000cbc:	ea4f 481e 	mov.w	r8, lr, lsr #16
 8000cc0:	4325      	orrs	r5, r4
 8000cc2:	fbb3 f9f8 	udiv	r9, r3, r8
 8000cc6:	0c2c      	lsrs	r4, r5, #16
 8000cc8:	fb08 3319 	mls	r3, r8, r9, r3
 8000ccc:	fa1f fa8e 	uxth.w	sl, lr
 8000cd0:	ea44 4303 	orr.w	r3, r4, r3, lsl #16
 8000cd4:	fb09 f40a 	mul.w	r4, r9, sl
 8000cd8:	429c      	cmp	r4, r3
 8000cda:	fa02 f207 	lsl.w	r2, r2, r7
 8000cde:	fa00 f107 	lsl.w	r1, r0, r7
 8000ce2:	d90b      	bls.n	8000cfc <__udivmoddi4+0x1b0>
 8000ce4:	eb1e 0303 	adds.w	r3, lr, r3
 8000ce8:	f109 30ff 	add.w	r0, r9, #4294967295
 8000cec:	f080 8087 	bcs.w	8000dfe <__udivmoddi4+0x2b2>
 8000cf0:	429c      	cmp	r4, r3
 8000cf2:	f240 8084 	bls.w	8000dfe <__udivmoddi4+0x2b2>
 8000cf6:	f1a9 0902 	sub.w	r9, r9, #2
 8000cfa:	4473      	add	r3, lr
 8000cfc:	1b1b      	subs	r3, r3, r4
 8000cfe:	b2ad      	uxth	r5, r5
 8000d00:	fbb3 f0f8 	udiv	r0, r3, r8
 8000d04:	fb08 3310 	mls	r3, r8, r0, r3
 8000d08:	ea45 4403 	orr.w	r4, r5, r3, lsl #16
 8000d0c:	fb00 fa0a 	mul.w	sl, r0, sl
 8000d10:	45a2      	cmp	sl, r4
 8000d12:	d908      	bls.n	8000d26 <__udivmoddi4+0x1da>
 8000d14:	eb1e 0404 	adds.w	r4, lr, r4
 8000d18:	f100 33ff 	add.w	r3, r0, #4294967295
 8000d1c:	d26b      	bcs.n	8000df6 <__udivmoddi4+0x2aa>
 8000d1e:	45a2      	cmp	sl, r4
 8000d20:	d969      	bls.n	8000df6 <__udivmoddi4+0x2aa>
 8000d22:	3802      	subs	r0, #2
 8000d24:	4474      	add	r4, lr
 8000d26:	ea40 4009 	orr.w	r0, r0, r9, lsl #16
 8000d2a:	fba0 8902 	umull	r8, r9, r0, r2
 8000d2e:	eba4 040a 	sub.w	r4, r4, sl
 8000d32:	454c      	cmp	r4, r9
 8000d34:	46c2      	mov	sl, r8
 8000d36:	464b      	mov	r3, r9
 8000d38:	d354      	bcc.n	8000de4 <__udivmoddi4+0x298>
 8000d3a:	d051      	beq.n	8000de0 <__udivmoddi4+0x294>
 8000d3c:	2e00      	cmp	r6, #0
 8000d3e:	d069      	beq.n	8000e14 <__udivmoddi4+0x2c8>
 8000d40:	ebb1 050a 	subs.w	r5, r1, sl
 8000d44:	eb64 0403 	sbc.w	r4, r4, r3
 8000d48:	fa04 fc0c 	lsl.w	ip, r4, ip
 8000d4c:	40fd      	lsrs	r5, r7
 8000d4e:	40fc      	lsrs	r4, r7
 8000d50:	ea4c 0505 	orr.w	r5, ip, r5
 8000d54:	e9c6 5400 	strd	r5, r4, [r6]
 8000d58:	2700      	movs	r7, #0
 8000d5a:	e747      	b.n	8000bec <__udivmoddi4+0xa0>
 8000d5c:	f1c2 0320 	rsb	r3, r2, #32
 8000d60:	fa20 f703 	lsr.w	r7, r0, r3
 8000d64:	4095      	lsls	r5, r2
 8000d66:	fa01 f002 	lsl.w	r0, r1, r2
 8000d6a:	fa21 f303 	lsr.w	r3, r1, r3
 8000d6e:	ea4f 4e15 	mov.w	lr, r5, lsr #16
 8000d72:	4338      	orrs	r0, r7
 8000d74:	0c01      	lsrs	r1, r0, #16
 8000d76:	fbb3 f7fe 	udiv	r7, r3, lr
 8000d7a:	fa1f f885 	uxth.w	r8, r5
 8000d7e:	fb0e 3317 	mls	r3, lr, r7, r3
 8000d82:	ea41 4103 	orr.w	r1, r1, r3, lsl #16
 8000d86:	fb07 f308 	mul.w	r3, r7, r8
 8000d8a:	428b      	cmp	r3, r1
 8000d8c:	fa04 f402 	lsl.w	r4, r4, r2
 8000d90:	d907      	bls.n	8000da2 <__udivmoddi4+0x256>
 8000d92:	1869      	adds	r1, r5, r1
 8000d94:	f107 3cff 	add.w	ip, r7, #4294967295
 8000d98:	d22f      	bcs.n	8000dfa <__udivmoddi4+0x2ae>
 8000d9a:	428b      	cmp	r3, r1
 8000d9c:	d92d      	bls.n	8000dfa <__udivmoddi4+0x2ae>
 8000d9e:	3f02      	subs	r7, #2
 8000da0:	4429      	add	r1, r5
 8000da2:	1acb      	subs	r3, r1, r3
 8000da4:	b281      	uxth	r1, r0
 8000da6:	fbb3 f0fe 	udiv	r0, r3, lr
 8000daa:	fb0e 3310 	mls	r3, lr, r0, r3
 8000dae:	ea41 4103 	orr.w	r1, r1, r3, lsl #16
 8000db2:	fb00 f308 	mul.w	r3, r0, r8
 8000db6:	428b      	cmp	r3, r1
 8000db8:	d907      	bls.n	8000dca <__udivmoddi4+0x27e>
 8000dba:	1869      	adds	r1, r5, r1
 8000dbc:	f100 3cff 	add.w	ip, r0, #4294967295
 8000dc0:	d217      	bcs.n	8000df2 <__udivmoddi4+0x2a6>
 8000dc2:	428b      	cmp	r3, r1
 8000dc4:	d915      	bls.n	8000df2 <__udivmoddi4+0x2a6>
 8000dc6:	3802      	subs	r0, #2
 8000dc8:	4429      	add	r1, r5
 8000dca:	1ac9      	subs	r1, r1, r3
 8000dcc:	ea40 4707 	orr.w	r7, r0, r7, lsl #16
 8000dd0:	e73b      	b.n	8000c4a <__udivmoddi4+0xfe>
 8000dd2:	4637      	mov	r7, r6
 8000dd4:	4630      	mov	r0, r6
 8000dd6:	e709      	b.n	8000bec <__udivmoddi4+0xa0>
 8000dd8:	4607      	mov	r7, r0
 8000dda:	e6e7      	b.n	8000bac <__udivmoddi4+0x60>
 8000ddc:	4618      	mov	r0, r3
 8000dde:	e6fb      	b.n	8000bd8 <__udivmoddi4+0x8c>
 8000de0:	4541      	cmp	r1, r8
 8000de2:	d2ab      	bcs.n	8000d3c <__udivmoddi4+0x1f0>
 8000de4:	ebb8 0a02 	subs.w	sl, r8, r2
 8000de8:	eb69 020e 	sbc.w	r2, r9, lr
 8000dec:	3801      	subs	r0, #1
 8000dee:	4613      	mov	r3, r2
 8000df0:	e7a4      	b.n	8000d3c <__udivmoddi4+0x1f0>
 8000df2:	4660      	mov	r0, ip
 8000df4:	e7e9      	b.n	8000dca <__udivmoddi4+0x27e>
 8000df6:	4618      	mov	r0, r3
 8000df8:	e795      	b.n	8000d26 <__udivmoddi4+0x1da>
 8000dfa:	4667      	mov	r7, ip
 8000dfc:	e7d1      	b.n	8000da2 <__udivmoddi4+0x256>
 8000dfe:	4681      	mov	r9, r0
 8000e00:	e77c      	b.n	8000cfc <__udivmoddi4+0x1b0>
 8000e02:	3802      	subs	r0, #2
 8000e04:	442c      	add	r4, r5
 8000e06:	e747      	b.n	8000c98 <__udivmoddi4+0x14c>
 8000e08:	f1ac 0c02 	sub.w	ip, ip, #2
 8000e0c:	442b      	add	r3, r5
 8000e0e:	e72f      	b.n	8000c70 <__udivmoddi4+0x124>
 8000e10:	4638      	mov	r0, r7
 8000e12:	e708      	b.n	8000c26 <__udivmoddi4+0xda>
 8000e14:	4637      	mov	r7, r6
 8000e16:	e6e9      	b.n	8000bec <__udivmoddi4+0xa0>

08000e18 <__aeabi_idiv0>:
 8000e18:	4770      	bx	lr
 8000e1a:	bf00      	nop

08000e1c <adns2610_init>:

/**
 * @brief Initialize the ADNS2610 sensor
 * @param dev Device address, it refers to SPI peripheral where the sensor is connected
 */
void adns2610_init(Device dev){
 8000e1c:	b580      	push	{r7, lr}
 8000e1e:	b082      	sub	sp, #8
 8000e20:	af00      	add	r7, sp, #0
 8000e22:	4603      	mov	r3, r0
 8000e24:	71fb      	strb	r3, [r7, #7]
	// Configure the SPI peripherals for each sensor
	adns2610_configureSPI(dev);
 8000e26:	79fb      	ldrb	r3, [r7, #7]
 8000e28:	4618      	mov	r0, r3
 8000e2a:	f000 f80d 	bl	8000e48 <adns2610_configureSPI>

	// Reset communication with ADNS sensors
	adns2610_resetCOM(dev);
 8000e2e:	79fb      	ldrb	r3, [r7, #7]
 8000e30:	4618      	mov	r0, r3
 8000e32:	f000 f833 	bl	8000e9c <adns2610_resetCOM>

	// Configure sensors
	adns2610_config(dev);
 8000e36:	79fb      	ldrb	r3, [r7, #7]
 8000e38:	4618      	mov	r0, r3
 8000e3a:	f000 f877 	bl	8000f2c <adns2610_config>
}
 8000e3e:	bf00      	nop
 8000e40:	3708      	adds	r7, #8
 8000e42:	46bd      	mov	sp, r7
 8000e44:	bd80      	pop	{r7, pc}
	...

08000e48 <adns2610_configureSPI>:
/**
 * @brief Configure the SPI module pointed by Device argument
 * @param dev Device address, it refers to SPI peripheral where the sensor is connected
 */
void adns2610_configureSPI(Device dev){
 8000e48:	b480      	push	{r7}
 8000e4a:	b083      	sub	sp, #12
 8000e4c:	af00      	add	r7, sp, #0
 8000e4e:	4603      	mov	r3, r0
 8000e50:	71fb      	strb	r3, [r7, #7]
	GET_SPI_PERIPH(dev, SPIx);
 8000e52:	79fb      	ldrb	r3, [r7, #7]
 8000e54:	2b00      	cmp	r3, #0
 8000e56:	d101      	bne.n	8000e5c <adns2610_configureSPI+0x14>
 8000e58:	4b0d      	ldr	r3, [pc, #52]	; (8000e90 <adns2610_configureSPI+0x48>)
 8000e5a:	e000      	b.n	8000e5e <adns2610_configureSPI+0x16>
 8000e5c:	4b0d      	ldr	r3, [pc, #52]	; (8000e94 <adns2610_configureSPI+0x4c>)
 8000e5e:	4a0e      	ldr	r2, [pc, #56]	; (8000e98 <adns2610_configureSPI+0x50>)
 8000e60:	6013      	str	r3, [r2, #0]
	// RX FIFO threshold adjusted to 8-bit word
	SET_BIT(SPIx->CR2, SPI_CR2_FRXTH);
 8000e62:	4b0d      	ldr	r3, [pc, #52]	; (8000e98 <adns2610_configureSPI+0x50>)
 8000e64:	681b      	ldr	r3, [r3, #0]
 8000e66:	685a      	ldr	r2, [r3, #4]
 8000e68:	4b0b      	ldr	r3, [pc, #44]	; (8000e98 <adns2610_configureSPI+0x50>)
 8000e6a:	681b      	ldr	r3, [r3, #0]
 8000e6c:	f442 5280 	orr.w	r2, r2, #4096	; 0x1000
 8000e70:	605a      	str	r2, [r3, #4]
	// Enable SPI
	SET_BIT(SPIx->CR1, SPI_CR1_SPE);
 8000e72:	4b09      	ldr	r3, [pc, #36]	; (8000e98 <adns2610_configureSPI+0x50>)
 8000e74:	681b      	ldr	r3, [r3, #0]
 8000e76:	681a      	ldr	r2, [r3, #0]
 8000e78:	4b07      	ldr	r3, [pc, #28]	; (8000e98 <adns2610_configureSPI+0x50>)
 8000e7a:	681b      	ldr	r3, [r3, #0]
 8000e7c:	f042 0240 	orr.w	r2, r2, #64	; 0x40
 8000e80:	601a      	str	r2, [r3, #0]
}
 8000e82:	bf00      	nop
 8000e84:	370c      	adds	r7, #12
 8000e86:	46bd      	mov	sp, r7
 8000e88:	f85d 7b04 	ldr.w	r7, [sp], #4
 8000e8c:	4770      	bx	lr
 8000e8e:	bf00      	nop
 8000e90:	40003800 	.word	0x40003800
 8000e94:	40003c00 	.word	0x40003c00
 8000e98:	200005e4 	.word	0x200005e4

08000e9c <adns2610_resetCOM>:
/**
 * @brief Reset the ADNS2610 serial port. It needs to be done at the beginning to establish the communication
 * 		  correctly
 * @param dev Device address, it refers to SPI peripheral where the sensor is connected
 */
void adns2610_resetCOM(Device dev){
 8000e9c:	b580      	push	{r7, lr}
 8000e9e:	b082      	sub	sp, #8
 8000ea0:	af00      	add	r7, sp, #0
 8000ea2:	4603      	mov	r3, r0
 8000ea4:	71fb      	strb	r3, [r7, #7]

	GET_SPI_PERIPH(dev, SPIx);
 8000ea6:	79fb      	ldrb	r3, [r7, #7]
 8000ea8:	2b00      	cmp	r3, #0
 8000eaa:	d101      	bne.n	8000eb0 <adns2610_resetCOM+0x14>
 8000eac:	4b1c      	ldr	r3, [pc, #112]	; (8000f20 <adns2610_resetCOM+0x84>)
 8000eae:	e000      	b.n	8000eb2 <adns2610_resetCOM+0x16>
 8000eb0:	4b1c      	ldr	r3, [pc, #112]	; (8000f24 <adns2610_resetCOM+0x88>)
 8000eb2:	4a1d      	ldr	r2, [pc, #116]	; (8000f28 <adns2610_resetCOM+0x8c>)
 8000eb4:	6013      	str	r3, [r2, #0]

	// Check TXE to send data
	while(!(READ_BIT(SPIx->SR, SPI_SR_TXE)));
 8000eb6:	bf00      	nop
 8000eb8:	4b1b      	ldr	r3, [pc, #108]	; (8000f28 <adns2610_resetCOM+0x8c>)
 8000eba:	681b      	ldr	r3, [r3, #0]
 8000ebc:	689b      	ldr	r3, [r3, #8]
 8000ebe:	f003 0302 	and.w	r3, r3, #2
 8000ec2:	2b00      	cmp	r3, #0
 8000ec4:	d0f8      	beq.n	8000eb8 <adns2610_resetCOM+0x1c>
	// Write DR to send data through SPI
	WRITE_REG(*(__IO uint8_t*) &SPIx->DR, 0x01);
 8000ec6:	4b18      	ldr	r3, [pc, #96]	; (8000f28 <adns2610_resetCOM+0x8c>)
 8000ec8:	681b      	ldr	r3, [r3, #0]
 8000eca:	330c      	adds	r3, #12
 8000ecc:	2201      	movs	r2, #1
 8000ece:	701a      	strb	r2, [r3, #0]
	// Wait until RXNE is set
	while(!(READ_BIT(SPIx->SR, SPI_SR_RXNE)));
 8000ed0:	bf00      	nop
 8000ed2:	4b15      	ldr	r3, [pc, #84]	; (8000f28 <adns2610_resetCOM+0x8c>)
 8000ed4:	681b      	ldr	r3, [r3, #0]
 8000ed6:	689b      	ldr	r3, [r3, #8]
 8000ed8:	f003 0301 	and.w	r3, r3, #1
 8000edc:	2b00      	cmp	r3, #0
 8000ede:	d0f8      	beq.n	8000ed2 <adns2610_resetCOM+0x36>
	READ_REG(*(__IO uint8_t*) &SPIx->DR);
 8000ee0:	4b11      	ldr	r3, [pc, #68]	; (8000f28 <adns2610_resetCOM+0x8c>)
 8000ee2:	681b      	ldr	r3, [r3, #0]
 8000ee4:	330c      	adds	r3, #12
 8000ee6:	781b      	ldrb	r3, [r3, #0]
	// Wait until end the current transaction
	while((READ_BIT(SPIx->SR, SPI_SR_FTLVL)) | (READ_BIT(SPIx->SR, SPI_SR_FRLVL)) | (READ_BIT(SPIx->SR, SPI_SR_BSY)));
 8000ee8:	bf00      	nop
 8000eea:	4b0f      	ldr	r3, [pc, #60]	; (8000f28 <adns2610_resetCOM+0x8c>)
 8000eec:	681b      	ldr	r3, [r3, #0]
 8000eee:	689b      	ldr	r3, [r3, #8]
 8000ef0:	f403 52c0 	and.w	r2, r3, #6144	; 0x1800
 8000ef4:	4b0c      	ldr	r3, [pc, #48]	; (8000f28 <adns2610_resetCOM+0x8c>)
 8000ef6:	681b      	ldr	r3, [r3, #0]
 8000ef8:	689b      	ldr	r3, [r3, #8]
 8000efa:	f403 63c0 	and.w	r3, r3, #1536	; 0x600
 8000efe:	431a      	orrs	r2, r3
 8000f00:	4b09      	ldr	r3, [pc, #36]	; (8000f28 <adns2610_resetCOM+0x8c>)
 8000f02:	681b      	ldr	r3, [r3, #0]
 8000f04:	689b      	ldr	r3, [r3, #8]
 8000f06:	f003 0380 	and.w	r3, r3, #128	; 0x80
 8000f0a:	4313      	orrs	r3, r2
 8000f0c:	2b00      	cmp	r3, #0
 8000f0e:	d1ec      	bne.n	8000eea <adns2610_resetCOM+0x4e>
	LL_mDelay(100);
 8000f10:	2064      	movs	r0, #100	; 0x64
 8000f12:	f004 fc41 	bl	8005798 <LL_mDelay>
}
 8000f16:	bf00      	nop
 8000f18:	3708      	adds	r7, #8
 8000f1a:	46bd      	mov	sp, r7
 8000f1c:	bd80      	pop	{r7, pc}
 8000f1e:	bf00      	nop
 8000f20:	40003800 	.word	0x40003800
 8000f24:	40003c00 	.word	0x40003c00
 8000f28:	200005e4 	.word	0x200005e4

08000f2c <adns2610_config>:
/**
 * @brief Configure the ADNS2610 internal register. Set always awake and check the inverse product ID register
 * @param dev Device address, it refers to SPI peripheral where the sensor is connected
 */
void adns2610_config(Device dev){
 8000f2c:	b580      	push	{r7, lr}
 8000f2e:	b084      	sub	sp, #16
 8000f30:	af00      	add	r7, sp, #0
 8000f32:	4603      	mov	r3, r0
 8000f34:	71fb      	strb	r3, [r7, #7]
	// ADNS-2610 configuration
	char * devName;

	GET_DEV_NAME(dev, devName);
 8000f36:	79fb      	ldrb	r3, [r7, #7]
 8000f38:	2b00      	cmp	r3, #0
 8000f3a:	d101      	bne.n	8000f40 <adns2610_config+0x14>
 8000f3c:	4b2b      	ldr	r3, [pc, #172]	; (8000fec <adns2610_config+0xc0>)
 8000f3e:	e000      	b.n	8000f42 <adns2610_config+0x16>
 8000f40:	4b2b      	ldr	r3, [pc, #172]	; (8000ff0 <adns2610_config+0xc4>)
 8000f42:	60fb      	str	r3, [r7, #12]

	printf("--------------------------------\r\n--> %s CONFIGURATION \r\n--------------------------------\r\n", devName);
 8000f44:	68f9      	ldr	r1, [r7, #12]
 8000f46:	482b      	ldr	r0, [pc, #172]	; (8000ff4 <adns2610_config+0xc8>)
 8000f48:	f004 fc8e 	bl	8005868 <iprintf>

	printf("Setting the sensor to always awake in %s...\r\n", _(ADNS2610_CONFIG));
 8000f4c:	492a      	ldr	r1, [pc, #168]	; (8000ff8 <adns2610_config+0xcc>)
 8000f4e:	482b      	ldr	r0, [pc, #172]	; (8000ffc <adns2610_config+0xd0>)
 8000f50:	f004 fc8a 	bl	8005868 <iprintf>
	adns2610_writeRegister(dev, ADNS2610_CONFIG_REG, ADNS2610_CONFIG_C0);
 8000f54:	79fb      	ldrb	r3, [r7, #7]
 8000f56:	2201      	movs	r2, #1
 8000f58:	2100      	movs	r1, #0
 8000f5a:	4618      	mov	r0, r3
 8000f5c:	f000 f8be 	bl	80010dc <adns2610_writeRegister>

	printf("Checking if %s has been written well... ", _(ADNS2610_CONFIG));
 8000f60:	4925      	ldr	r1, [pc, #148]	; (8000ff8 <adns2610_config+0xcc>)
 8000f62:	4827      	ldr	r0, [pc, #156]	; (8001000 <adns2610_config+0xd4>)
 8000f64:	f004 fc80 	bl	8005868 <iprintf>
	if(adns2610_readRegister(dev, ADNS2610_CONFIG_REG) == ADNS2610_CONFIG_C0) printf("OK.\r\n");
 8000f68:	79fb      	ldrb	r3, [r7, #7]
 8000f6a:	2100      	movs	r1, #0
 8000f6c:	4618      	mov	r0, r3
 8000f6e:	f000 f857 	bl	8001020 <adns2610_readRegister>
 8000f72:	4603      	mov	r3, r0
 8000f74:	2b01      	cmp	r3, #1
 8000f76:	d10f      	bne.n	8000f98 <adns2610_config+0x6c>
 8000f78:	4822      	ldr	r0, [pc, #136]	; (8001004 <adns2610_config+0xd8>)
 8000f7a:	f004 fce9 	bl	8005950 <puts>
	else{ printf("ERROR.\r\n"); while(1);}

	printf("Checking into %s if the sensor is awake... ", _(ADNS2610_STATUS));
 8000f7e:	4922      	ldr	r1, [pc, #136]	; (8001008 <adns2610_config+0xdc>)
 8000f80:	4822      	ldr	r0, [pc, #136]	; (800100c <adns2610_config+0xe0>)
 8000f82:	f004 fc71 	bl	8005868 <iprintf>
	if(adns2610_readRegister(dev, ADNS2610_STATUS_REG) == ADNS2610_STATUS_AWAKE) printf("OK.\r\n");
 8000f86:	79fb      	ldrb	r3, [r7, #7]
 8000f88:	2101      	movs	r1, #1
 8000f8a:	4618      	mov	r0, r3
 8000f8c:	f000 f848 	bl	8001020 <adns2610_readRegister>
 8000f90:	4603      	mov	r3, r0
 8000f92:	2b01      	cmp	r3, #1
 8000f94:	d116      	bne.n	8000fc4 <adns2610_config+0x98>
 8000f96:	e003      	b.n	8000fa0 <adns2610_config+0x74>
	else{ printf("ERROR.\r\n"); while(1);}
 8000f98:	481d      	ldr	r0, [pc, #116]	; (8001010 <adns2610_config+0xe4>)
 8000f9a:	f004 fcd9 	bl	8005950 <puts>
 8000f9e:	e7fe      	b.n	8000f9e <adns2610_config+0x72>
	if(adns2610_readRegister(dev, ADNS2610_STATUS_REG) == ADNS2610_STATUS_AWAKE) printf("OK.\r\n");
 8000fa0:	4818      	ldr	r0, [pc, #96]	; (8001004 <adns2610_config+0xd8>)
 8000fa2:	f004 fcd5 	bl	8005950 <puts>
	else{ printf("ERROR.\r\n"); while(1);}

	printf("Checking into %s if the sensor responds well... ", _(ADNS2610_INVERSE_ID));
 8000fa6:	491b      	ldr	r1, [pc, #108]	; (8001014 <adns2610_config+0xe8>)
 8000fa8:	481b      	ldr	r0, [pc, #108]	; (8001018 <adns2610_config+0xec>)
 8000faa:	f004 fc5d 	bl	8005868 <iprintf>
	if((adns2610_readRegister(dev, ADNS2610_INVERSE_ID_REG) & ADNS2610_INV_PROD)  == ADNS2610_INV_PROD) printf("OK.\r\n");
 8000fae:	79fb      	ldrb	r3, [r7, #7]
 8000fb0:	2111      	movs	r1, #17
 8000fb2:	4618      	mov	r0, r3
 8000fb4:	f000 f834 	bl	8001020 <adns2610_readRegister>
 8000fb8:	4603      	mov	r3, r0
 8000fba:	f003 030f 	and.w	r3, r3, #15
 8000fbe:	2b0f      	cmp	r3, #15
 8000fc0:	d108      	bne.n	8000fd4 <adns2610_config+0xa8>
 8000fc2:	e003      	b.n	8000fcc <adns2610_config+0xa0>
	else{ printf("ERROR.\r\n"); while(1);}
 8000fc4:	4812      	ldr	r0, [pc, #72]	; (8001010 <adns2610_config+0xe4>)
 8000fc6:	f004 fcc3 	bl	8005950 <puts>
 8000fca:	e7fe      	b.n	8000fca <adns2610_config+0x9e>
	if((adns2610_readRegister(dev, ADNS2610_INVERSE_ID_REG) & ADNS2610_INV_PROD)  == ADNS2610_INV_PROD) printf("OK.\r\n");
 8000fcc:	480d      	ldr	r0, [pc, #52]	; (8001004 <adns2610_config+0xd8>)
 8000fce:	f004 fcbf 	bl	8005950 <puts>
 8000fd2:	e003      	b.n	8000fdc <adns2610_config+0xb0>
	else{ printf("ERROR.\r\n"); while(1);}
 8000fd4:	480e      	ldr	r0, [pc, #56]	; (8001010 <adns2610_config+0xe4>)
 8000fd6:	f004 fcbb 	bl	8005950 <puts>
 8000fda:	e7fe      	b.n	8000fda <adns2610_config+0xae>

	printf("\r\n");
 8000fdc:	480f      	ldr	r0, [pc, #60]	; (800101c <adns2610_config+0xf0>)
 8000fde:	f004 fcb7 	bl	8005950 <puts>
}
 8000fe2:	bf00      	nop
 8000fe4:	3710      	adds	r7, #16
 8000fe6:	46bd      	mov	sp, r7
 8000fe8:	bd80      	pop	{r7, pc}
 8000fea:	bf00      	nop
 8000fec:	08006734 	.word	0x08006734
 8000ff0:	08006744 	.word	0x08006744
 8000ff4:	08006754 	.word	0x08006754
 8000ff8:	080067b0 	.word	0x080067b0
 8000ffc:	080067c0 	.word	0x080067c0
 8001000:	080067f0 	.word	0x080067f0
 8001004:	0800681c 	.word	0x0800681c
 8001008:	0800682c 	.word	0x0800682c
 800100c:	0800683c 	.word	0x0800683c
 8001010:	08006824 	.word	0x08006824
 8001014:	08006868 	.word	0x08006868
 8001018:	0800687c 	.word	0x0800687c
 800101c:	080068b0 	.word	0x080068b0

08001020 <adns2610_readRegister>:
 * @brief Read a ADNS2610 internal register by polling
 * @param dev Device address, it refers to SPI peripheral where the sensor is connected
 * @param reg Internal register ADDRESS, see adns2610.h
 * @return Register value
 */
uint8_t adns2610_readRegister(Device dev, uint8_t reg){
 8001020:	b580      	push	{r7, lr}
 8001022:	b084      	sub	sp, #16
 8001024:	af00      	add	r7, sp, #0
 8001026:	4603      	mov	r3, r0
 8001028:	460a      	mov	r2, r1
 800102a:	71fb      	strb	r3, [r7, #7]
 800102c:	4613      	mov	r3, r2
 800102e:	71bb      	strb	r3, [r7, #6]

	uint8_t value;

	GET_SPI_PERIPH(dev, SPIx);
 8001030:	79fb      	ldrb	r3, [r7, #7]
 8001032:	2b00      	cmp	r3, #0
 8001034:	d101      	bne.n	800103a <adns2610_readRegister+0x1a>
 8001036:	4b26      	ldr	r3, [pc, #152]	; (80010d0 <adns2610_readRegister+0xb0>)
 8001038:	e000      	b.n	800103c <adns2610_readRegister+0x1c>
 800103a:	4b26      	ldr	r3, [pc, #152]	; (80010d4 <adns2610_readRegister+0xb4>)
 800103c:	4a26      	ldr	r2, [pc, #152]	; (80010d8 <adns2610_readRegister+0xb8>)
 800103e:	6013      	str	r3, [r2, #0]

	#if FULL_DUPLEX_SPI
	// Check TXE to send data
	while(!(READ_BIT(SPIx->SR, SPI_SR_TXE)));
 8001040:	bf00      	nop
 8001042:	4b25      	ldr	r3, [pc, #148]	; (80010d8 <adns2610_readRegister+0xb8>)
 8001044:	681b      	ldr	r3, [r3, #0]
 8001046:	689b      	ldr	r3, [r3, #8]
 8001048:	f003 0302 	and.w	r3, r3, #2
 800104c:	2b00      	cmp	r3, #0
 800104e:	d0f8      	beq.n	8001042 <adns2610_readRegister+0x22>
	// Write DR to send data through SPI
	WRITE_REG(*(__IO uint8_t*) &SPIx->DR, reg);
 8001050:	4b21      	ldr	r3, [pc, #132]	; (80010d8 <adns2610_readRegister+0xb8>)
 8001052:	681b      	ldr	r3, [r3, #0]
 8001054:	330c      	adds	r3, #12
 8001056:	79ba      	ldrb	r2, [r7, #6]
 8001058:	701a      	strb	r2, [r3, #0]
	// Wait until RXNE is set
	while(!(READ_BIT(SPIx->SR, SPI_SR_RXNE)));
 800105a:	bf00      	nop
 800105c:	4b1e      	ldr	r3, [pc, #120]	; (80010d8 <adns2610_readRegister+0xb8>)
 800105e:	681b      	ldr	r3, [r3, #0]
 8001060:	689b      	ldr	r3, [r3, #8]
 8001062:	f003 0301 	and.w	r3, r3, #1
 8001066:	2b00      	cmp	r3, #0
 8001068:	d0f8      	beq.n	800105c <adns2610_readRegister+0x3c>
	READ_REG(*(__IO uint8_t*) &SPIx->DR);
 800106a:	4b1b      	ldr	r3, [pc, #108]	; (80010d8 <adns2610_readRegister+0xb8>)
 800106c:	681b      	ldr	r3, [r3, #0]
 800106e:	330c      	adds	r3, #12
 8001070:	781b      	ldrb	r3, [r3, #0]
	LL_mDelay(1);
 8001072:	2001      	movs	r0, #1
 8001074:	f004 fb90 	bl	8005798 <LL_mDelay>
	// Write DR to send data through SPI
	WRITE_REG(*(__IO uint8_t*) &SPIx->DR, 0x00);
 8001078:	4b17      	ldr	r3, [pc, #92]	; (80010d8 <adns2610_readRegister+0xb8>)
 800107a:	681b      	ldr	r3, [r3, #0]
 800107c:	330c      	adds	r3, #12
 800107e:	2200      	movs	r2, #0
 8001080:	701a      	strb	r2, [r3, #0]
	// Wait until RXNE is set
	while(!(READ_BIT(SPIx->SR, SPI_SR_RXNE)));
 8001082:	bf00      	nop
 8001084:	4b14      	ldr	r3, [pc, #80]	; (80010d8 <adns2610_readRegister+0xb8>)
 8001086:	681b      	ldr	r3, [r3, #0]
 8001088:	689b      	ldr	r3, [r3, #8]
 800108a:	f003 0301 	and.w	r3, r3, #1
 800108e:	2b00      	cmp	r3, #0
 8001090:	d0f8      	beq.n	8001084 <adns2610_readRegister+0x64>
	value = READ_REG(*(__IO uint8_t*) &SPIx->DR);
 8001092:	4b11      	ldr	r3, [pc, #68]	; (80010d8 <adns2610_readRegister+0xb8>)
 8001094:	681b      	ldr	r3, [r3, #0]
 8001096:	330c      	adds	r3, #12
 8001098:	781b      	ldrb	r3, [r3, #0]
 800109a:	73fb      	strb	r3, [r7, #15]
	// Wait until end the current transaction
	while((READ_BIT(SPIx->SR, SPI_SR_FTLVL)) | (READ_BIT(SPIx->SR, SPI_SR_FRLVL)) | (READ_BIT(SPIx->SR, SPI_SR_BSY)));
 800109c:	bf00      	nop
 800109e:	4b0e      	ldr	r3, [pc, #56]	; (80010d8 <adns2610_readRegister+0xb8>)
 80010a0:	681b      	ldr	r3, [r3, #0]
 80010a2:	689b      	ldr	r3, [r3, #8]
 80010a4:	f403 52c0 	and.w	r2, r3, #6144	; 0x1800
 80010a8:	4b0b      	ldr	r3, [pc, #44]	; (80010d8 <adns2610_readRegister+0xb8>)
 80010aa:	681b      	ldr	r3, [r3, #0]
 80010ac:	689b      	ldr	r3, [r3, #8]
 80010ae:	f403 63c0 	and.w	r3, r3, #1536	; 0x600
 80010b2:	431a      	orrs	r2, r3
 80010b4:	4b08      	ldr	r3, [pc, #32]	; (80010d8 <adns2610_readRegister+0xb8>)
 80010b6:	681b      	ldr	r3, [r3, #0]
 80010b8:	689b      	ldr	r3, [r3, #8]
 80010ba:	f003 0380 	and.w	r3, r3, #128	; 0x80
 80010be:	4313      	orrs	r3, r2
 80010c0:	2b00      	cmp	r3, #0
 80010c2:	d1ec      	bne.n	800109e <adns2610_readRegister+0x7e>
	return value;
 80010c4:	7bfb      	ldrb	r3, [r7, #15]
	#else	// HALF DUPLEX SPI MODE

	#endif
}
 80010c6:	4618      	mov	r0, r3
 80010c8:	3710      	adds	r7, #16
 80010ca:	46bd      	mov	sp, r7
 80010cc:	bd80      	pop	{r7, pc}
 80010ce:	bf00      	nop
 80010d0:	40003800 	.word	0x40003800
 80010d4:	40003c00 	.word	0x40003c00
 80010d8:	200005e4 	.word	0x200005e4

080010dc <adns2610_writeRegister>:
 * @brief Write a ADNS2610 internal register by polling
 * @param dev Device address, it refers to SPI peripheral where the sensor is connected
 * @param reg Internal register ADDRESS, see adns2610.h
 * @param value Value to write in the internal register
 */
void adns2610_writeRegister(Device dev, uint8_t reg, uint8_t value){
 80010dc:	b480      	push	{r7}
 80010de:	b083      	sub	sp, #12
 80010e0:	af00      	add	r7, sp, #0
 80010e2:	4603      	mov	r3, r0
 80010e4:	71fb      	strb	r3, [r7, #7]
 80010e6:	460b      	mov	r3, r1
 80010e8:	71bb      	strb	r3, [r7, #6]
 80010ea:	4613      	mov	r3, r2
 80010ec:	717b      	strb	r3, [r7, #5]

	GET_SPI_PERIPH(dev, SPIx);
 80010ee:	79fb      	ldrb	r3, [r7, #7]
 80010f0:	2b00      	cmp	r3, #0
 80010f2:	d101      	bne.n	80010f8 <adns2610_writeRegister+0x1c>
 80010f4:	4b26      	ldr	r3, [pc, #152]	; (8001190 <adns2610_writeRegister+0xb4>)
 80010f6:	e000      	b.n	80010fa <adns2610_writeRegister+0x1e>
 80010f8:	4b26      	ldr	r3, [pc, #152]	; (8001194 <adns2610_writeRegister+0xb8>)
 80010fa:	4a27      	ldr	r2, [pc, #156]	; (8001198 <adns2610_writeRegister+0xbc>)
 80010fc:	6013      	str	r3, [r2, #0]

	#if FULL_DUPLEX_SPI
	// RX FIFO threshold adjusted to 16-bit word
	CLEAR_BIT(SPIx->CR2, SPI_CR2_FRXTH);
 80010fe:	4b26      	ldr	r3, [pc, #152]	; (8001198 <adns2610_writeRegister+0xbc>)
 8001100:	681b      	ldr	r3, [r3, #0]
 8001102:	685a      	ldr	r2, [r3, #4]
 8001104:	4b24      	ldr	r3, [pc, #144]	; (8001198 <adns2610_writeRegister+0xbc>)
 8001106:	681b      	ldr	r3, [r3, #0]
 8001108:	f422 5280 	bic.w	r2, r2, #4096	; 0x1000
 800110c:	605a      	str	r2, [r3, #4]
	// Check TXE to send data
	while(!(READ_BIT(SPIx->SR, SPI_SR_TXE)));
 800110e:	bf00      	nop
 8001110:	4b21      	ldr	r3, [pc, #132]	; (8001198 <adns2610_writeRegister+0xbc>)
 8001112:	681b      	ldr	r3, [r3, #0]
 8001114:	689b      	ldr	r3, [r3, #8]
 8001116:	f003 0302 	and.w	r3, r3, #2
 800111a:	2b00      	cmp	r3, #0
 800111c:	d0f8      	beq.n	8001110 <adns2610_writeRegister+0x34>
	// Write DR to send data through SPI
	WRITE_REG(SPIx->DR, (value << 8) | (1U << 7 | reg));
 800111e:	797b      	ldrb	r3, [r7, #5]
 8001120:	021b      	lsls	r3, r3, #8
 8001122:	4619      	mov	r1, r3
 8001124:	79bb      	ldrb	r3, [r7, #6]
 8001126:	f063 037f 	orn	r3, r3, #127	; 0x7f
 800112a:	b2db      	uxtb	r3, r3
 800112c:	461a      	mov	r2, r3
 800112e:	4b1a      	ldr	r3, [pc, #104]	; (8001198 <adns2610_writeRegister+0xbc>)
 8001130:	681b      	ldr	r3, [r3, #0]
 8001132:	430a      	orrs	r2, r1
 8001134:	60da      	str	r2, [r3, #12]
	// Wait until RXNE is set
	while(!(READ_BIT(SPIx->SR, SPI_SR_RXNE)));
 8001136:	bf00      	nop
 8001138:	4b17      	ldr	r3, [pc, #92]	; (8001198 <adns2610_writeRegister+0xbc>)
 800113a:	681b      	ldr	r3, [r3, #0]
 800113c:	689b      	ldr	r3, [r3, #8]
 800113e:	f003 0301 	and.w	r3, r3, #1
 8001142:	2b00      	cmp	r3, #0
 8001144:	d0f8      	beq.n	8001138 <adns2610_writeRegister+0x5c>
	READ_REG(SPIx->DR);
 8001146:	4b14      	ldr	r3, [pc, #80]	; (8001198 <adns2610_writeRegister+0xbc>)
 8001148:	681b      	ldr	r3, [r3, #0]
 800114a:	68db      	ldr	r3, [r3, #12]
	// Wait until end the current transaction
	while((READ_BIT(SPIx->SR, SPI_SR_FTLVL)) | (READ_BIT(SPIx->SR, SPI_SR_FRLVL)) | (READ_BIT(SPIx->SR, SPI_SR_BSY)));
 800114c:	bf00      	nop
 800114e:	4b12      	ldr	r3, [pc, #72]	; (8001198 <adns2610_writeRegister+0xbc>)
 8001150:	681b      	ldr	r3, [r3, #0]
 8001152:	689b      	ldr	r3, [r3, #8]
 8001154:	f403 52c0 	and.w	r2, r3, #6144	; 0x1800
 8001158:	4b0f      	ldr	r3, [pc, #60]	; (8001198 <adns2610_writeRegister+0xbc>)
 800115a:	681b      	ldr	r3, [r3, #0]
 800115c:	689b      	ldr	r3, [r3, #8]
 800115e:	f403 63c0 	and.w	r3, r3, #1536	; 0x600
 8001162:	431a      	orrs	r2, r3
 8001164:	4b0c      	ldr	r3, [pc, #48]	; (8001198 <adns2610_writeRegister+0xbc>)
 8001166:	681b      	ldr	r3, [r3, #0]
 8001168:	689b      	ldr	r3, [r3, #8]
 800116a:	f003 0380 	and.w	r3, r3, #128	; 0x80
 800116e:	4313      	orrs	r3, r2
 8001170:	2b00      	cmp	r3, #0
 8001172:	d1ec      	bne.n	800114e <adns2610_writeRegister+0x72>
	// Set again RX FIFO threshold adjusted to 8-bit word
	SET_BIT(SPIx->CR2, SPI_CR2_FRXTH);
 8001174:	4b08      	ldr	r3, [pc, #32]	; (8001198 <adns2610_writeRegister+0xbc>)
 8001176:	681b      	ldr	r3, [r3, #0]
 8001178:	685a      	ldr	r2, [r3, #4]
 800117a:	4b07      	ldr	r3, [pc, #28]	; (8001198 <adns2610_writeRegister+0xbc>)
 800117c:	681b      	ldr	r3, [r3, #0]
 800117e:	f442 5280 	orr.w	r2, r2, #4096	; 0x1000
 8001182:	605a      	str	r2, [r3, #4]
	#else	// HALF DUPLEX SPI MODE

	#endif
}
 8001184:	bf00      	nop
 8001186:	370c      	adds	r7, #12
 8001188:	46bd      	mov	sp, r7
 800118a:	f85d 7b04 	ldr.w	r7, [sp], #4
 800118e:	4770      	bx	lr
 8001190:	40003800 	.word	0x40003800
 8001194:	40003c00 	.word	0x40003c00
 8001198:	200005e4 	.word	0x200005e4

0800119c <adns2610_receiveByte>:
/**
 * @brief Receive a byte from ADNS2610 as reply of adns2610_sendByte(Device dev, uint8_t value) function
 * @param dev Device address, it refers to SPI peripheral where the sensor is connected
 * @param value Pointer to a variable where the received value is stored
 */
void adns2610_receiveByte(Device dev, uint8_t* value){
 800119c:	b480      	push	{r7}
 800119e:	b083      	sub	sp, #12
 80011a0:	af00      	add	r7, sp, #0
 80011a2:	4603      	mov	r3, r0
 80011a4:	6039      	str	r1, [r7, #0]
 80011a6:	71fb      	strb	r3, [r7, #7]

	GET_SPI_PERIPH(dev, SPIx);
 80011a8:	79fb      	ldrb	r3, [r7, #7]
 80011aa:	2b00      	cmp	r3, #0
 80011ac:	d101      	bne.n	80011b2 <adns2610_receiveByte+0x16>
 80011ae:	4b19      	ldr	r3, [pc, #100]	; (8001214 <adns2610_receiveByte+0x78>)
 80011b0:	e000      	b.n	80011b4 <adns2610_receiveByte+0x18>
 80011b2:	4b19      	ldr	r3, [pc, #100]	; (8001218 <adns2610_receiveByte+0x7c>)
 80011b4:	4a19      	ldr	r2, [pc, #100]	; (800121c <adns2610_receiveByte+0x80>)
 80011b6:	6013      	str	r3, [r2, #0]

	#if FULL_DUPLEX_SPI
	// Write DR to send data through SPI
	WRITE_REG(*(__IO uint8_t*) &SPIx->DR, 0x00);
 80011b8:	4b18      	ldr	r3, [pc, #96]	; (800121c <adns2610_receiveByte+0x80>)
 80011ba:	681b      	ldr	r3, [r3, #0]
 80011bc:	330c      	adds	r3, #12
 80011be:	2200      	movs	r2, #0
 80011c0:	701a      	strb	r2, [r3, #0]
	// Wait until RXNE is set
	while(!(READ_BIT(SPIx->SR, SPI_SR_RXNE)));
 80011c2:	bf00      	nop
 80011c4:	4b15      	ldr	r3, [pc, #84]	; (800121c <adns2610_receiveByte+0x80>)
 80011c6:	681b      	ldr	r3, [r3, #0]
 80011c8:	689b      	ldr	r3, [r3, #8]
 80011ca:	f003 0301 	and.w	r3, r3, #1
 80011ce:	2b00      	cmp	r3, #0
 80011d0:	d0f8      	beq.n	80011c4 <adns2610_receiveByte+0x28>
	*value = READ_REG(*(__IO uint8_t*) &SPIx->DR);
 80011d2:	4b12      	ldr	r3, [pc, #72]	; (800121c <adns2610_receiveByte+0x80>)
 80011d4:	681b      	ldr	r3, [r3, #0]
 80011d6:	330c      	adds	r3, #12
 80011d8:	781b      	ldrb	r3, [r3, #0]
 80011da:	b2da      	uxtb	r2, r3
 80011dc:	683b      	ldr	r3, [r7, #0]
 80011de:	701a      	strb	r2, [r3, #0]
	// Wait until end the current transaction
	while((READ_BIT(SPIx->SR, SPI_SR_FTLVL)) | (READ_BIT(SPIx->SR, SPI_SR_FRLVL)) | (READ_BIT(SPIx->SR, SPI_SR_BSY)));
 80011e0:	bf00      	nop
 80011e2:	4b0e      	ldr	r3, [pc, #56]	; (800121c <adns2610_receiveByte+0x80>)
 80011e4:	681b      	ldr	r3, [r3, #0]
 80011e6:	689b      	ldr	r3, [r3, #8]
 80011e8:	f403 52c0 	and.w	r2, r3, #6144	; 0x1800
 80011ec:	4b0b      	ldr	r3, [pc, #44]	; (800121c <adns2610_receiveByte+0x80>)
 80011ee:	681b      	ldr	r3, [r3, #0]
 80011f0:	689b      	ldr	r3, [r3, #8]
 80011f2:	f403 63c0 	and.w	r3, r3, #1536	; 0x600
 80011f6:	431a      	orrs	r2, r3
 80011f8:	4b08      	ldr	r3, [pc, #32]	; (800121c <adns2610_receiveByte+0x80>)
 80011fa:	681b      	ldr	r3, [r3, #0]
 80011fc:	689b      	ldr	r3, [r3, #8]
 80011fe:	f003 0380 	and.w	r3, r3, #128	; 0x80
 8001202:	4313      	orrs	r3, r2
 8001204:	2b00      	cmp	r3, #0
 8001206:	d1ec      	bne.n	80011e2 <adns2610_receiveByte+0x46>
	#else	// HALF DUPLEX SPI MODE

	#endif
}
 8001208:	bf00      	nop
 800120a:	370c      	adds	r7, #12
 800120c:	46bd      	mov	sp, r7
 800120e:	f85d 7b04 	ldr.w	r7, [sp], #4
 8001212:	4770      	bx	lr
 8001214:	40003800 	.word	0x40003800
 8001218:	40003c00 	.word	0x40003c00
 800121c:	200005e4 	.word	0x200005e4

08001220 <adns2610_sendByte>:
/**
 * @brief Send a byte to ADNS2610. It's used to request to ADNS2610 a register value in IT mode
 * @param dev Device address, it refers to SPI peripheral where the sensor is connected
 * @param value Value of the sent value
 */
void adns2610_sendByte(Device dev, uint8_t value){
 8001220:	b480      	push	{r7}
 8001222:	b083      	sub	sp, #12
 8001224:	af00      	add	r7, sp, #0
 8001226:	4603      	mov	r3, r0
 8001228:	460a      	mov	r2, r1
 800122a:	71fb      	strb	r3, [r7, #7]
 800122c:	4613      	mov	r3, r2
 800122e:	71bb      	strb	r3, [r7, #6]

	GET_SPI_PERIPH(dev, SPIx);
 8001230:	79fb      	ldrb	r3, [r7, #7]
 8001232:	2b00      	cmp	r3, #0
 8001234:	d101      	bne.n	800123a <adns2610_sendByte+0x1a>
 8001236:	4b12      	ldr	r3, [pc, #72]	; (8001280 <adns2610_sendByte+0x60>)
 8001238:	e000      	b.n	800123c <adns2610_sendByte+0x1c>
 800123a:	4b12      	ldr	r3, [pc, #72]	; (8001284 <adns2610_sendByte+0x64>)
 800123c:	4a12      	ldr	r2, [pc, #72]	; (8001288 <adns2610_sendByte+0x68>)
 800123e:	6013      	str	r3, [r2, #0]

	#if FULL_DUPLEX_SPI
	// Check TXE to send data
	while(!(READ_BIT(SPIx->SR, SPI_SR_TXE)));
 8001240:	bf00      	nop
 8001242:	4b11      	ldr	r3, [pc, #68]	; (8001288 <adns2610_sendByte+0x68>)
 8001244:	681b      	ldr	r3, [r3, #0]
 8001246:	689b      	ldr	r3, [r3, #8]
 8001248:	f003 0302 	and.w	r3, r3, #2
 800124c:	2b00      	cmp	r3, #0
 800124e:	d0f8      	beq.n	8001242 <adns2610_sendByte+0x22>
	// Write DR to send data through SPI
	WRITE_REG(*(__IO uint8_t*) &SPIx->DR, value);
 8001250:	4b0d      	ldr	r3, [pc, #52]	; (8001288 <adns2610_sendByte+0x68>)
 8001252:	681b      	ldr	r3, [r3, #0]
 8001254:	330c      	adds	r3, #12
 8001256:	79ba      	ldrb	r2, [r7, #6]
 8001258:	701a      	strb	r2, [r3, #0]
	// Wait until RXNE is set
	while(!(READ_BIT(SPIx->SR, SPI_SR_RXNE)));
 800125a:	bf00      	nop
 800125c:	4b0a      	ldr	r3, [pc, #40]	; (8001288 <adns2610_sendByte+0x68>)
 800125e:	681b      	ldr	r3, [r3, #0]
 8001260:	689b      	ldr	r3, [r3, #8]
 8001262:	f003 0301 	and.w	r3, r3, #1
 8001266:	2b00      	cmp	r3, #0
 8001268:	d0f8      	beq.n	800125c <adns2610_sendByte+0x3c>
	READ_REG(*(__IO uint8_t*) &SPIx->DR);
 800126a:	4b07      	ldr	r3, [pc, #28]	; (8001288 <adns2610_sendByte+0x68>)
 800126c:	681b      	ldr	r3, [r3, #0]
 800126e:	330c      	adds	r3, #12
 8001270:	781b      	ldrb	r3, [r3, #0]
	#else	// HALF DUPLEX SPI MODE

	#endif
}
 8001272:	bf00      	nop
 8001274:	370c      	adds	r7, #12
 8001276:	46bd      	mov	sp, r7
 8001278:	f85d 7b04 	ldr.w	r7, [sp], #4
 800127c:	4770      	bx	lr
 800127e:	bf00      	nop
 8001280:	40003800 	.word	0x40003800
 8001284:	40003c00 	.word	0x40003c00
 8001288:	200005e4 	.word	0x200005e4

0800128c <adns2610_checkPixel>:
/**
 * @brief Check the status of a pixel
 * @param Pixel The PIXEL DATA register value received from ADNS2610
 * @return See PixelStatus
 */
PixelStatus adns2610_checkPixel(pixelTypeDef* Pixel){
 800128c:	b480      	push	{r7}
 800128e:	b083      	sub	sp, #12
 8001290:	af00      	add	r7, sp, #0
 8001292:	6078      	str	r0, [r7, #4]
	if(*Pixel & ADNS2610_PIXEL_VALID){
 8001294:	687b      	ldr	r3, [r7, #4]
 8001296:	781b      	ldrb	r3, [r3, #0]
 8001298:	f003 0340 	and.w	r3, r3, #64	; 0x40
 800129c:	2b00      	cmp	r3, #0
 800129e:	d008      	beq.n	80012b2 <adns2610_checkPixel+0x26>
		if(*Pixel & ADNS2610_PIXEL_SOF){
 80012a0:	687b      	ldr	r3, [r7, #4]
 80012a2:	781b      	ldrb	r3, [r3, #0]
 80012a4:	b25b      	sxtb	r3, r3
 80012a6:	2b00      	cmp	r3, #0
 80012a8:	da01      	bge.n	80012ae <adns2610_checkPixel+0x22>
			return VALID_SOF;
 80012aa:	2300      	movs	r3, #0
 80012ac:	e009      	b.n	80012c2 <adns2610_checkPixel+0x36>
		}
		return VALID;
 80012ae:	2302      	movs	r3, #2
 80012b0:	e007      	b.n	80012c2 <adns2610_checkPixel+0x36>
	}
	else if(*Pixel & ADNS2610_PIXEL_SOF){
 80012b2:	687b      	ldr	r3, [r7, #4]
 80012b4:	781b      	ldrb	r3, [r3, #0]
 80012b6:	b25b      	sxtb	r3, r3
 80012b8:	2b00      	cmp	r3, #0
 80012ba:	da01      	bge.n	80012c0 <adns2610_checkPixel+0x34>
		return NON_VALID_SOF;
 80012bc:	2301      	movs	r3, #1
 80012be:	e000      	b.n	80012c2 <adns2610_checkPixel+0x36>
	}
	else{
		return NON_VALID;
 80012c0:	2303      	movs	r3, #3
	}
}
 80012c2:	4618      	mov	r0, r3
 80012c4:	370c      	adds	r7, #12
 80012c6:	46bd      	mov	sp, r7
 80012c8:	f85d 7b04 	ldr.w	r7, [sp], #4
 80012cc:	4770      	bx	lr
	...

080012d0 <__NVIC_EnableIRQ>:
  \details Enables a device specific interrupt in the NVIC interrupt controller.
  \param [in]      IRQn  Device specific interrupt number.
  \note    IRQn must not be negative.
 */
__STATIC_INLINE void __NVIC_EnableIRQ(IRQn_Type IRQn)
{
 80012d0:	b480      	push	{r7}
 80012d2:	b083      	sub	sp, #12
 80012d4:	af00      	add	r7, sp, #0
 80012d6:	4603      	mov	r3, r0
 80012d8:	71fb      	strb	r3, [r7, #7]
  if ((int32_t)(IRQn) >= 0)
 80012da:	f997 3007 	ldrsb.w	r3, [r7, #7]
 80012de:	2b00      	cmp	r3, #0
 80012e0:	db0b      	blt.n	80012fa <__NVIC_EnableIRQ+0x2a>
  {
    __COMPILER_BARRIER();
    NVIC->ISER[(((uint32_t)IRQn) >> 5UL)] = (uint32_t)(1UL << (((uint32_t)IRQn) & 0x1FUL));
 80012e2:	79fb      	ldrb	r3, [r7, #7]
 80012e4:	f003 021f 	and.w	r2, r3, #31
 80012e8:	4907      	ldr	r1, [pc, #28]	; (8001308 <__NVIC_EnableIRQ+0x38>)
 80012ea:	f997 3007 	ldrsb.w	r3, [r7, #7]
 80012ee:	095b      	lsrs	r3, r3, #5
 80012f0:	2001      	movs	r0, #1
 80012f2:	fa00 f202 	lsl.w	r2, r0, r2
 80012f6:	f841 2023 	str.w	r2, [r1, r3, lsl #2]
    __COMPILER_BARRIER();
  }
}
 80012fa:	bf00      	nop
 80012fc:	370c      	adds	r7, #12
 80012fe:	46bd      	mov	sp, r7
 8001300:	f85d 7b04 	ldr.w	r7, [sp], #4
 8001304:	4770      	bx	lr
 8001306:	bf00      	nop
 8001308:	e000e100 	.word	0xe000e100

0800130c <__NVIC_SetPriority>:
  \param [in]      IRQn  Interrupt number.
  \param [in]  priority  Priority to set.
  \note    The priority cannot be set for every processor exception.
 */
__STATIC_INLINE void __NVIC_SetPriority(IRQn_Type IRQn, uint32_t priority)
{
 800130c:	b480      	push	{r7}
 800130e:	b083      	sub	sp, #12
 8001310:	af00      	add	r7, sp, #0
 8001312:	4603      	mov	r3, r0
 8001314:	6039      	str	r1, [r7, #0]
 8001316:	71fb      	strb	r3, [r7, #7]
  if ((int32_t)(IRQn) >= 0)
 8001318:	f997 3007 	ldrsb.w	r3, [r7, #7]
 800131c:	2b00      	cmp	r3, #0
 800131e:	db0a      	blt.n	8001336 <__NVIC_SetPriority+0x2a>
  {
    NVIC->IP[((uint32_t)IRQn)]               = (uint8_t)((priority << (8U - __NVIC_PRIO_BITS)) & (uint32_t)0xFFUL);
 8001320:	683b      	ldr	r3, [r7, #0]
 8001322:	b2da      	uxtb	r2, r3
 8001324:	490c      	ldr	r1, [pc, #48]	; (8001358 <__NVIC_SetPriority+0x4c>)
 8001326:	f997 3007 	ldrsb.w	r3, [r7, #7]
 800132a:	0112      	lsls	r2, r2, #4
 800132c:	b2d2      	uxtb	r2, r2
 800132e:	440b      	add	r3, r1
 8001330:	f883 2300 	strb.w	r2, [r3, #768]	; 0x300
  }
  else
  {
    SCB->SHP[(((uint32_t)IRQn) & 0xFUL)-4UL] = (uint8_t)((priority << (8U - __NVIC_PRIO_BITS)) & (uint32_t)0xFFUL);
  }
}
 8001334:	e00a      	b.n	800134c <__NVIC_SetPriority+0x40>
    SCB->SHP[(((uint32_t)IRQn) & 0xFUL)-4UL] = (uint8_t)((priority << (8U - __NVIC_PRIO_BITS)) & (uint32_t)0xFFUL);
 8001336:	683b      	ldr	r3, [r7, #0]
 8001338:	b2da      	uxtb	r2, r3
 800133a:	4908      	ldr	r1, [pc, #32]	; (800135c <__NVIC_SetPriority+0x50>)
 800133c:	79fb      	ldrb	r3, [r7, #7]
 800133e:	f003 030f 	and.w	r3, r3, #15
 8001342:	3b04      	subs	r3, #4
 8001344:	0112      	lsls	r2, r2, #4
 8001346:	b2d2      	uxtb	r2, r2
 8001348:	440b      	add	r3, r1
 800134a:	761a      	strb	r2, [r3, #24]
}
 800134c:	bf00      	nop
 800134e:	370c      	adds	r7, #12
 8001350:	46bd      	mov	sp, r7
 8001352:	f85d 7b04 	ldr.w	r7, [sp], #4
 8001356:	4770      	bx	lr
 8001358:	e000e100 	.word	0xe000e100
 800135c:	e000ed00 	.word	0xe000ed00

08001360 <transferDMA_USART2_TX>:
void MX_USART2_UART_Init(void);

/* USER CODE BEGIN Prototypes */
void configureDMA_USART_TX(USART_TypeDef* USARTx, WordLenghtDMA_t wordLength, PriorityDMA_t priority);

__STATIC_INLINE void transferDMA_USART2_TX(uint32_t fromAddress, uint16_t dataLength){
 8001360:	b480      	push	{r7}
 8001362:	b085      	sub	sp, #20
 8001364:	af00      	add	r7, sp, #0
 8001366:	6078      	str	r0, [r7, #4]
 8001368:	460b      	mov	r3, r1
 800136a:	807b      	strh	r3, [r7, #2]

	__IO uint32_t temp = 0;
 800136c:	2300      	movs	r3, #0
 800136e:	60fb      	str	r3, [r7, #12]

	DMA1_Channel7->CMAR = (__IO uint32_t) fromAddress;
 8001370:	4a0a      	ldr	r2, [pc, #40]	; (800139c <transferDMA_USART2_TX+0x3c>)
 8001372:	687b      	ldr	r3, [r7, #4]
 8001374:	60d3      	str	r3, [r2, #12]
	DMA1_Channel7->CNDTR = dataLength;
 8001376:	4a09      	ldr	r2, [pc, #36]	; (800139c <transferDMA_USART2_TX+0x3c>)
 8001378:	887b      	ldrh	r3, [r7, #2]
 800137a:	6053      	str	r3, [r2, #4]
	temp = DMA1_Channel7->CCR;
 800137c:	4b07      	ldr	r3, [pc, #28]	; (800139c <transferDMA_USART2_TX+0x3c>)
 800137e:	681b      	ldr	r3, [r3, #0]
 8001380:	60fb      	str	r3, [r7, #12]
	SET_BIT(temp, DMA_CCR_EN);
 8001382:	68fb      	ldr	r3, [r7, #12]
 8001384:	f043 0301 	orr.w	r3, r3, #1
 8001388:	60fb      	str	r3, [r7, #12]
	DMA1_Channel7->CCR = temp;
 800138a:	4a04      	ldr	r2, [pc, #16]	; (800139c <transferDMA_USART2_TX+0x3c>)
 800138c:	68fb      	ldr	r3, [r7, #12]
 800138e:	6013      	str	r3, [r2, #0]
}
 8001390:	bf00      	nop
 8001392:	3714      	adds	r7, #20
 8001394:	46bd      	mov	sp, r7
 8001396:	f85d 7b04 	ldr.w	r7, [sp], #4
 800139a:	4770      	bx	lr
 800139c:	40020080 	.word	0x40020080

080013a0 <eyes_init>:
frameStruct frames[2] = {{.header = FRAME_HEADER}, {.header = FRAME_HEADER}};

/**
 * @brief It initializes and it sets up the system.
 */
void eyes_init(){
 80013a0:	b580      	push	{r7, lr}
 80013a2:	af00      	add	r7, sp, #0
	// Configure the timer to read the frames continuously
	eyes_configureFSM_TIM();
 80013a4:	f000 fac2 	bl	800192c <eyes_configureFSM_TIM>
	eyes_configureControl_TIM();
 80013a8:	f000 fb36 	bl	8001a18 <eyes_configureControl_TIM>

	// Initialize ADNS2610 sensor
	adns2610_init(ADNS2610_RIGHT);
 80013ac:	2000      	movs	r0, #0
 80013ae:	f7ff fd35 	bl	8000e1c <adns2610_init>
#if SECOND_SENSOR_IMPLEMENTED
	adns2610_init(ADNS2610_LEFT);
 80013b2:	2001      	movs	r0, #1
 80013b4:	f7ff fd32 	bl	8000e1c <adns2610_init>
#endif

	// Configure DMA to transfer the frameStruct through DMA
	configureDMA_USART_TX(USART2, BYTE, MEDIUM);
 80013b8:	2201      	movs	r2, #1
 80013ba:	2100      	movs	r1, #0
 80013bc:	4806      	ldr	r0, [pc, #24]	; (80013d8 <eyes_init+0x38>)
 80013be:	f002 fbd1 	bl	8003b64 <configureDMA_USART_TX>

	// Giving initial values to variables
	currentFrameIdx = 0;
 80013c2:	4b06      	ldr	r3, [pc, #24]	; (80013dc <eyes_init+0x3c>)
 80013c4:	2200      	movs	r2, #0
 80013c6:	701a      	strb	r2, [r3, #0]
	lastFrameIdx = 1;
 80013c8:	4b05      	ldr	r3, [pc, #20]	; (80013e0 <eyes_init+0x40>)
 80013ca:	2201      	movs	r2, #1
 80013cc:	701a      	strb	r2, [r3, #0]

	// Initialization done
	initialized = true;
 80013ce:	4b05      	ldr	r3, [pc, #20]	; (80013e4 <eyes_init+0x44>)
 80013d0:	2201      	movs	r2, #1
 80013d2:	701a      	strb	r2, [r3, #0]
}
 80013d4:	bf00      	nop
 80013d6:	bd80      	pop	{r7, pc}
 80013d8:	40004400 	.word	0x40004400
 80013dc:	2000068c 	.word	0x2000068c
 80013e0:	2000068d 	.word	0x2000068d
 80013e4:	200005e9 	.word	0x200005e9

080013e8 <eyes_start>:

/**
 * @brief It starts the system operation.
 */
void eyes_start(){
 80013e8:	b580      	push	{r7, lr}
 80013ea:	af00      	add	r7, sp, #0

	if(!initialized) eyes_init();
 80013ec:	4b09      	ldr	r3, [pc, #36]	; (8001414 <eyes_start+0x2c>)
 80013ee:	781b      	ldrb	r3, [r3, #0]
 80013f0:	f083 0301 	eor.w	r3, r3, #1
 80013f4:	b2db      	uxtb	r3, r3
 80013f6:	2b00      	cmp	r3, #0
 80013f8:	d001      	beq.n	80013fe <eyes_start+0x16>
 80013fa:	f7ff ffd1 	bl	80013a0 <eyes_init>

	SET_BIT(TIM1->CR1, TIM_CR1_CEN);
 80013fe:	4b06      	ldr	r3, [pc, #24]	; (8001418 <eyes_start+0x30>)
 8001400:	681b      	ldr	r3, [r3, #0]
 8001402:	4a05      	ldr	r2, [pc, #20]	; (8001418 <eyes_start+0x30>)
 8001404:	f043 0301 	orr.w	r3, r3, #1
 8001408:	6013      	str	r3, [r2, #0]
	FSMstate = TRIGGER_FRAME;
 800140a:	4b04      	ldr	r3, [pc, #16]	; (800141c <eyes_start+0x34>)
 800140c:	2201      	movs	r2, #1
 800140e:	701a      	strb	r2, [r3, #0]
}
 8001410:	bf00      	nop
 8001412:	bd80      	pop	{r7, pc}
 8001414:	200005e9 	.word	0x200005e9
 8001418:	40012c00 	.word	0x40012c00
 800141c:	200005e8 	.word	0x200005e8

08001420 <eyes_FSM>:
 *						100us.
 * ------------------------------------------------------------------------------ */
/**
 *  @brief Compute the FSM (Finite State Machine) for image acquisition, optical flow computation and control loop.
 */
void eyes_FSM(void){
 8001420:	b580      	push	{r7, lr}
 8001422:	b082      	sub	sp, #8
 8001424:	af00      	add	r7, sp, #0

	static uint8_t collisionFlag = 0;
	static uint16_t errorCounter = 0;
	static uint8_t seqTemp;

	switch(FSMstate){
 8001426:	4ba9      	ldr	r3, [pc, #676]	; (80016cc <eyes_FSM+0x2ac>)
 8001428:	781b      	ldrb	r3, [r3, #0]
 800142a:	2b04      	cmp	r3, #4
 800142c:	f200 825e 	bhi.w	80018ec <eyes_FSM+0x4cc>
 8001430:	a201      	add	r2, pc, #4	; (adr r2, 8001438 <eyes_FSM+0x18>)
 8001432:	f852 f023 	ldr.w	pc, [r2, r3, lsl #2]
 8001436:	bf00      	nop
 8001438:	0800144d 	.word	0x0800144d
 800143c:	0800149b 	.word	0x0800149b
 8001440:	08001705 	.word	0x08001705
 8001444:	0800154d 	.word	0x0800154d
 8001448:	080017c5 	.word	0x080017c5
	/* SENSOR_RESET state --------------------------------------------------------- */
	case SENSOR_RESET:
//		if(collisionFlag) goto collisionError; else collisionFlag = 1;
		pixelIdx[ADNS2610_RIGHT] = 0;
 800144c:	4ba0      	ldr	r3, [pc, #640]	; (80016d0 <eyes_FSM+0x2b0>)
 800144e:	2200      	movs	r2, #0
 8001450:	801a      	strh	r2, [r3, #0]
#if SECOND_SENSOR_IMPLEMENTED
		pixelIdx[ADNS2610_LEFT] = 0;
 8001452:	4b9f      	ldr	r3, [pc, #636]	; (80016d0 <eyes_FSM+0x2b0>)
 8001454:	2200      	movs	r2, #0
 8001456:	805a      	strh	r2, [r3, #2]
#endif
		/* Stop the interrupt timer and reset all the relevant values */
		eyes_stopWaitIT();
 8001458:	f000 face 	bl	80019f8 <eyes_stopWaitIT>
		eyes_stopWaitControlTIM_IT();
 800145c:	f000 fb42 	bl	8001ae4 <eyes_stopWaitControlTIM_IT>

		pixelIdx[0] = pixelIdx[1] = 0;
 8001460:	4b9b      	ldr	r3, [pc, #620]	; (80016d0 <eyes_FSM+0x2b0>)
 8001462:	2200      	movs	r2, #0
 8001464:	805a      	strh	r2, [r3, #2]
 8001466:	4b9a      	ldr	r3, [pc, #616]	; (80016d0 <eyes_FSM+0x2b0>)
 8001468:	885a      	ldrh	r2, [r3, #2]
 800146a:	4b99      	ldr	r3, [pc, #612]	; (80016d0 <eyes_FSM+0x2b0>)
 800146c:	801a      	strh	r2, [r3, #0]
		pixelStatus[0] = pixelIdx[1] = 0;
 800146e:	4b98      	ldr	r3, [pc, #608]	; (80016d0 <eyes_FSM+0x2b0>)
 8001470:	2200      	movs	r2, #0
 8001472:	805a      	strh	r2, [r3, #2]
 8001474:	4b97      	ldr	r3, [pc, #604]	; (80016d4 <eyes_FSM+0x2b4>)
 8001476:	2200      	movs	r2, #0
 8001478:	701a      	strb	r2, [r3, #0]
		firstPixelRead = true;
 800147a:	4b97      	ldr	r3, [pc, #604]	; (80016d8 <eyes_FSM+0x2b8>)
 800147c:	2201      	movs	r2, #1
 800147e:	701a      	strb	r2, [r3, #0]
		firstFrameRead = true;
 8001480:	4b96      	ldr	r3, [pc, #600]	; (80016dc <eyes_FSM+0x2bc>)
 8001482:	2201      	movs	r2, #1
 8001484:	701a      	strb	r2, [r3, #0]
		seqTemp = 0;
 8001486:	4b96      	ldr	r3, [pc, #600]	; (80016e0 <eyes_FSM+0x2c0>)
 8001488:	2200      	movs	r2, #0
 800148a:	701a      	strb	r2, [r3, #0]
		initialized = false;
 800148c:	4b95      	ldr	r3, [pc, #596]	; (80016e4 <eyes_FSM+0x2c4>)
 800148e:	2200      	movs	r2, #0
 8001490:	701a      	strb	r2, [r3, #0]
		collisionFlag = 0;
 8001492:	4b95      	ldr	r3, [pc, #596]	; (80016e8 <eyes_FSM+0x2c8>)
 8001494:	2200      	movs	r2, #0
 8001496:	701a      	strb	r2, [r3, #0]
		return;
 8001498:	e22e      	b.n	80018f8 <eyes_FSM+0x4d8>
	/* TRIGGER_FRAME state --------------------------------------------------------- */
	case TRIGGER_FRAME:
		eyes_stopWaitIT();
 800149a:	f000 faad 	bl	80019f8 <eyes_stopWaitIT>
		eyes_stopWaitControlTIM_IT();
 800149e:	f000 fb21 	bl	8001ae4 <eyes_stopWaitControlTIM_IT>
		if(collisionFlag) goto collisionError; else collisionFlag = 1;
 80014a2:	4b91      	ldr	r3, [pc, #580]	; (80016e8 <eyes_FSM+0x2c8>)
 80014a4:	781b      	ldrb	r3, [r3, #0]
 80014a6:	2b00      	cmp	r3, #0
 80014a8:	f040 821b 	bne.w	80018e2 <eyes_FSM+0x4c2>
 80014ac:	4b8e      	ldr	r3, [pc, #568]	; (80016e8 <eyes_FSM+0x2c8>)
 80014ae:	2201      	movs	r2, #1
 80014b0:	701a      	strb	r2, [r3, #0]
		/* Write pixel data register to reset the HW */
		adns2610_writeRegister(ADNS2610_RIGHT, ADNS2610_PIXEL_DATA_REG, 0x01);
 80014b2:	2201      	movs	r2, #1
 80014b4:	2108      	movs	r1, #8
 80014b6:	2000      	movs	r0, #0
 80014b8:	f7ff fe10 	bl	80010dc <adns2610_writeRegister>
#if SECOND_SENSOR_IMPLEMENTED
		adns2610_writeRegister(ADNS2610_LEFT, ADNS2610_PIXEL_DATA_REG, 0x01);
 80014bc:	2201      	movs	r2, #1
 80014be:	2108      	movs	r1, #8
 80014c0:	2001      	movs	r0, #1
 80014c2:	f7ff fe0b 	bl	80010dc <adns2610_writeRegister>
#endif
		/* While it waits the needed delay it's performed some tasks:
		 * 	- Increasing the SEQ number
		 * 	- Transfer all data by means of DMA
		 * 	*/
		eyes_waitIT(ADNS2610_TIM_BTW_WR);
 80014c6:	f44f 602f 	mov.w	r0, #2800	; 0xaf0
 80014ca:	f000 fa6d 	bl	80019a8 <eyes_waitIT>
		firstPixelRead = true;
 80014ce:	4b82      	ldr	r3, [pc, #520]	; (80016d8 <eyes_FSM+0x2b8>)
 80014d0:	2201      	movs	r2, #1
 80014d2:	701a      	strb	r2, [r3, #0]
		FSMstate = REQ_READING_FRAME;
 80014d4:	4b7d      	ldr	r3, [pc, #500]	; (80016cc <eyes_FSM+0x2ac>)
 80014d6:	2203      	movs	r2, #3
 80014d8:	701a      	strb	r2, [r3, #0]
		pixelIdx[ADNS2610_RIGHT] = 0;
 80014da:	4b7d      	ldr	r3, [pc, #500]	; (80016d0 <eyes_FSM+0x2b0>)
 80014dc:	2200      	movs	r2, #0
 80014de:	801a      	strh	r2, [r3, #0]
#if SECOND_SENSOR_IMPLEMENTED
		pixelIdx[ADNS2610_LEFT] = 0;
 80014e0:	4b7b      	ldr	r3, [pc, #492]	; (80016d0 <eyes_FSM+0x2b0>)
 80014e2:	2200      	movs	r2, #0
 80014e4:	805a      	strh	r2, [r3, #2]
#endif
		if(!firstFrameRead){
 80014e6:	4b7d      	ldr	r3, [pc, #500]	; (80016dc <eyes_FSM+0x2bc>)
 80014e8:	781b      	ldrb	r3, [r3, #0]
 80014ea:	f083 0301 	eor.w	r3, r3, #1
 80014ee:	b2db      	uxtb	r3, r3
 80014f0:	2b00      	cmp	r3, #0
 80014f2:	d024      	beq.n	800153e <eyes_FSM+0x11e>
			frames[lastFrameIdx].seq = (seqTemp++) & 0x7F;
 80014f4:	4b7a      	ldr	r3, [pc, #488]	; (80016e0 <eyes_FSM+0x2c0>)
 80014f6:	781b      	ldrb	r3, [r3, #0]
 80014f8:	1c5a      	adds	r2, r3, #1
 80014fa:	b2d1      	uxtb	r1, r2
 80014fc:	4a78      	ldr	r2, [pc, #480]	; (80016e0 <eyes_FSM+0x2c0>)
 80014fe:	7011      	strb	r1, [r2, #0]
 8001500:	4a7a      	ldr	r2, [pc, #488]	; (80016ec <eyes_FSM+0x2cc>)
 8001502:	7812      	ldrb	r2, [r2, #0]
 8001504:	4610      	mov	r0, r2
 8001506:	f003 037f 	and.w	r3, r3, #127	; 0x7f
 800150a:	b2d9      	uxtb	r1, r3
 800150c:	4a78      	ldr	r2, [pc, #480]	; (80016f0 <eyes_FSM+0x2d0>)
 800150e:	f240 23a9 	movw	r3, #681	; 0x2a9
 8001512:	fb03 f300 	mul.w	r3, r3, r0
 8001516:	4413      	add	r3, r2
 8001518:	3304      	adds	r3, #4
 800151a:	460a      	mov	r2, r1
 800151c:	701a      	strb	r2, [r3, #0]
			transferDMA_USART2_TX((uint32_t) &(frames[lastFrameIdx].header), FRAME_STUCT_LENGTH);
 800151e:	4b73      	ldr	r3, [pc, #460]	; (80016ec <eyes_FSM+0x2cc>)
 8001520:	781b      	ldrb	r3, [r3, #0]
 8001522:	461a      	mov	r2, r3
 8001524:	f240 23a9 	movw	r3, #681	; 0x2a9
 8001528:	fb03 f302 	mul.w	r3, r3, r2
 800152c:	4a70      	ldr	r2, [pc, #448]	; (80016f0 <eyes_FSM+0x2d0>)
 800152e:	4413      	add	r3, r2
 8001530:	f240 21a9 	movw	r1, #681	; 0x2a9
 8001534:	4618      	mov	r0, r3
 8001536:	f7ff ff13 	bl	8001360 <transferDMA_USART2_TX>
			OF_ResetCoefficients();
 800153a:	f001 fa31 	bl	80029a0 <OF_ResetCoefficients>
		}
		collisionFlag = 0;
 800153e:	4b6a      	ldr	r3, [pc, #424]	; (80016e8 <eyes_FSM+0x2c8>)
 8001540:	2200      	movs	r2, #0
 8001542:	701a      	strb	r2, [r3, #0]
		errorCounter = 0;
 8001544:	4b6b      	ldr	r3, [pc, #428]	; (80016f4 <eyes_FSM+0x2d4>)
 8001546:	2200      	movs	r2, #0
 8001548:	801a      	strh	r2, [r3, #0]
		return;
 800154a:	e1d5      	b.n	80018f8 <eyes_FSM+0x4d8>
	/* REQ_READING_FRAME state --------------------------------------------------------- */
	case REQ_READING_FRAME:
		eyes_stopWaitIT();
 800154c:	f000 fa54 	bl	80019f8 <eyes_stopWaitIT>
		if(collisionFlag) goto collisionError; else collisionFlag = 1;
 8001550:	4b65      	ldr	r3, [pc, #404]	; (80016e8 <eyes_FSM+0x2c8>)
 8001552:	781b      	ldrb	r3, [r3, #0]
 8001554:	2b00      	cmp	r3, #0
 8001556:	f040 81c6 	bne.w	80018e6 <eyes_FSM+0x4c6>
 800155a:	4b63      	ldr	r3, [pc, #396]	; (80016e8 <eyes_FSM+0x2c8>)
 800155c:	2201      	movs	r2, #1
 800155e:	701a      	strb	r2, [r3, #0]
		/* Send a pixel data read request if there are pixels to read*/
		if(pixelIdx[ADNS2610_RIGHT] <= PIXEL_QTY-1)	adns2610_sendByte(ADNS2610_RIGHT, ADNS2610_PIXEL_DATA_REG);
 8001560:	4b5b      	ldr	r3, [pc, #364]	; (80016d0 <eyes_FSM+0x2b0>)
 8001562:	881b      	ldrh	r3, [r3, #0]
 8001564:	f5b3 7fa2 	cmp.w	r3, #324	; 0x144
 8001568:	d203      	bcs.n	8001572 <eyes_FSM+0x152>
 800156a:	2108      	movs	r1, #8
 800156c:	2000      	movs	r0, #0
 800156e:	f7ff fe57 	bl	8001220 <adns2610_sendByte>
#if SECOND_SENSOR_IMPLEMENTED
		if(pixelIdx[ADNS2610_LEFT] <= PIXEL_QTY-1)	adns2610_sendByte(ADNS2610_LEFT, ADNS2610_PIXEL_DATA_REG);
 8001572:	4b57      	ldr	r3, [pc, #348]	; (80016d0 <eyes_FSM+0x2b0>)
 8001574:	885b      	ldrh	r3, [r3, #2]
 8001576:	f5b3 7fa2 	cmp.w	r3, #324	; 0x144
 800157a:	d203      	bcs.n	8001584 <eyes_FSM+0x164>
 800157c:	2108      	movs	r1, #8
 800157e:	2001      	movs	r0, #1
 8001580:	f7ff fe4e 	bl	8001220 <adns2610_sendByte>
#endif
		/* While it waits the needed delay it's performed some tasks:
		 * 	- Check the last received pixel status and take decision related to it
		 * 	- Compute OF coefficients when it was possible
		 * 	*/
		eyes_waitIT(ADNS2610_TIM_TO_RD);
 8001584:	f44f 6016 	mov.w	r0, #2400	; 0x960
 8001588:	f000 fa0e 	bl	80019a8 <eyes_waitIT>
		if(!firstPixelRead){
 800158c:	4b52      	ldr	r3, [pc, #328]	; (80016d8 <eyes_FSM+0x2b8>)
 800158e:	781b      	ldrb	r3, [r3, #0]
 8001590:	f083 0301 	eor.w	r3, r3, #1
 8001594:	b2db      	uxtb	r3, r3
 8001596:	2b00      	cmp	r3, #0
 8001598:	f000 808e 	beq.w	80016b8 <eyes_FSM+0x298>
			pixelStatus[ADNS2610_RIGHT] = adns2610_checkPixel(&frames[currentFrameIdx].frame[ADNS2610_RIGHT][pixelIdx[ADNS2610_RIGHT]]);
 800159c:	4b56      	ldr	r3, [pc, #344]	; (80016f8 <eyes_FSM+0x2d8>)
 800159e:	781b      	ldrb	r3, [r3, #0]
 80015a0:	4619      	mov	r1, r3
 80015a2:	4b4b      	ldr	r3, [pc, #300]	; (80016d0 <eyes_FSM+0x2b0>)
 80015a4:	881b      	ldrh	r3, [r3, #0]
 80015a6:	461a      	mov	r2, r3
 80015a8:	f240 23a9 	movw	r3, #681	; 0x2a9
 80015ac:	fb03 f301 	mul.w	r3, r3, r1
 80015b0:	4413      	add	r3, r2
 80015b2:	4a4f      	ldr	r2, [pc, #316]	; (80016f0 <eyes_FSM+0x2d0>)
 80015b4:	4413      	add	r3, r2
 80015b6:	3305      	adds	r3, #5
 80015b8:	4618      	mov	r0, r3
 80015ba:	f7ff fe67 	bl	800128c <adns2610_checkPixel>
 80015be:	4603      	mov	r3, r0
 80015c0:	461a      	mov	r2, r3
 80015c2:	4b44      	ldr	r3, [pc, #272]	; (80016d4 <eyes_FSM+0x2b4>)
 80015c4:	701a      	strb	r2, [r3, #0]
	#if SECOND_SENSOR_IMPLEMENTED
			pixelStatus[ADNS2610_LEFT] = adns2610_checkPixel(&frames[currentFrameIdx].frame[ADNS2610_LEFT][pixelIdx[ADNS2610_LEFT]]);
 80015c6:	4b4c      	ldr	r3, [pc, #304]	; (80016f8 <eyes_FSM+0x2d8>)
 80015c8:	781b      	ldrb	r3, [r3, #0]
 80015ca:	4619      	mov	r1, r3
 80015cc:	4b40      	ldr	r3, [pc, #256]	; (80016d0 <eyes_FSM+0x2b0>)
 80015ce:	885b      	ldrh	r3, [r3, #2]
 80015d0:	461a      	mov	r2, r3
 80015d2:	f240 23a9 	movw	r3, #681	; 0x2a9
 80015d6:	fb03 f301 	mul.w	r3, r3, r1
 80015da:	4413      	add	r3, r2
 80015dc:	f503 73a2 	add.w	r3, r3, #324	; 0x144
 80015e0:	4a43      	ldr	r2, [pc, #268]	; (80016f0 <eyes_FSM+0x2d0>)
 80015e2:	4413      	add	r3, r2
 80015e4:	3305      	adds	r3, #5
 80015e6:	4618      	mov	r0, r3
 80015e8:	f7ff fe50 	bl	800128c <adns2610_checkPixel>
 80015ec:	4603      	mov	r3, r0
 80015ee:	461a      	mov	r2, r3
 80015f0:	4b38      	ldr	r3, [pc, #224]	; (80016d4 <eyes_FSM+0x2b4>)
 80015f2:	705a      	strb	r2, [r3, #1]
	#endif
			if(eyes_computeIdxFromStatus(&pixelStatus[ADNS2610_RIGHT], &pixelStatus[ADNS2610_LEFT], &pixelIdx[ADNS2610_RIGHT], &pixelIdx[ADNS2610_LEFT])){
 80015f4:	4b41      	ldr	r3, [pc, #260]	; (80016fc <eyes_FSM+0x2dc>)
 80015f6:	4a36      	ldr	r2, [pc, #216]	; (80016d0 <eyes_FSM+0x2b0>)
 80015f8:	4941      	ldr	r1, [pc, #260]	; (8001700 <eyes_FSM+0x2e0>)
 80015fa:	4836      	ldr	r0, [pc, #216]	; (80016d4 <eyes_FSM+0x2b4>)
 80015fc:	f000 fa82 	bl	8001b04 <eyes_computeIdxFromStatus>
 8001600:	4603      	mov	r3, r0
 8001602:	2b00      	cmp	r3, #0
 8001604:	d04e      	beq.n	80016a4 <eyes_FSM+0x284>
				FSMstate = READING_FRAME;
 8001606:	4b31      	ldr	r3, [pc, #196]	; (80016cc <eyes_FSM+0x2ac>)
 8001608:	2202      	movs	r2, #2
 800160a:	701a      	strb	r2, [r3, #0]
				if((pixelStatus[ADNS2610_RIGHT] == NON_VALID) || (pixelStatus[ADNS2610_RIGHT] == NON_VALID_SOF)){
 800160c:	4b31      	ldr	r3, [pc, #196]	; (80016d4 <eyes_FSM+0x2b4>)
 800160e:	781b      	ldrb	r3, [r3, #0]
 8001610:	2b03      	cmp	r3, #3
 8001612:	d003      	beq.n	800161c <eyes_FSM+0x1fc>
 8001614:	4b2f      	ldr	r3, [pc, #188]	; (80016d4 <eyes_FSM+0x2b4>)
 8001616:	781b      	ldrb	r3, [r3, #0]
 8001618:	2b01      	cmp	r3, #1
 800161a:	d105      	bne.n	8001628 <eyes_FSM+0x208>
					errorCounter++;
 800161c:	4b35      	ldr	r3, [pc, #212]	; (80016f4 <eyes_FSM+0x2d4>)
 800161e:	881b      	ldrh	r3, [r3, #0]
 8001620:	3301      	adds	r3, #1
 8001622:	b29a      	uxth	r2, r3
 8001624:	4b33      	ldr	r3, [pc, #204]	; (80016f4 <eyes_FSM+0x2d4>)
 8001626:	801a      	strh	r2, [r3, #0]
				}
				if(!firstFrameRead){
 8001628:	4b2c      	ldr	r3, [pc, #176]	; (80016dc <eyes_FSM+0x2bc>)
 800162a:	781b      	ldrb	r3, [r3, #0]
 800162c:	f083 0301 	eor.w	r3, r3, #1
 8001630:	b2db      	uxtb	r3, r3
 8001632:	2b00      	cmp	r3, #0
 8001634:	d046      	beq.n	80016c4 <eyes_FSM+0x2a4>
					OF_ComputeCoefficients(ADNS2610_RIGHT, frames[currentFrameIdx].frame[ADNS2610_RIGHT], frames[lastFrameIdx].frame[ADNS2610_RIGHT], pixelIdx[ADNS2610_RIGHT]);
 8001636:	4b30      	ldr	r3, [pc, #192]	; (80016f8 <eyes_FSM+0x2d8>)
 8001638:	781b      	ldrb	r3, [r3, #0]
 800163a:	461a      	mov	r2, r3
 800163c:	f240 23a9 	movw	r3, #681	; 0x2a9
 8001640:	fb03 f302 	mul.w	r3, r3, r2
 8001644:	4a2a      	ldr	r2, [pc, #168]	; (80016f0 <eyes_FSM+0x2d0>)
 8001646:	4413      	add	r3, r2
 8001648:	1d59      	adds	r1, r3, #5
 800164a:	4b28      	ldr	r3, [pc, #160]	; (80016ec <eyes_FSM+0x2cc>)
 800164c:	781b      	ldrb	r3, [r3, #0]
 800164e:	461a      	mov	r2, r3
 8001650:	f240 23a9 	movw	r3, #681	; 0x2a9
 8001654:	fb03 f302 	mul.w	r3, r3, r2
 8001658:	4a25      	ldr	r2, [pc, #148]	; (80016f0 <eyes_FSM+0x2d0>)
 800165a:	4413      	add	r3, r2
 800165c:	1d5a      	adds	r2, r3, #5
 800165e:	4b1c      	ldr	r3, [pc, #112]	; (80016d0 <eyes_FSM+0x2b0>)
 8001660:	881b      	ldrh	r3, [r3, #0]
 8001662:	2000      	movs	r0, #0
 8001664:	f001 f9f0 	bl	8002a48 <OF_ComputeCoefficients>
#if SECOND_SENSOR_IMPLEMENTED
					OF_ComputeCoefficients(ADNS2610_LEFT, frames[currentFrameIdx].frame[ADNS2610_LEFT], frames[lastFrameIdx].frame[ADNS2610_LEFT], pixelIdx[ADNS2610_LEFT]);
 8001668:	4b23      	ldr	r3, [pc, #140]	; (80016f8 <eyes_FSM+0x2d8>)
 800166a:	781b      	ldrb	r3, [r3, #0]
 800166c:	461a      	mov	r2, r3
 800166e:	f240 23a9 	movw	r3, #681	; 0x2a9
 8001672:	fb03 f302 	mul.w	r3, r3, r2
 8001676:	f503 73a2 	add.w	r3, r3, #324	; 0x144
 800167a:	4a1d      	ldr	r2, [pc, #116]	; (80016f0 <eyes_FSM+0x2d0>)
 800167c:	4413      	add	r3, r2
 800167e:	1d59      	adds	r1, r3, #5
 8001680:	4b1a      	ldr	r3, [pc, #104]	; (80016ec <eyes_FSM+0x2cc>)
 8001682:	781b      	ldrb	r3, [r3, #0]
 8001684:	461a      	mov	r2, r3
 8001686:	f240 23a9 	movw	r3, #681	; 0x2a9
 800168a:	fb03 f302 	mul.w	r3, r3, r2
 800168e:	f503 73a2 	add.w	r3, r3, #324	; 0x144
 8001692:	4a17      	ldr	r2, [pc, #92]	; (80016f0 <eyes_FSM+0x2d0>)
 8001694:	4413      	add	r3, r2
 8001696:	1d5a      	adds	r2, r3, #5
 8001698:	4b0d      	ldr	r3, [pc, #52]	; (80016d0 <eyes_FSM+0x2b0>)
 800169a:	885b      	ldrh	r3, [r3, #2]
 800169c:	2001      	movs	r0, #1
 800169e:	f001 f9d3 	bl	8002a48 <OF_ComputeCoefficients>
 80016a2:	e00f      	b.n	80016c4 <eyes_FSM+0x2a4>
#endif
				}
			}
			else{
				eyes_stopWaitIT();
 80016a4:	f000 f9a8 	bl	80019f8 <eyes_stopWaitIT>
				FSMstate = TRIGGER_FRAME;
 80016a8:	4b08      	ldr	r3, [pc, #32]	; (80016cc <eyes_FSM+0x2ac>)
 80016aa:	2201      	movs	r2, #1
 80016ac:	701a      	strb	r2, [r3, #0]
				eyes_waitIT(ADNS2610_TIM_BTW_WR);
 80016ae:	f44f 602f 	mov.w	r0, #2800	; 0xaf0
 80016b2:	f000 f979 	bl	80019a8 <eyes_waitIT>
 80016b6:	e005      	b.n	80016c4 <eyes_FSM+0x2a4>
			}
		}
		else{
			firstPixelRead = false;
 80016b8:	4b07      	ldr	r3, [pc, #28]	; (80016d8 <eyes_FSM+0x2b8>)
 80016ba:	2200      	movs	r2, #0
 80016bc:	701a      	strb	r2, [r3, #0]
			FSMstate = READING_FRAME;
 80016be:	4b03      	ldr	r3, [pc, #12]	; (80016cc <eyes_FSM+0x2ac>)
 80016c0:	2202      	movs	r2, #2
 80016c2:	701a      	strb	r2, [r3, #0]
		}
		collisionFlag = 0;
 80016c4:	4b08      	ldr	r3, [pc, #32]	; (80016e8 <eyes_FSM+0x2c8>)
 80016c6:	2200      	movs	r2, #0
 80016c8:	701a      	strb	r2, [r3, #0]
		return;
 80016ca:	e115      	b.n	80018f8 <eyes_FSM+0x4d8>
 80016cc:	200005e8 	.word	0x200005e8
 80016d0:	200005ec 	.word	0x200005ec
 80016d4:	200005f0 	.word	0x200005f0
 80016d8:	20000552 	.word	0x20000552
 80016dc:	20000553 	.word	0x20000553
 80016e0:	200005f2 	.word	0x200005f2
 80016e4:	200005e9 	.word	0x200005e9
 80016e8:	200005f3 	.word	0x200005f3
 80016ec:	2000068d 	.word	0x2000068d
 80016f0:	20000000 	.word	0x20000000
 80016f4:	200005f4 	.word	0x200005f4
 80016f8:	2000068c 	.word	0x2000068c
 80016fc:	200005ee 	.word	0x200005ee
 8001700:	200005f1 	.word	0x200005f1
	/* READING_FRAME state ---------------------------------------------------------------- */
	case READING_FRAME:
		eyes_stopWaitIT();
 8001704:	f000 f978 	bl	80019f8 <eyes_stopWaitIT>
		if(collisionFlag) goto collisionError; else collisionFlag = 1;
 8001708:	4b7d      	ldr	r3, [pc, #500]	; (8001900 <eyes_FSM+0x4e0>)
 800170a:	781b      	ldrb	r3, [r3, #0]
 800170c:	2b00      	cmp	r3, #0
 800170e:	f040 80ec 	bne.w	80018ea <eyes_FSM+0x4ca>
 8001712:	4b7b      	ldr	r3, [pc, #492]	; (8001900 <eyes_FSM+0x4e0>)
 8001714:	2201      	movs	r2, #1
 8001716:	701a      	strb	r2, [r3, #0]
		/* Read pixel data register */
		if(pixelIdx[ADNS2610_RIGHT] <= PIXEL_QTY-1)	adns2610_receiveByte(ADNS2610_RIGHT, &frames[currentFrameIdx].frame[ADNS2610_RIGHT][pixelIdx[ADNS2610_RIGHT]]);
 8001718:	4b7a      	ldr	r3, [pc, #488]	; (8001904 <eyes_FSM+0x4e4>)
 800171a:	881b      	ldrh	r3, [r3, #0]
 800171c:	f5b3 7fa2 	cmp.w	r3, #324	; 0x144
 8001720:	d211      	bcs.n	8001746 <eyes_FSM+0x326>
 8001722:	4b79      	ldr	r3, [pc, #484]	; (8001908 <eyes_FSM+0x4e8>)
 8001724:	781b      	ldrb	r3, [r3, #0]
 8001726:	4619      	mov	r1, r3
 8001728:	4b76      	ldr	r3, [pc, #472]	; (8001904 <eyes_FSM+0x4e4>)
 800172a:	881b      	ldrh	r3, [r3, #0]
 800172c:	461a      	mov	r2, r3
 800172e:	f240 23a9 	movw	r3, #681	; 0x2a9
 8001732:	fb03 f301 	mul.w	r3, r3, r1
 8001736:	4413      	add	r3, r2
 8001738:	4a74      	ldr	r2, [pc, #464]	; (800190c <eyes_FSM+0x4ec>)
 800173a:	4413      	add	r3, r2
 800173c:	3305      	adds	r3, #5
 800173e:	4619      	mov	r1, r3
 8001740:	2000      	movs	r0, #0
 8001742:	f7ff fd2b 	bl	800119c <adns2610_receiveByte>
		/* Check the last pixel status. This is done because if all is good, the next state is PROCESSING, not REQ_READING_FRAME state */
#if SECOND_SENSOR_IMPLEMENTED
		if(pixelIdx[ADNS2610_LEFT] <= PIXEL_QTY-1)	adns2610_receiveByte(ADNS2610_LEFT, &frames[currentFrameIdx].frame[ADNS2610_LEFT][pixelIdx[ADNS2610_LEFT]]);
 8001746:	4b6f      	ldr	r3, [pc, #444]	; (8001904 <eyes_FSM+0x4e4>)
 8001748:	885b      	ldrh	r3, [r3, #2]
 800174a:	f5b3 7fa2 	cmp.w	r3, #324	; 0x144
 800174e:	d213      	bcs.n	8001778 <eyes_FSM+0x358>
 8001750:	4b6d      	ldr	r3, [pc, #436]	; (8001908 <eyes_FSM+0x4e8>)
 8001752:	781b      	ldrb	r3, [r3, #0]
 8001754:	4619      	mov	r1, r3
 8001756:	4b6b      	ldr	r3, [pc, #428]	; (8001904 <eyes_FSM+0x4e4>)
 8001758:	885b      	ldrh	r3, [r3, #2]
 800175a:	461a      	mov	r2, r3
 800175c:	f240 23a9 	movw	r3, #681	; 0x2a9
 8001760:	fb03 f301 	mul.w	r3, r3, r1
 8001764:	4413      	add	r3, r2
 8001766:	f503 73a2 	add.w	r3, r3, #324	; 0x144
 800176a:	4a68      	ldr	r2, [pc, #416]	; (800190c <eyes_FSM+0x4ec>)
 800176c:	4413      	add	r3, r2
 800176e:	3305      	adds	r3, #5
 8001770:	4619      	mov	r1, r3
 8001772:	2001      	movs	r0, #1
 8001774:	f7ff fd12 	bl	800119c <adns2610_receiveByte>

		if((pixelIdx[ADNS2610_RIGHT] == PIXEL_QTY-1) && pixelIdx[ADNS2610_LEFT] == PIXEL_QTY-1){
 8001778:	4b62      	ldr	r3, [pc, #392]	; (8001904 <eyes_FSM+0x4e4>)
 800177a:	881b      	ldrh	r3, [r3, #0]
 800177c:	f240 1243 	movw	r2, #323	; 0x143
 8001780:	4293      	cmp	r3, r2
 8001782:	d112      	bne.n	80017aa <eyes_FSM+0x38a>
 8001784:	4b5f      	ldr	r3, [pc, #380]	; (8001904 <eyes_FSM+0x4e4>)
 8001786:	885b      	ldrh	r3, [r3, #2]
 8001788:	f240 1243 	movw	r2, #323	; 0x143
 800178c:	4293      	cmp	r3, r2
 800178e:	d10c      	bne.n	80017aa <eyes_FSM+0x38a>
			if(eyes_computeIdxFromStatus(&pixelStatus[ADNS2610_RIGHT], &pixelStatus[ADNS2610_LEFT], &pixelIdx[ADNS2610_RIGHT], &pixelIdx[ADNS2610_LEFT])){
 8001790:	4b5f      	ldr	r3, [pc, #380]	; (8001910 <eyes_FSM+0x4f0>)
 8001792:	4a5c      	ldr	r2, [pc, #368]	; (8001904 <eyes_FSM+0x4e4>)
 8001794:	495f      	ldr	r1, [pc, #380]	; (8001914 <eyes_FSM+0x4f4>)
 8001796:	4860      	ldr	r0, [pc, #384]	; (8001918 <eyes_FSM+0x4f8>)
 8001798:	f000 f9b4 	bl	8001b04 <eyes_computeIdxFromStatus>
 800179c:	4603      	mov	r3, r0
 800179e:	2b00      	cmp	r3, #0
 80017a0:	d00d      	beq.n	80017be <eyes_FSM+0x39e>
				FSMstate = PROCESSING;
 80017a2:	4b5e      	ldr	r3, [pc, #376]	; (800191c <eyes_FSM+0x4fc>)
 80017a4:	2204      	movs	r2, #4
 80017a6:	701a      	strb	r2, [r3, #0]
			if(eyes_computeIdxFromStatus(&pixelStatus[ADNS2610_RIGHT], &pixelStatus[ADNS2610_LEFT], &pixelIdx[ADNS2610_RIGHT], &pixelIdx[ADNS2610_LEFT])){
 80017a8:	e009      	b.n	80017be <eyes_FSM+0x39e>
			}
		}
		else{
			FSMstate = REQ_READING_FRAME;
 80017aa:	4b5c      	ldr	r3, [pc, #368]	; (800191c <eyes_FSM+0x4fc>)
 80017ac:	2203      	movs	r2, #3
 80017ae:	701a      	strb	r2, [r3, #0]
			eyes_waitIT(ADNS2610_TIM_BTW_RD);
 80017b0:	20c8      	movs	r0, #200	; 0xc8
 80017b2:	f000 f8f9 	bl	80019a8 <eyes_waitIT>
			collisionFlag = 0;
 80017b6:	4b52      	ldr	r3, [pc, #328]	; (8001900 <eyes_FSM+0x4e0>)
 80017b8:	2200      	movs	r2, #0
 80017ba:	701a      	strb	r2, [r3, #0]
			return;
 80017bc:	e09c      	b.n	80018f8 <eyes_FSM+0x4d8>
			eyes_waitIT(ADNS2610_TIM_BTW_RD);
			collisionFlag = 0;
			return;
		}
#endif
		collisionFlag = 0;
 80017be:	4b50      	ldr	r3, [pc, #320]	; (8001900 <eyes_FSM+0x4e0>)
 80017c0:	2200      	movs	r2, #0
 80017c2:	701a      	strb	r2, [r3, #0]
	/* PROCESSING state ---------------------------------------------------------------- */
	case PROCESSING:
		/* Check if it's the first frame read */
		if(firstFrameRead){
 80017c4:	4b56      	ldr	r3, [pc, #344]	; (8001920 <eyes_FSM+0x500>)
 80017c6:	781b      	ldrb	r3, [r3, #0]
 80017c8:	2b00      	cmp	r3, #0
 80017ca:	d003      	beq.n	80017d4 <eyes_FSM+0x3b4>
			firstFrameRead = false;
 80017cc:	4b54      	ldr	r3, [pc, #336]	; (8001920 <eyes_FSM+0x500>)
 80017ce:	2200      	movs	r2, #0
 80017d0:	701a      	strb	r2, [r3, #0]
 80017d2:	e05e      	b.n	8001892 <eyes_FSM+0x472>
		}
		else{
			/* Compute the Optical Flow from the previous computed coefficients */
			OF_Compute(ADNS2610_RIGHT, &(frames[currentFrameIdx].oFRight.x), &(frames[currentFrameIdx].oFRight.y));
 80017d4:	4b4c      	ldr	r3, [pc, #304]	; (8001908 <eyes_FSM+0x4e8>)
 80017d6:	781b      	ldrb	r3, [r3, #0]
 80017d8:	461a      	mov	r2, r3
 80017da:	f240 23a9 	movw	r3, #681	; 0x2a9
 80017de:	fb03 f302 	mul.w	r3, r3, r2
 80017e2:	f503 7322 	add.w	r3, r3, #648	; 0x288
 80017e6:	4a49      	ldr	r2, [pc, #292]	; (800190c <eyes_FSM+0x4ec>)
 80017e8:	4413      	add	r3, r2
 80017ea:	1d59      	adds	r1, r3, #5
 80017ec:	4b46      	ldr	r3, [pc, #280]	; (8001908 <eyes_FSM+0x4e8>)
 80017ee:	781b      	ldrb	r3, [r3, #0]
 80017f0:	461a      	mov	r2, r3
 80017f2:	f240 23a9 	movw	r3, #681	; 0x2a9
 80017f6:	fb03 f302 	mul.w	r3, r3, r2
 80017fa:	f503 7322 	add.w	r3, r3, #648	; 0x288
 80017fe:	4a43      	ldr	r2, [pc, #268]	; (800190c <eyes_FSM+0x4ec>)
 8001800:	4413      	add	r3, r2
 8001802:	3309      	adds	r3, #9
 8001804:	461a      	mov	r2, r3
 8001806:	2000      	movs	r0, #0
 8001808:	f001 fa32 	bl	8002c70 <OF_Compute>
#if SECOND_SENSOR_IMPLEMENTED
			OF_Compute(ADNS2610_LEFT, &(frames[currentFrameIdx].oFLeft.x), &(frames[currentFrameIdx].oFLeft.y));
 800180c:	4b3e      	ldr	r3, [pc, #248]	; (8001908 <eyes_FSM+0x4e8>)
 800180e:	781b      	ldrb	r3, [r3, #0]
 8001810:	461a      	mov	r2, r3
 8001812:	f240 23a9 	movw	r3, #681	; 0x2a9
 8001816:	fb03 f302 	mul.w	r3, r3, r2
 800181a:	f503 7324 	add.w	r3, r3, #656	; 0x290
 800181e:	4a3b      	ldr	r2, [pc, #236]	; (800190c <eyes_FSM+0x4ec>)
 8001820:	4413      	add	r3, r2
 8001822:	1d59      	adds	r1, r3, #5
 8001824:	4b38      	ldr	r3, [pc, #224]	; (8001908 <eyes_FSM+0x4e8>)
 8001826:	781b      	ldrb	r3, [r3, #0]
 8001828:	461a      	mov	r2, r3
 800182a:	f240 23a9 	movw	r3, #681	; 0x2a9
 800182e:	fb03 f302 	mul.w	r3, r3, r2
 8001832:	f503 7324 	add.w	r3, r3, #656	; 0x290
 8001836:	4a35      	ldr	r2, [pc, #212]	; (800190c <eyes_FSM+0x4ec>)
 8001838:	4413      	add	r3, r2
 800183a:	3309      	adds	r3, #9
 800183c:	461a      	mov	r2, r3
 800183e:	2001      	movs	r0, #1
 8001840:	f001 fa16 	bl	8002c70 <OF_Compute>
			OF_ComputeFused(&frames[currentFrameIdx].oFRight, &frames[currentFrameIdx].oFLeft, &frames[currentFrameIdx].oFFused);
 8001844:	4b30      	ldr	r3, [pc, #192]	; (8001908 <eyes_FSM+0x4e8>)
 8001846:	781b      	ldrb	r3, [r3, #0]
 8001848:	461a      	mov	r2, r3
 800184a:	f240 23a9 	movw	r3, #681	; 0x2a9
 800184e:	fb03 f302 	mul.w	r3, r3, r2
 8001852:	f503 7322 	add.w	r3, r3, #648	; 0x288
 8001856:	4a2d      	ldr	r2, [pc, #180]	; (800190c <eyes_FSM+0x4ec>)
 8001858:	4413      	add	r3, r2
 800185a:	1d58      	adds	r0, r3, #5
 800185c:	4b2a      	ldr	r3, [pc, #168]	; (8001908 <eyes_FSM+0x4e8>)
 800185e:	781b      	ldrb	r3, [r3, #0]
 8001860:	461a      	mov	r2, r3
 8001862:	f240 23a9 	movw	r3, #681	; 0x2a9
 8001866:	fb03 f302 	mul.w	r3, r3, r2
 800186a:	f503 7324 	add.w	r3, r3, #656	; 0x290
 800186e:	4a27      	ldr	r2, [pc, #156]	; (800190c <eyes_FSM+0x4ec>)
 8001870:	4413      	add	r3, r2
 8001872:	1d59      	adds	r1, r3, #5
 8001874:	4b24      	ldr	r3, [pc, #144]	; (8001908 <eyes_FSM+0x4e8>)
 8001876:	781b      	ldrb	r3, [r3, #0]
 8001878:	461a      	mov	r2, r3
 800187a:	f240 23a9 	movw	r3, #681	; 0x2a9
 800187e:	fb03 f302 	mul.w	r3, r3, r2
 8001882:	f503 7326 	add.w	r3, r3, #664	; 0x298
 8001886:	4a21      	ldr	r2, [pc, #132]	; (800190c <eyes_FSM+0x4ec>)
 8001888:	4413      	add	r3, r2
 800188a:	3305      	adds	r3, #5
 800188c:	461a      	mov	r2, r3
 800188e:	f001 fad3 	bl	8002e38 <OF_ComputeFused>
#endif
		}
		/* Switch the frame structures to store the new frame in the "oldest" data buffer */
		SWITCH_FRAME_IDX(currentFrameIdx, lastFrameIdx);
 8001892:	4b24      	ldr	r3, [pc, #144]	; (8001924 <eyes_FSM+0x504>)
 8001894:	781b      	ldrb	r3, [r3, #0]
 8001896:	71fb      	strb	r3, [r7, #7]
 8001898:	4b1b      	ldr	r3, [pc, #108]	; (8001908 <eyes_FSM+0x4e8>)
 800189a:	781a      	ldrb	r2, [r3, #0]
 800189c:	4b21      	ldr	r3, [pc, #132]	; (8001924 <eyes_FSM+0x504>)
 800189e:	701a      	strb	r2, [r3, #0]
 80018a0:	4a19      	ldr	r2, [pc, #100]	; (8001908 <eyes_FSM+0x4e8>)
 80018a2:	79fb      	ldrb	r3, [r7, #7]
 80018a4:	7013      	strb	r3, [r2, #0]
		FSMstate = TRIGGER_FRAME;
 80018a6:	4b1d      	ldr	r3, [pc, #116]	; (800191c <eyes_FSM+0x4fc>)
 80018a8:	2201      	movs	r2, #1
 80018aa:	701a      	strb	r2, [r3, #0]

		if(IsTrackingEnable()){
 80018ac:	f000 fc7a 	bl	80021a4 <IsTrackingEnable>
 80018b0:	4603      	mov	r3, r0
 80018b2:	2b00      	cmp	r3, #0
 80018b4:	d011      	beq.n	80018da <eyes_FSM+0x4ba>
			applyControlLaw(&frames[currentFrameIdx], ALL);
 80018b6:	4b14      	ldr	r3, [pc, #80]	; (8001908 <eyes_FSM+0x4e8>)
 80018b8:	781b      	ldrb	r3, [r3, #0]
 80018ba:	461a      	mov	r2, r3
 80018bc:	f240 23a9 	movw	r3, #681	; 0x2a9
 80018c0:	fb03 f302 	mul.w	r3, r3, r2
 80018c4:	4a11      	ldr	r2, [pc, #68]	; (800190c <eyes_FSM+0x4ec>)
 80018c6:	4413      	add	r3, r2
 80018c8:	2102      	movs	r1, #2
 80018ca:	4618      	mov	r0, r3
 80018cc:	f000 fb70 	bl	8001fb0 <applyControlLaw>
			eyes_waitControlTIM_IT(TIME_TO_POSITION);
 80018d0:	f44f 70e1 	mov.w	r0, #450	; 0x1c2
 80018d4:	f000 f8de 	bl	8001a94 <eyes_waitControlTIM_IT>
		}
		else{
			eyes_waitIT(ADNS2610_TIM_BTW_RD);
		}
		return;
 80018d8:	e00e      	b.n	80018f8 <eyes_FSM+0x4d8>
			eyes_waitIT(ADNS2610_TIM_BTW_RD);
 80018da:	20c8      	movs	r0, #200	; 0xc8
 80018dc:	f000 f864 	bl	80019a8 <eyes_waitIT>
		return;
 80018e0:	e00a      	b.n	80018f8 <eyes_FSM+0x4d8>
		if(collisionFlag) goto collisionError; else collisionFlag = 1;
 80018e2:	bf00      	nop
 80018e4:	e002      	b.n	80018ec <eyes_FSM+0x4cc>
		if(collisionFlag) goto collisionError; else collisionFlag = 1;
 80018e6:	bf00      	nop
 80018e8:	e000      	b.n	80018ec <eyes_FSM+0x4cc>
		if(collisionFlag) goto collisionError; else collisionFlag = 1;
 80018ea:	bf00      	nop
	}

	// Check for collisions between interrupts callings
	collisionError:
		printf("COLISSION ERROR!!\r\n");
 80018ec:	480e      	ldr	r0, [pc, #56]	; (8001928 <eyes_FSM+0x508>)
 80018ee:	f004 f82f 	bl	8005950 <puts>
		eyes_stopWaitIT();
 80018f2:	f000 f881 	bl	80019f8 <eyes_stopWaitIT>
		while(1);
 80018f6:	e7fe      	b.n	80018f6 <eyes_FSM+0x4d6>
}
 80018f8:	3708      	adds	r7, #8
 80018fa:	46bd      	mov	sp, r7
 80018fc:	bd80      	pop	{r7, pc}
 80018fe:	bf00      	nop
 8001900:	200005f3 	.word	0x200005f3
 8001904:	200005ec 	.word	0x200005ec
 8001908:	2000068c 	.word	0x2000068c
 800190c:	20000000 	.word	0x20000000
 8001910:	200005ee 	.word	0x200005ee
 8001914:	200005f1 	.word	0x200005f1
 8001918:	200005f0 	.word	0x200005f0
 800191c:	200005e8 	.word	0x200005e8
 8001920:	20000553 	.word	0x20000553
 8001924:	2000068d 	.word	0x2000068d
 8001928:	08006940 	.word	0x08006940

0800192c <eyes_configureFSM_TIM>:

/**
 * It sets up a TIMER to wait the required times by the ADNS2610 sensor through an interrupt.
 * The TIMER pre-scaler is configured to increase its count each 250ns.
 */
void eyes_configureFSM_TIM(void){
 800192c:	b580      	push	{r7, lr}
 800192e:	b082      	sub	sp, #8
 8001930:	af00      	add	r7, sp, #0
	// TIM1 prescalers has been configured to count microseconds
	uint32_t temp = TIM1->CR1;
 8001932:	4b1c      	ldr	r3, [pc, #112]	; (80019a4 <eyes_configureFSM_TIM+0x78>)
 8001934:	681b      	ldr	r3, [r3, #0]
 8001936:	607b      	str	r3, [r7, #4]

	// Disable update interrupt
	CLEAR_BIT(TIM1->DIER, TIM_DIER_UIE);
 8001938:	4b1a      	ldr	r3, [pc, #104]	; (80019a4 <eyes_configureFSM_TIM+0x78>)
 800193a:	68db      	ldr	r3, [r3, #12]
 800193c:	4a19      	ldr	r2, [pc, #100]	; (80019a4 <eyes_configureFSM_TIM+0x78>)
 800193e:	f023 0301 	bic.w	r3, r3, #1
 8001942:	60d3      	str	r3, [r2, #12]
	// Modify CR1 register
	MODIFY_REG(temp, ~(TIM_CR1_UDIS), TIM_CR1_URS);
 8001944:	687b      	ldr	r3, [r7, #4]
 8001946:	f003 0302 	and.w	r3, r3, #2
 800194a:	f043 0304 	orr.w	r3, r3, #4
 800194e:	607b      	str	r3, [r7, #4]
	TIM1->CR1 = temp;
 8001950:	4a14      	ldr	r2, [pc, #80]	; (80019a4 <eyes_configureFSM_TIM+0x78>)
 8001952:	687b      	ldr	r3, [r7, #4]
 8001954:	6013      	str	r3, [r2, #0]
	// Set interrupt interval
	TIM1->ARR = ADNS2610_TIM_TO_RD;
 8001956:	4b13      	ldr	r3, [pc, #76]	; (80019a4 <eyes_configureFSM_TIM+0x78>)
 8001958:	f44f 6216 	mov.w	r2, #2400	; 0x960
 800195c:	62da      	str	r2, [r3, #44]	; 0x2c
	// Update the prescaler and counter registers
	SET_BIT(TIM1->EGR, TIM_EGR_UG);
 800195e:	4b11      	ldr	r3, [pc, #68]	; (80019a4 <eyes_configureFSM_TIM+0x78>)
 8001960:	695b      	ldr	r3, [r3, #20]
 8001962:	4a10      	ldr	r2, [pc, #64]	; (80019a4 <eyes_configureFSM_TIM+0x78>)
 8001964:	f043 0301 	orr.w	r3, r3, #1
 8001968:	6153      	str	r3, [r2, #20]
	// Clear pending interrupt flag
	CLEAR_BIT(TIM1->SR, TIM_SR_UIF);
 800196a:	4b0e      	ldr	r3, [pc, #56]	; (80019a4 <eyes_configureFSM_TIM+0x78>)
 800196c:	691b      	ldr	r3, [r3, #16]
 800196e:	4a0d      	ldr	r2, [pc, #52]	; (80019a4 <eyes_configureFSM_TIM+0x78>)
 8001970:	f023 0301 	bic.w	r3, r3, #1
 8001974:	6113      	str	r3, [r2, #16]
	// Enable update interrupt generation
	CLEAR_BIT(TIM1->CR1, TIM_CR1_URS);
 8001976:	4b0b      	ldr	r3, [pc, #44]	; (80019a4 <eyes_configureFSM_TIM+0x78>)
 8001978:	681b      	ldr	r3, [r3, #0]
 800197a:	4a0a      	ldr	r2, [pc, #40]	; (80019a4 <eyes_configureFSM_TIM+0x78>)
 800197c:	f023 0304 	bic.w	r3, r3, #4
 8001980:	6013      	str	r3, [r2, #0]
	// Enable update interrupt
	SET_BIT(TIM1->DIER, TIM_DIER_UIE);
 8001982:	4b08      	ldr	r3, [pc, #32]	; (80019a4 <eyes_configureFSM_TIM+0x78>)
 8001984:	68db      	ldr	r3, [r3, #12]
 8001986:	4a07      	ldr	r2, [pc, #28]	; (80019a4 <eyes_configureFSM_TIM+0x78>)
 8001988:	f043 0301 	orr.w	r3, r3, #1
 800198c:	60d3      	str	r3, [r2, #12]
	// Configure NVIC to handle TIM1 update interrupt
	NVIC_SetPriority(TIM1_UP_TIM16_IRQn, 1);
 800198e:	2101      	movs	r1, #1
 8001990:	2019      	movs	r0, #25
 8001992:	f7ff fcbb 	bl	800130c <__NVIC_SetPriority>
	NVIC_EnableIRQ(TIM1_UP_TIM16_IRQn);
 8001996:	2019      	movs	r0, #25
 8001998:	f7ff fc9a 	bl	80012d0 <__NVIC_EnableIRQ>
}
 800199c:	bf00      	nop
 800199e:	3708      	adds	r7, #8
 80019a0:	46bd      	mov	sp, r7
 80019a2:	bd80      	pop	{r7, pc}
 80019a4:	40012c00 	.word	0x40012c00

080019a8 <eyes_waitIT>:

/**
 * It sets up the TIMER interval and it starts the count until the interrupt launch.
 * @param Count250ns	The interval to wait expressed as 250ns multiples
 */
void eyes_waitIT(uint32_t Count250ns){
 80019a8:	b480      	push	{r7}
 80019aa:	b083      	sub	sp, #12
 80019ac:	af00      	add	r7, sp, #0
 80019ae:	6078      	str	r0, [r7, #4]
	// Disable update interrupt generation
	SET_BIT(TIM1->CR1, TIM_CR1_URS);
 80019b0:	4b10      	ldr	r3, [pc, #64]	; (80019f4 <eyes_waitIT+0x4c>)
 80019b2:	681b      	ldr	r3, [r3, #0]
 80019b4:	4a0f      	ldr	r2, [pc, #60]	; (80019f4 <eyes_waitIT+0x4c>)
 80019b6:	f043 0304 	orr.w	r3, r3, #4
 80019ba:	6013      	str	r3, [r2, #0]
	// Set time to wait
	TIM1->ARR = Count250ns;
 80019bc:	4a0d      	ldr	r2, [pc, #52]	; (80019f4 <eyes_waitIT+0x4c>)
 80019be:	687b      	ldr	r3, [r7, #4]
 80019c0:	62d3      	str	r3, [r2, #44]	; 0x2c
	// Update the prescaler and counter registers
	SET_BIT(TIM1->EGR, TIM_EGR_UG);
 80019c2:	4b0c      	ldr	r3, [pc, #48]	; (80019f4 <eyes_waitIT+0x4c>)
 80019c4:	695b      	ldr	r3, [r3, #20]
 80019c6:	4a0b      	ldr	r2, [pc, #44]	; (80019f4 <eyes_waitIT+0x4c>)
 80019c8:	f043 0301 	orr.w	r3, r3, #1
 80019cc:	6153      	str	r3, [r2, #20]
	// Enable update interrupt generation
	CLEAR_BIT(TIM1->CR1, TIM_CR1_URS);
 80019ce:	4b09      	ldr	r3, [pc, #36]	; (80019f4 <eyes_waitIT+0x4c>)
 80019d0:	681b      	ldr	r3, [r3, #0]
 80019d2:	4a08      	ldr	r2, [pc, #32]	; (80019f4 <eyes_waitIT+0x4c>)
 80019d4:	f023 0304 	bic.w	r3, r3, #4
 80019d8:	6013      	str	r3, [r2, #0]
	// Enable and start timer
	SET_BIT(TIM1->CR1, TIM_CR1_CEN);
 80019da:	4b06      	ldr	r3, [pc, #24]	; (80019f4 <eyes_waitIT+0x4c>)
 80019dc:	681b      	ldr	r3, [r3, #0]
 80019de:	4a05      	ldr	r2, [pc, #20]	; (80019f4 <eyes_waitIT+0x4c>)
 80019e0:	f043 0301 	orr.w	r3, r3, #1
 80019e4:	6013      	str	r3, [r2, #0]
}
 80019e6:	bf00      	nop
 80019e8:	370c      	adds	r7, #12
 80019ea:	46bd      	mov	sp, r7
 80019ec:	f85d 7b04 	ldr.w	r7, [sp], #4
 80019f0:	4770      	bx	lr
 80019f2:	bf00      	nop
 80019f4:	40012c00 	.word	0x40012c00

080019f8 <eyes_stopWaitIT>:

/**
 * It stops the TIMER count to avoid the TIMER continues launching interrupts each configured interval time.
 */
void eyes_stopWaitIT(){
 80019f8:	b480      	push	{r7}
 80019fa:	af00      	add	r7, sp, #0
	// Disable and start timer
	CLEAR_BIT(TIM1->CR1, TIM_CR1_CEN);
 80019fc:	4b05      	ldr	r3, [pc, #20]	; (8001a14 <eyes_stopWaitIT+0x1c>)
 80019fe:	681b      	ldr	r3, [r3, #0]
 8001a00:	4a04      	ldr	r2, [pc, #16]	; (8001a14 <eyes_stopWaitIT+0x1c>)
 8001a02:	f023 0301 	bic.w	r3, r3, #1
 8001a06:	6013      	str	r3, [r2, #0]
}
 8001a08:	bf00      	nop
 8001a0a:	46bd      	mov	sp, r7
 8001a0c:	f85d 7b04 	ldr.w	r7, [sp], #4
 8001a10:	4770      	bx	lr
 8001a12:	bf00      	nop
 8001a14:	40012c00 	.word	0x40012c00

08001a18 <eyes_configureControl_TIM>:

/**
 * It sets up a TIMER to wait the required time to move the platform to the new position through an interrupt.
 * The TIMER pre-scaler is configured to increase its count each millisecond.
 */
void eyes_configureControl_TIM(void){
 8001a18:	b580      	push	{r7, lr}
 8001a1a:	b082      	sub	sp, #8
 8001a1c:	af00      	add	r7, sp, #0
	// TIM1 prescalers has been configured to count microseconds
	uint32_t temp = TIM4->CR1;
 8001a1e:	4b1c      	ldr	r3, [pc, #112]	; (8001a90 <eyes_configureControl_TIM+0x78>)
 8001a20:	681b      	ldr	r3, [r3, #0]
 8001a22:	607b      	str	r3, [r7, #4]

	// Disable update interrupt
	CLEAR_BIT(TIM4->DIER, TIM_DIER_UIE);
 8001a24:	4b1a      	ldr	r3, [pc, #104]	; (8001a90 <eyes_configureControl_TIM+0x78>)
 8001a26:	68db      	ldr	r3, [r3, #12]
 8001a28:	4a19      	ldr	r2, [pc, #100]	; (8001a90 <eyes_configureControl_TIM+0x78>)
 8001a2a:	f023 0301 	bic.w	r3, r3, #1
 8001a2e:	60d3      	str	r3, [r2, #12]
	// Modify CR1 register
	MODIFY_REG(temp, ~(TIM_CR1_UDIS), TIM_CR1_URS);
 8001a30:	687b      	ldr	r3, [r7, #4]
 8001a32:	f003 0302 	and.w	r3, r3, #2
 8001a36:	f043 0304 	orr.w	r3, r3, #4
 8001a3a:	607b      	str	r3, [r7, #4]
	TIM4->CR1 = temp;
 8001a3c:	4a14      	ldr	r2, [pc, #80]	; (8001a90 <eyes_configureControl_TIM+0x78>)
 8001a3e:	687b      	ldr	r3, [r7, #4]
 8001a40:	6013      	str	r3, [r2, #0]
	// Set interrupt interval
	TIM4->ARR = 1;
 8001a42:	4b13      	ldr	r3, [pc, #76]	; (8001a90 <eyes_configureControl_TIM+0x78>)
 8001a44:	2201      	movs	r2, #1
 8001a46:	62da      	str	r2, [r3, #44]	; 0x2c
	// Update the prescaler and counter registers
	SET_BIT(TIM4->EGR, TIM_EGR_UG);
 8001a48:	4b11      	ldr	r3, [pc, #68]	; (8001a90 <eyes_configureControl_TIM+0x78>)
 8001a4a:	695b      	ldr	r3, [r3, #20]
 8001a4c:	4a10      	ldr	r2, [pc, #64]	; (8001a90 <eyes_configureControl_TIM+0x78>)
 8001a4e:	f043 0301 	orr.w	r3, r3, #1
 8001a52:	6153      	str	r3, [r2, #20]
	// Clear pending interrupt flag
	CLEAR_BIT(TIM4->SR, TIM_SR_UIF);
 8001a54:	4b0e      	ldr	r3, [pc, #56]	; (8001a90 <eyes_configureControl_TIM+0x78>)
 8001a56:	691b      	ldr	r3, [r3, #16]
 8001a58:	4a0d      	ldr	r2, [pc, #52]	; (8001a90 <eyes_configureControl_TIM+0x78>)
 8001a5a:	f023 0301 	bic.w	r3, r3, #1
 8001a5e:	6113      	str	r3, [r2, #16]
	// Enable update interrupt generation
	CLEAR_BIT(TIM4->CR1, TIM_CR1_URS);
 8001a60:	4b0b      	ldr	r3, [pc, #44]	; (8001a90 <eyes_configureControl_TIM+0x78>)
 8001a62:	681b      	ldr	r3, [r3, #0]
 8001a64:	4a0a      	ldr	r2, [pc, #40]	; (8001a90 <eyes_configureControl_TIM+0x78>)
 8001a66:	f023 0304 	bic.w	r3, r3, #4
 8001a6a:	6013      	str	r3, [r2, #0]
	// Enable update interrupt
	SET_BIT(TIM4->DIER, TIM_DIER_UIE);
 8001a6c:	4b08      	ldr	r3, [pc, #32]	; (8001a90 <eyes_configureControl_TIM+0x78>)
 8001a6e:	68db      	ldr	r3, [r3, #12]
 8001a70:	4a07      	ldr	r2, [pc, #28]	; (8001a90 <eyes_configureControl_TIM+0x78>)
 8001a72:	f043 0301 	orr.w	r3, r3, #1
 8001a76:	60d3      	str	r3, [r2, #12]
	// Configure NVIC to handle TIM1 update interrupt
	NVIC_SetPriority(TIM4_IRQn, 1);
 8001a78:	2101      	movs	r1, #1
 8001a7a:	201e      	movs	r0, #30
 8001a7c:	f7ff fc46 	bl	800130c <__NVIC_SetPriority>
	NVIC_EnableIRQ(TIM4_IRQn);
 8001a80:	201e      	movs	r0, #30
 8001a82:	f7ff fc25 	bl	80012d0 <__NVIC_EnableIRQ>
}
 8001a86:	bf00      	nop
 8001a88:	3708      	adds	r7, #8
 8001a8a:	46bd      	mov	sp, r7
 8001a8c:	bd80      	pop	{r7, pc}
 8001a8e:	bf00      	nop
 8001a90:	40000800 	.word	0x40000800

08001a94 <eyes_waitControlTIM_IT>:

/**
 * It sets up the TIMER interval and it starts the count until the interrupt launch
 * @param millis	The interval to wait expressed in milliseconds
 */
void eyes_waitControlTIM_IT(uint32_t millis){
 8001a94:	b480      	push	{r7}
 8001a96:	b083      	sub	sp, #12
 8001a98:	af00      	add	r7, sp, #0
 8001a9a:	6078      	str	r0, [r7, #4]
	// Disable update interrupt generation
	SET_BIT(TIM4->CR1, TIM_CR1_URS);
 8001a9c:	4b10      	ldr	r3, [pc, #64]	; (8001ae0 <eyes_waitControlTIM_IT+0x4c>)
 8001a9e:	681b      	ldr	r3, [r3, #0]
 8001aa0:	4a0f      	ldr	r2, [pc, #60]	; (8001ae0 <eyes_waitControlTIM_IT+0x4c>)
 8001aa2:	f043 0304 	orr.w	r3, r3, #4
 8001aa6:	6013      	str	r3, [r2, #0]
	// Set time to wait
	TIM4->ARR = millis;
 8001aa8:	4a0d      	ldr	r2, [pc, #52]	; (8001ae0 <eyes_waitControlTIM_IT+0x4c>)
 8001aaa:	687b      	ldr	r3, [r7, #4]
 8001aac:	62d3      	str	r3, [r2, #44]	; 0x2c
	// Update the prescaler and counter registers
	SET_BIT(TIM4->EGR, TIM_EGR_UG);
 8001aae:	4b0c      	ldr	r3, [pc, #48]	; (8001ae0 <eyes_waitControlTIM_IT+0x4c>)
 8001ab0:	695b      	ldr	r3, [r3, #20]
 8001ab2:	4a0b      	ldr	r2, [pc, #44]	; (8001ae0 <eyes_waitControlTIM_IT+0x4c>)
 8001ab4:	f043 0301 	orr.w	r3, r3, #1
 8001ab8:	6153      	str	r3, [r2, #20]
	// Enable update interrupt generation
	CLEAR_BIT(TIM4->CR1, TIM_CR1_URS);
 8001aba:	4b09      	ldr	r3, [pc, #36]	; (8001ae0 <eyes_waitControlTIM_IT+0x4c>)
 8001abc:	681b      	ldr	r3, [r3, #0]
 8001abe:	4a08      	ldr	r2, [pc, #32]	; (8001ae0 <eyes_waitControlTIM_IT+0x4c>)
 8001ac0:	f023 0304 	bic.w	r3, r3, #4
 8001ac4:	6013      	str	r3, [r2, #0]
	// Enable and start timer
	SET_BIT(TIM4->CR1, TIM_CR1_CEN);
 8001ac6:	4b06      	ldr	r3, [pc, #24]	; (8001ae0 <eyes_waitControlTIM_IT+0x4c>)
 8001ac8:	681b      	ldr	r3, [r3, #0]
 8001aca:	4a05      	ldr	r2, [pc, #20]	; (8001ae0 <eyes_waitControlTIM_IT+0x4c>)
 8001acc:	f043 0301 	orr.w	r3, r3, #1
 8001ad0:	6013      	str	r3, [r2, #0]
}
 8001ad2:	bf00      	nop
 8001ad4:	370c      	adds	r7, #12
 8001ad6:	46bd      	mov	sp, r7
 8001ad8:	f85d 7b04 	ldr.w	r7, [sp], #4
 8001adc:	4770      	bx	lr
 8001ade:	bf00      	nop
 8001ae0:	40000800 	.word	0x40000800

08001ae4 <eyes_stopWaitControlTIM_IT>:

/**
 * It stops the TIMER count to avoid the TIMER continues launching interrupts each configured interval time.
 */
void eyes_stopWaitControlTIM_IT(){
 8001ae4:	b480      	push	{r7}
 8001ae6:	af00      	add	r7, sp, #0
	// Disable and start timer
	CLEAR_BIT(TIM4->CR1, TIM_CR1_CEN);
 8001ae8:	4b05      	ldr	r3, [pc, #20]	; (8001b00 <eyes_stopWaitControlTIM_IT+0x1c>)
 8001aea:	681b      	ldr	r3, [r3, #0]
 8001aec:	4a04      	ldr	r2, [pc, #16]	; (8001b00 <eyes_stopWaitControlTIM_IT+0x1c>)
 8001aee:	f023 0301 	bic.w	r3, r3, #1
 8001af2:	6013      	str	r3, [r2, #0]
}
 8001af4:	bf00      	nop
 8001af6:	46bd      	mov	sp, r7
 8001af8:	f85d 7b04 	ldr.w	r7, [sp], #4
 8001afc:	4770      	bx	lr
 8001afe:	bf00      	nop
 8001b00:	40000800 	.word	0x40000800

08001b04 <eyes_computeIdxFromStatus>:
 * @param status2	Pointer to pixel status type pixel status from one of the two devices
 * @param idx1		Pointer to index for the next acquired pixel
 * @param idx2		Poniter to index for the next acquired pixel
 * @return	True if pixels status are good, false if not
 */
bool eyes_computeIdxFromStatus(PixelStatus* status1, PixelStatus* status2, uint16_t* idx1,  uint16_t* idx2){
 8001b04:	b480      	push	{r7}
 8001b06:	b085      	sub	sp, #20
 8001b08:	af00      	add	r7, sp, #0
 8001b0a:	60f8      	str	r0, [r7, #12]
 8001b0c:	60b9      	str	r1, [r7, #8]
 8001b0e:	607a      	str	r2, [r7, #4]
 8001b10:	603b      	str	r3, [r7, #0]

	if((*status1 == VALID_SOF) && (*idx1 == 0)){
 8001b12:	68fb      	ldr	r3, [r7, #12]
 8001b14:	781b      	ldrb	r3, [r3, #0]
 8001b16:	2b00      	cmp	r3, #0
 8001b18:	d10a      	bne.n	8001b30 <eyes_computeIdxFromStatus+0x2c>
 8001b1a:	687b      	ldr	r3, [r7, #4]
 8001b1c:	881b      	ldrh	r3, [r3, #0]
 8001b1e:	2b00      	cmp	r3, #0
 8001b20:	d106      	bne.n	8001b30 <eyes_computeIdxFromStatus+0x2c>
		(*idx1)++;
 8001b22:	687b      	ldr	r3, [r7, #4]
 8001b24:	881b      	ldrh	r3, [r3, #0]
 8001b26:	3301      	adds	r3, #1
 8001b28:	b29a      	uxth	r2, r3
 8001b2a:	687b      	ldr	r3, [r7, #4]
 8001b2c:	801a      	strh	r2, [r3, #0]
 8001b2e:	e024      	b.n	8001b7a <eyes_computeIdxFromStatus+0x76>
	}
	else if((*status1 == VALID) && (*idx1 != 0) && (*idx1 < PIXEL_QTY-1)){
 8001b30:	68fb      	ldr	r3, [r7, #12]
 8001b32:	781b      	ldrb	r3, [r3, #0]
 8001b34:	2b02      	cmp	r3, #2
 8001b36:	d10f      	bne.n	8001b58 <eyes_computeIdxFromStatus+0x54>
 8001b38:	687b      	ldr	r3, [r7, #4]
 8001b3a:	881b      	ldrh	r3, [r3, #0]
 8001b3c:	2b00      	cmp	r3, #0
 8001b3e:	d00b      	beq.n	8001b58 <eyes_computeIdxFromStatus+0x54>
 8001b40:	687b      	ldr	r3, [r7, #4]
 8001b42:	881b      	ldrh	r3, [r3, #0]
 8001b44:	f5b3 7fa1 	cmp.w	r3, #322	; 0x142
 8001b48:	d806      	bhi.n	8001b58 <eyes_computeIdxFromStatus+0x54>
		(*idx1)++;
 8001b4a:	687b      	ldr	r3, [r7, #4]
 8001b4c:	881b      	ldrh	r3, [r3, #0]
 8001b4e:	3301      	adds	r3, #1
 8001b50:	b29a      	uxth	r2, r3
 8001b52:	687b      	ldr	r3, [r7, #4]
 8001b54:	801a      	strh	r2, [r3, #0]
 8001b56:	e010      	b.n	8001b7a <eyes_computeIdxFromStatus+0x76>
	}
	else if ((*status1 == VALID_SOF) && (*idx1 != 0)){
 8001b58:	68fb      	ldr	r3, [r7, #12]
 8001b5a:	781b      	ldrb	r3, [r3, #0]
 8001b5c:	2b00      	cmp	r3, #0
 8001b5e:	d10c      	bne.n	8001b7a <eyes_computeIdxFromStatus+0x76>
 8001b60:	687b      	ldr	r3, [r7, #4]
 8001b62:	881b      	ldrh	r3, [r3, #0]
 8001b64:	2b00      	cmp	r3, #0
 8001b66:	d008      	beq.n	8001b7a <eyes_computeIdxFromStatus+0x76>
		*idx1 = *idx2 = 0;
 8001b68:	683b      	ldr	r3, [r7, #0]
 8001b6a:	2200      	movs	r2, #0
 8001b6c:	801a      	strh	r2, [r3, #0]
 8001b6e:	683b      	ldr	r3, [r7, #0]
 8001b70:	881a      	ldrh	r2, [r3, #0]
 8001b72:	687b      	ldr	r3, [r7, #4]
 8001b74:	801a      	strh	r2, [r3, #0]
		return false;
 8001b76:	2300      	movs	r3, #0
 8001b78:	e034      	b.n	8001be4 <eyes_computeIdxFromStatus+0xe0>
	}
#if SECOND_SENSOR_IMPLEMENTED
	if((*status2 == VALID_SOF) && (*idx2 == 0)){
 8001b7a:	68bb      	ldr	r3, [r7, #8]
 8001b7c:	781b      	ldrb	r3, [r3, #0]
 8001b7e:	2b00      	cmp	r3, #0
 8001b80:	d10a      	bne.n	8001b98 <eyes_computeIdxFromStatus+0x94>
 8001b82:	683b      	ldr	r3, [r7, #0]
 8001b84:	881b      	ldrh	r3, [r3, #0]
 8001b86:	2b00      	cmp	r3, #0
 8001b88:	d106      	bne.n	8001b98 <eyes_computeIdxFromStatus+0x94>
		(*idx2)++;
 8001b8a:	683b      	ldr	r3, [r7, #0]
 8001b8c:	881b      	ldrh	r3, [r3, #0]
 8001b8e:	3301      	adds	r3, #1
 8001b90:	b29a      	uxth	r2, r3
 8001b92:	683b      	ldr	r3, [r7, #0]
 8001b94:	801a      	strh	r2, [r3, #0]
 8001b96:	e024      	b.n	8001be2 <eyes_computeIdxFromStatus+0xde>
	}
	else if((*status2 == VALID) && (*idx2 != 0) && (*idx2 < PIXEL_QTY-1)){
 8001b98:	68bb      	ldr	r3, [r7, #8]
 8001b9a:	781b      	ldrb	r3, [r3, #0]
 8001b9c:	2b02      	cmp	r3, #2
 8001b9e:	d10f      	bne.n	8001bc0 <eyes_computeIdxFromStatus+0xbc>
 8001ba0:	683b      	ldr	r3, [r7, #0]
 8001ba2:	881b      	ldrh	r3, [r3, #0]
 8001ba4:	2b00      	cmp	r3, #0
 8001ba6:	d00b      	beq.n	8001bc0 <eyes_computeIdxFromStatus+0xbc>
 8001ba8:	683b      	ldr	r3, [r7, #0]
 8001baa:	881b      	ldrh	r3, [r3, #0]
 8001bac:	f5b3 7fa1 	cmp.w	r3, #322	; 0x142
 8001bb0:	d806      	bhi.n	8001bc0 <eyes_computeIdxFromStatus+0xbc>
		(*idx2)++;
 8001bb2:	683b      	ldr	r3, [r7, #0]
 8001bb4:	881b      	ldrh	r3, [r3, #0]
 8001bb6:	3301      	adds	r3, #1
 8001bb8:	b29a      	uxth	r2, r3
 8001bba:	683b      	ldr	r3, [r7, #0]
 8001bbc:	801a      	strh	r2, [r3, #0]
 8001bbe:	e010      	b.n	8001be2 <eyes_computeIdxFromStatus+0xde>
	}
	else if((*status2 == VALID_SOF) && (*idx2 != 0)){
 8001bc0:	68bb      	ldr	r3, [r7, #8]
 8001bc2:	781b      	ldrb	r3, [r3, #0]
 8001bc4:	2b00      	cmp	r3, #0
 8001bc6:	d10c      	bne.n	8001be2 <eyes_computeIdxFromStatus+0xde>
 8001bc8:	683b      	ldr	r3, [r7, #0]
 8001bca:	881b      	ldrh	r3, [r3, #0]
 8001bcc:	2b00      	cmp	r3, #0
 8001bce:	d008      	beq.n	8001be2 <eyes_computeIdxFromStatus+0xde>
		(*idx1) = (*idx2) = 0;
 8001bd0:	683b      	ldr	r3, [r7, #0]
 8001bd2:	2200      	movs	r2, #0
 8001bd4:	801a      	strh	r2, [r3, #0]
 8001bd6:	683b      	ldr	r3, [r7, #0]
 8001bd8:	881a      	ldrh	r2, [r3, #0]
 8001bda:	687b      	ldr	r3, [r7, #4]
 8001bdc:	801a      	strh	r2, [r3, #0]
		return false;
 8001bde:	2300      	movs	r3, #0
 8001be0:	e000      	b.n	8001be4 <eyes_computeIdxFromStatus+0xe0>
	}
#endif
	return true;
 8001be2:	2301      	movs	r3, #1
}
 8001be4:	4618      	mov	r0, r3
 8001be6:	3714      	adds	r7, #20
 8001be8:	46bd      	mov	sp, r7
 8001bea:	f85d 7b04 	ldr.w	r7, [sp], #4
 8001bee:	4770      	bx	lr

08001bf0 <TIM1_UP_TIM16_IRQHandler>:

void TIM1_UP_TIM16_IRQHandler(void){
 8001bf0:	b580      	push	{r7, lr}
 8001bf2:	af00      	add	r7, sp, #0
	// If the interrupt flag is enabled
	if(READ_BIT(TIM1->SR, TIM_SR_UIF)){
 8001bf4:	4b07      	ldr	r3, [pc, #28]	; (8001c14 <TIM1_UP_TIM16_IRQHandler+0x24>)
 8001bf6:	691b      	ldr	r3, [r3, #16]
 8001bf8:	f003 0301 	and.w	r3, r3, #1
 8001bfc:	2b00      	cmp	r3, #0
 8001bfe:	d007      	beq.n	8001c10 <TIM1_UP_TIM16_IRQHandler+0x20>
		// Clear pending interrupt flag
		CLEAR_BIT(TIM1->SR, TIM_SR_UIF);
 8001c00:	4b04      	ldr	r3, [pc, #16]	; (8001c14 <TIM1_UP_TIM16_IRQHandler+0x24>)
 8001c02:	691b      	ldr	r3, [r3, #16]
 8001c04:	4a03      	ldr	r2, [pc, #12]	; (8001c14 <TIM1_UP_TIM16_IRQHandler+0x24>)
 8001c06:	f023 0301 	bic.w	r3, r3, #1
 8001c0a:	6113      	str	r3, [r2, #16]
		// Process FSM
		eyes_FSM();
 8001c0c:	f7ff fc08 	bl	8001420 <eyes_FSM>
	}
}
 8001c10:	bf00      	nop
 8001c12:	bd80      	pop	{r7, pc}
 8001c14:	40012c00 	.word	0x40012c00

08001c18 <TIM4_IRQHandler>:

void TIM4_IRQHandler(void){
 8001c18:	b580      	push	{r7, lr}
 8001c1a:	af00      	add	r7, sp, #0
	// If the interrupt flag is enabled
	if(READ_BIT(TIM4->SR, TIM_SR_UIF)){
 8001c1c:	4b07      	ldr	r3, [pc, #28]	; (8001c3c <TIM4_IRQHandler+0x24>)
 8001c1e:	691b      	ldr	r3, [r3, #16]
 8001c20:	f003 0301 	and.w	r3, r3, #1
 8001c24:	2b00      	cmp	r3, #0
 8001c26:	d007      	beq.n	8001c38 <TIM4_IRQHandler+0x20>
		// Clear pending interrupt flag
		CLEAR_BIT(TIM4->SR, TIM_SR_UIF);
 8001c28:	4b04      	ldr	r3, [pc, #16]	; (8001c3c <TIM4_IRQHandler+0x24>)
 8001c2a:	691b      	ldr	r3, [r3, #16]
 8001c2c:	4a03      	ldr	r2, [pc, #12]	; (8001c3c <TIM4_IRQHandler+0x24>)
 8001c2e:	f023 0301 	bic.w	r3, r3, #1
 8001c32:	6113      	str	r3, [r2, #16]
		// Process FSM
		eyes_FSM();
 8001c34:	f7ff fbf4 	bl	8001420 <eyes_FSM>
	}
}
 8001c38:	bf00      	nop
 8001c3a:	bd80      	pop	{r7, pc}
 8001c3c:	40000800 	.word	0x40000800

08001c40 <gimbalControlInit>:

/**
 * @brief Setting up all the peripherals (UART and TIMER) needed
 * to control the gimbal position
 */
void gimbalControlInit(void){
 8001c40:	b580      	push	{r7, lr}
 8001c42:	af00      	add	r7, sp, #0
	// Configure UART2 interrupt to receive data from PC
	configure_IRQ_USART_RX();
 8001c44:	f001 ffe6 	bl	8003c14 <configure_IRQ_USART_RX>

	// Flag to know PWM signal state
	pwmEn = false;
 8001c48:	4b05      	ldr	r3, [pc, #20]	; (8001c60 <gimbalControlInit+0x20>)
 8001c4a:	2200      	movs	r2, #0
 8001c4c:	701a      	strb	r2, [r3, #0]

	// Flag to know if tracking function is enable/disable
	trackingEn = false;
 8001c4e:	4b05      	ldr	r3, [pc, #20]	; (8001c64 <gimbalControlInit+0x24>)
 8001c50:	2200      	movs	r2, #0
 8001c52:	701a      	strb	r2, [r3, #0]

	// Calibration not active
	calibrationEn = false;
 8001c54:	4b04      	ldr	r3, [pc, #16]	; (8001c68 <gimbalControlInit+0x28>)
 8001c56:	2200      	movs	r2, #0
 8001c58:	701a      	strb	r2, [r3, #0]
}
 8001c5a:	bf00      	nop
 8001c5c:	bd80      	pop	{r7, pc}
 8001c5e:	bf00      	nop
 8001c60:	20000690 	.word	0x20000690
 8001c64:	2000068e 	.word	0x2000068e
 8001c68:	2000068f 	.word	0x2000068f

08001c6c <decodeCmd>:
 * @brief Receive a string and decode the command type related to it
 * @param cmdString	The command in string format
 * @param length	The length of the command
 * @return	The command type in cmdTypeDef format
 */
cmdTypeDef decodeCmd(char const * cmdString, int length){
 8001c6c:	b580      	push	{r7, lr}
 8001c6e:	b082      	sub	sp, #8
 8001c70:	af00      	add	r7, sp, #0
 8001c72:	6078      	str	r0, [r7, #4]
 8001c74:	6039      	str	r1, [r7, #0]

	// Enable PWM if it was disabled
	if(!pwmEn)	enablePWM();
 8001c76:	4b98      	ldr	r3, [pc, #608]	; (8001ed8 <decodeCmd+0x26c>)
 8001c78:	781b      	ldrb	r3, [r3, #0]
 8001c7a:	f083 0301 	eor.w	r3, r3, #1
 8001c7e:	b2db      	uxtb	r3, r3
 8001c80:	2b00      	cmp	r3, #0
 8001c82:	d001      	beq.n	8001c88 <decodeCmd+0x1c>
 8001c84:	f000 fa9a 	bl	80021bc <enablePWM>

	// Tracking enable command
	if(strncmp(cmdString, "TRON\n", length) == 0){
 8001c88:	683b      	ldr	r3, [r7, #0]
 8001c8a:	461a      	mov	r2, r3
 8001c8c:	4993      	ldr	r1, [pc, #588]	; (8001edc <decodeCmd+0x270>)
 8001c8e:	6878      	ldr	r0, [r7, #4]
 8001c90:	f003 fe66 	bl	8005960 <strncmp>
 8001c94:	4603      	mov	r3, r0
 8001c96:	2b00      	cmp	r3, #0
 8001c98:	d104      	bne.n	8001ca4 <decodeCmd+0x38>
		trackingEn = true;
 8001c9a:	4b91      	ldr	r3, [pc, #580]	; (8001ee0 <decodeCmd+0x274>)
 8001c9c:	2201      	movs	r2, #1
 8001c9e:	701a      	strb	r2, [r3, #0]
		return TRACKING_ON;
 8001ca0:	2307      	movs	r3, #7
 8001ca2:	e179      	b.n	8001f98 <decodeCmd+0x32c>
	}
	if(strncmp(cmdString, "TROFF\n", length) == 0){
 8001ca4:	683b      	ldr	r3, [r7, #0]
 8001ca6:	461a      	mov	r2, r3
 8001ca8:	498e      	ldr	r1, [pc, #568]	; (8001ee4 <decodeCmd+0x278>)
 8001caa:	6878      	ldr	r0, [r7, #4]
 8001cac:	f003 fe58 	bl	8005960 <strncmp>
 8001cb0:	4603      	mov	r3, r0
 8001cb2:	2b00      	cmp	r3, #0
 8001cb4:	d104      	bne.n	8001cc0 <decodeCmd+0x54>
		trackingEn = false;
 8001cb6:	4b8a      	ldr	r3, [pc, #552]	; (8001ee0 <decodeCmd+0x274>)
 8001cb8:	2200      	movs	r2, #0
 8001cba:	701a      	strb	r2, [r3, #0]

		return TRACKING_OFF;
 8001cbc:	2308      	movs	r3, #8
 8001cbe:	e16b      	b.n	8001f98 <decodeCmd+0x32c>
	}

	if(strncmp(cmdString, "CALON\n", length) == 0){
 8001cc0:	683b      	ldr	r3, [r7, #0]
 8001cc2:	461a      	mov	r2, r3
 8001cc4:	4988      	ldr	r1, [pc, #544]	; (8001ee8 <decodeCmd+0x27c>)
 8001cc6:	6878      	ldr	r0, [r7, #4]
 8001cc8:	f003 fe4a 	bl	8005960 <strncmp>
 8001ccc:	4603      	mov	r3, r0
 8001cce:	2b00      	cmp	r3, #0
 8001cd0:	d104      	bne.n	8001cdc <decodeCmd+0x70>
		calibrationEn = true;
 8001cd2:	4b86      	ldr	r3, [pc, #536]	; (8001eec <decodeCmd+0x280>)
 8001cd4:	2201      	movs	r2, #1
 8001cd6:	701a      	strb	r2, [r3, #0]
		return CALIBRATION_MODE_ON;
 8001cd8:	2309      	movs	r3, #9
 8001cda:	e15d      	b.n	8001f98 <decodeCmd+0x32c>
	}

	if(strncmp(cmdString, "CALOFF\n", length) == 0){
 8001cdc:	683b      	ldr	r3, [r7, #0]
 8001cde:	461a      	mov	r2, r3
 8001ce0:	4983      	ldr	r1, [pc, #524]	; (8001ef0 <decodeCmd+0x284>)
 8001ce2:	6878      	ldr	r0, [r7, #4]
 8001ce4:	f003 fe3c 	bl	8005960 <strncmp>
 8001ce8:	4603      	mov	r3, r0
 8001cea:	2b00      	cmp	r3, #0
 8001cec:	d104      	bne.n	8001cf8 <decodeCmd+0x8c>
		calibrationEn = false;
 8001cee:	4b7f      	ldr	r3, [pc, #508]	; (8001eec <decodeCmd+0x280>)
 8001cf0:	2200      	movs	r2, #0
 8001cf2:	701a      	strb	r2, [r3, #0]
		return CALIBRATION_MODE_OFF;
 8001cf4:	230a      	movs	r3, #10
 8001cf6:	e14f      	b.n	8001f98 <decodeCmd+0x32c>
	}

	// Tracking enable so It isn't able to perform any command
	if(trackingEn) return NA;
 8001cf8:	4b79      	ldr	r3, [pc, #484]	; (8001ee0 <decodeCmd+0x274>)
 8001cfa:	781b      	ldrb	r3, [r3, #0]
 8001cfc:	2b00      	cmp	r3, #0
 8001cfe:	d001      	beq.n	8001d04 <decodeCmd+0x98>
 8001d00:	230b      	movs	r3, #11
 8001d02:	e149      	b.n	8001f98 <decodeCmd+0x32c>

	// Center command
	if(strncmp(cmdString, "CN\n", length) == 0){
 8001d04:	683b      	ldr	r3, [r7, #0]
 8001d06:	461a      	mov	r2, r3
 8001d08:	497a      	ldr	r1, [pc, #488]	; (8001ef4 <decodeCmd+0x288>)
 8001d0a:	6878      	ldr	r0, [r7, #4]
 8001d0c:	f003 fe28 	bl	8005960 <strncmp>
 8001d10:	4603      	mov	r3, r0
 8001d12:	2b00      	cmp	r3, #0
 8001d14:	d119      	bne.n	8001d4a <decodeCmd+0xde>

		motorPos.pitchPos = CENTER_POS;
 8001d16:	4b78      	ldr	r3, [pc, #480]	; (8001ef8 <decodeCmd+0x28c>)
 8001d18:	f241 22bf 	movw	r2, #4799	; 0x12bf
 8001d1c:	801a      	strh	r2, [r3, #0]
		motorPos.rollPos = CENTER_POS;
 8001d1e:	4b76      	ldr	r3, [pc, #472]	; (8001ef8 <decodeCmd+0x28c>)
 8001d20:	f241 22bf 	movw	r2, #4799	; 0x12bf
 8001d24:	805a      	strh	r2, [r3, #2]
		motorPos.yawPos = CENTER_POS;
 8001d26:	4b74      	ldr	r3, [pc, #464]	; (8001ef8 <decodeCmd+0x28c>)
 8001d28:	f241 22bf 	movw	r2, #4799	; 0x12bf
 8001d2c:	809a      	strh	r2, [r3, #4]

		TIM3->CCR1 = motorPos.pitchPos;
 8001d2e:	4b72      	ldr	r3, [pc, #456]	; (8001ef8 <decodeCmd+0x28c>)
 8001d30:	881a      	ldrh	r2, [r3, #0]
 8001d32:	4b72      	ldr	r3, [pc, #456]	; (8001efc <decodeCmd+0x290>)
 8001d34:	635a      	str	r2, [r3, #52]	; 0x34
		TIM3->CCR2 = motorPos.rollPos;
 8001d36:	4b70      	ldr	r3, [pc, #448]	; (8001ef8 <decodeCmd+0x28c>)
 8001d38:	885a      	ldrh	r2, [r3, #2]
 8001d3a:	4b70      	ldr	r3, [pc, #448]	; (8001efc <decodeCmd+0x290>)
 8001d3c:	639a      	str	r2, [r3, #56]	; 0x38
		TIM3->CCR4 = motorPos.yawPos;
 8001d3e:	4b6e      	ldr	r3, [pc, #440]	; (8001ef8 <decodeCmd+0x28c>)
 8001d40:	889a      	ldrh	r2, [r3, #4]
 8001d42:	4b6e      	ldr	r3, [pc, #440]	; (8001efc <decodeCmd+0x290>)
 8001d44:	641a      	str	r2, [r3, #64]	; 0x40

		return CENTER;
 8001d46:	2306      	movs	r3, #6
 8001d48:	e126      	b.n	8001f98 <decodeCmd+0x32c>
	}

	// Up command
	if(strncmp(cmdString, "UP\n", length) == 0){
 8001d4a:	683b      	ldr	r3, [r7, #0]
 8001d4c:	461a      	mov	r2, r3
 8001d4e:	496c      	ldr	r1, [pc, #432]	; (8001f00 <decodeCmd+0x294>)
 8001d50:	6878      	ldr	r0, [r7, #4]
 8001d52:	f003 fe05 	bl	8005960 <strncmp>
 8001d56:	4603      	mov	r3, r0
 8001d58:	2b00      	cmp	r3, #0
 8001d5a:	d122      	bne.n	8001da2 <decodeCmd+0x136>

		if(!calibrationEn) motorPos.pitchPos -= DELTA_POS;
 8001d5c:	4b63      	ldr	r3, [pc, #396]	; (8001eec <decodeCmd+0x280>)
 8001d5e:	781b      	ldrb	r3, [r3, #0]
 8001d60:	f083 0301 	eor.w	r3, r3, #1
 8001d64:	b2db      	uxtb	r3, r3
 8001d66:	2b00      	cmp	r3, #0
 8001d68:	d006      	beq.n	8001d78 <decodeCmd+0x10c>
 8001d6a:	4b63      	ldr	r3, [pc, #396]	; (8001ef8 <decodeCmd+0x28c>)
 8001d6c:	881b      	ldrh	r3, [r3, #0]
 8001d6e:	3b46      	subs	r3, #70	; 0x46
 8001d70:	b29a      	uxth	r2, r3
 8001d72:	4b61      	ldr	r3, [pc, #388]	; (8001ef8 <decodeCmd+0x28c>)
 8001d74:	801a      	strh	r2, [r3, #0]
 8001d76:	e005      	b.n	8001d84 <decodeCmd+0x118>
		else motorPos.pitchPos -= CALDELTA_POS;
 8001d78:	4b5f      	ldr	r3, [pc, #380]	; (8001ef8 <decodeCmd+0x28c>)
 8001d7a:	881b      	ldrh	r3, [r3, #0]
 8001d7c:	3b0a      	subs	r3, #10
 8001d7e:	b29a      	uxth	r2, r3
 8001d80:	4b5d      	ldr	r3, [pc, #372]	; (8001ef8 <decodeCmd+0x28c>)
 8001d82:	801a      	strh	r2, [r3, #0]

		NormalizeRange(motorPos.pitchPos, MAX_POS, MIN_POS);
 8001d84:	4b5c      	ldr	r3, [pc, #368]	; (8001ef8 <decodeCmd+0x28c>)
 8001d86:	881b      	ldrh	r3, [r3, #0]
 8001d88:	f640 427f 	movw	r2, #3199	; 0xc7f
 8001d8c:	f641 01ff 	movw	r1, #6399	; 0x18ff
 8001d90:	4618      	mov	r0, r3
 8001d92:	f000 fa39 	bl	8002208 <NormalizeRange>
		TIM3->CCR2 = motorPos.pitchPos;
 8001d96:	4b58      	ldr	r3, [pc, #352]	; (8001ef8 <decodeCmd+0x28c>)
 8001d98:	881a      	ldrh	r2, [r3, #0]
 8001d9a:	4b58      	ldr	r3, [pc, #352]	; (8001efc <decodeCmd+0x290>)
 8001d9c:	639a      	str	r2, [r3, #56]	; 0x38
		return UP;
 8001d9e:	2300      	movs	r3, #0
 8001da0:	e0fa      	b.n	8001f98 <decodeCmd+0x32c>
	}
	// Down command
	if(strncmp(cmdString, "DW\n", length) == 0){
 8001da2:	683b      	ldr	r3, [r7, #0]
 8001da4:	461a      	mov	r2, r3
 8001da6:	4957      	ldr	r1, [pc, #348]	; (8001f04 <decodeCmd+0x298>)
 8001da8:	6878      	ldr	r0, [r7, #4]
 8001daa:	f003 fdd9 	bl	8005960 <strncmp>
 8001dae:	4603      	mov	r3, r0
 8001db0:	2b00      	cmp	r3, #0
 8001db2:	d122      	bne.n	8001dfa <decodeCmd+0x18e>

		if(!calibrationEn) motorPos.pitchPos += DELTA_POS;
 8001db4:	4b4d      	ldr	r3, [pc, #308]	; (8001eec <decodeCmd+0x280>)
 8001db6:	781b      	ldrb	r3, [r3, #0]
 8001db8:	f083 0301 	eor.w	r3, r3, #1
 8001dbc:	b2db      	uxtb	r3, r3
 8001dbe:	2b00      	cmp	r3, #0
 8001dc0:	d006      	beq.n	8001dd0 <decodeCmd+0x164>
 8001dc2:	4b4d      	ldr	r3, [pc, #308]	; (8001ef8 <decodeCmd+0x28c>)
 8001dc4:	881b      	ldrh	r3, [r3, #0]
 8001dc6:	3346      	adds	r3, #70	; 0x46
 8001dc8:	b29a      	uxth	r2, r3
 8001dca:	4b4b      	ldr	r3, [pc, #300]	; (8001ef8 <decodeCmd+0x28c>)
 8001dcc:	801a      	strh	r2, [r3, #0]
 8001dce:	e005      	b.n	8001ddc <decodeCmd+0x170>
		else	motorPos.pitchPos += CALDELTA_POS;
 8001dd0:	4b49      	ldr	r3, [pc, #292]	; (8001ef8 <decodeCmd+0x28c>)
 8001dd2:	881b      	ldrh	r3, [r3, #0]
 8001dd4:	330a      	adds	r3, #10
 8001dd6:	b29a      	uxth	r2, r3
 8001dd8:	4b47      	ldr	r3, [pc, #284]	; (8001ef8 <decodeCmd+0x28c>)
 8001dda:	801a      	strh	r2, [r3, #0]

		NormalizeRange(motorPos.pitchPos, MAX_POS, MIN_POS);
 8001ddc:	4b46      	ldr	r3, [pc, #280]	; (8001ef8 <decodeCmd+0x28c>)
 8001dde:	881b      	ldrh	r3, [r3, #0]
 8001de0:	f640 427f 	movw	r2, #3199	; 0xc7f
 8001de4:	f641 01ff 	movw	r1, #6399	; 0x18ff
 8001de8:	4618      	mov	r0, r3
 8001dea:	f000 fa0d 	bl	8002208 <NormalizeRange>
		TIM3->CCR2 = motorPos.pitchPos;
 8001dee:	4b42      	ldr	r3, [pc, #264]	; (8001ef8 <decodeCmd+0x28c>)
 8001df0:	881a      	ldrh	r2, [r3, #0]
 8001df2:	4b42      	ldr	r3, [pc, #264]	; (8001efc <decodeCmd+0x290>)
 8001df4:	639a      	str	r2, [r3, #56]	; 0x38
		return DOWN;
 8001df6:	2301      	movs	r3, #1
 8001df8:	e0ce      	b.n	8001f98 <decodeCmd+0x32c>
	}
	// Left command
	if(strncmp(cmdString, "LF\n", length) == 0){
 8001dfa:	683b      	ldr	r3, [r7, #0]
 8001dfc:	461a      	mov	r2, r3
 8001dfe:	4942      	ldr	r1, [pc, #264]	; (8001f08 <decodeCmd+0x29c>)
 8001e00:	6878      	ldr	r0, [r7, #4]
 8001e02:	f003 fdad 	bl	8005960 <strncmp>
 8001e06:	4603      	mov	r3, r0
 8001e08:	2b00      	cmp	r3, #0
 8001e0a:	d122      	bne.n	8001e52 <decodeCmd+0x1e6>

		if(!calibrationEn) motorPos.yawPos -= DELTA_POS;
 8001e0c:	4b37      	ldr	r3, [pc, #220]	; (8001eec <decodeCmd+0x280>)
 8001e0e:	781b      	ldrb	r3, [r3, #0]
 8001e10:	f083 0301 	eor.w	r3, r3, #1
 8001e14:	b2db      	uxtb	r3, r3
 8001e16:	2b00      	cmp	r3, #0
 8001e18:	d006      	beq.n	8001e28 <decodeCmd+0x1bc>
 8001e1a:	4b37      	ldr	r3, [pc, #220]	; (8001ef8 <decodeCmd+0x28c>)
 8001e1c:	889b      	ldrh	r3, [r3, #4]
 8001e1e:	3b46      	subs	r3, #70	; 0x46
 8001e20:	b29a      	uxth	r2, r3
 8001e22:	4b35      	ldr	r3, [pc, #212]	; (8001ef8 <decodeCmd+0x28c>)
 8001e24:	809a      	strh	r2, [r3, #4]
 8001e26:	e005      	b.n	8001e34 <decodeCmd+0x1c8>
		else motorPos.yawPos -= CALDELTA_POS;
 8001e28:	4b33      	ldr	r3, [pc, #204]	; (8001ef8 <decodeCmd+0x28c>)
 8001e2a:	889b      	ldrh	r3, [r3, #4]
 8001e2c:	3b0a      	subs	r3, #10
 8001e2e:	b29a      	uxth	r2, r3
 8001e30:	4b31      	ldr	r3, [pc, #196]	; (8001ef8 <decodeCmd+0x28c>)
 8001e32:	809a      	strh	r2, [r3, #4]

		NormalizeRange(motorPos.yawPos, MAX_POS, MIN_POS);
 8001e34:	4b30      	ldr	r3, [pc, #192]	; (8001ef8 <decodeCmd+0x28c>)
 8001e36:	889b      	ldrh	r3, [r3, #4]
 8001e38:	f640 427f 	movw	r2, #3199	; 0xc7f
 8001e3c:	f641 01ff 	movw	r1, #6399	; 0x18ff
 8001e40:	4618      	mov	r0, r3
 8001e42:	f000 f9e1 	bl	8002208 <NormalizeRange>
		TIM3->CCR4 = motorPos.yawPos;
 8001e46:	4b2c      	ldr	r3, [pc, #176]	; (8001ef8 <decodeCmd+0x28c>)
 8001e48:	889a      	ldrh	r2, [r3, #4]
 8001e4a:	4b2c      	ldr	r3, [pc, #176]	; (8001efc <decodeCmd+0x290>)
 8001e4c:	641a      	str	r2, [r3, #64]	; 0x40
		return LEFT;
 8001e4e:	2302      	movs	r3, #2
 8001e50:	e0a2      	b.n	8001f98 <decodeCmd+0x32c>
	}
	// Right command
	if(strncmp(cmdString, "RH\n", length) == 0){
 8001e52:	683b      	ldr	r3, [r7, #0]
 8001e54:	461a      	mov	r2, r3
 8001e56:	492d      	ldr	r1, [pc, #180]	; (8001f0c <decodeCmd+0x2a0>)
 8001e58:	6878      	ldr	r0, [r7, #4]
 8001e5a:	f003 fd81 	bl	8005960 <strncmp>
 8001e5e:	4603      	mov	r3, r0
 8001e60:	2b00      	cmp	r3, #0
 8001e62:	d122      	bne.n	8001eaa <decodeCmd+0x23e>

		if(!calibrationEn) motorPos.yawPos += DELTA_POS;
 8001e64:	4b21      	ldr	r3, [pc, #132]	; (8001eec <decodeCmd+0x280>)
 8001e66:	781b      	ldrb	r3, [r3, #0]
 8001e68:	f083 0301 	eor.w	r3, r3, #1
 8001e6c:	b2db      	uxtb	r3, r3
 8001e6e:	2b00      	cmp	r3, #0
 8001e70:	d006      	beq.n	8001e80 <decodeCmd+0x214>
 8001e72:	4b21      	ldr	r3, [pc, #132]	; (8001ef8 <decodeCmd+0x28c>)
 8001e74:	889b      	ldrh	r3, [r3, #4]
 8001e76:	3346      	adds	r3, #70	; 0x46
 8001e78:	b29a      	uxth	r2, r3
 8001e7a:	4b1f      	ldr	r3, [pc, #124]	; (8001ef8 <decodeCmd+0x28c>)
 8001e7c:	809a      	strh	r2, [r3, #4]
 8001e7e:	e005      	b.n	8001e8c <decodeCmd+0x220>
		else motorPos.yawPos += CALDELTA_POS;
 8001e80:	4b1d      	ldr	r3, [pc, #116]	; (8001ef8 <decodeCmd+0x28c>)
 8001e82:	889b      	ldrh	r3, [r3, #4]
 8001e84:	330a      	adds	r3, #10
 8001e86:	b29a      	uxth	r2, r3
 8001e88:	4b1b      	ldr	r3, [pc, #108]	; (8001ef8 <decodeCmd+0x28c>)
 8001e8a:	809a      	strh	r2, [r3, #4]

		NormalizeRange(motorPos.yawPos, MAX_POS, MIN_POS);
 8001e8c:	4b1a      	ldr	r3, [pc, #104]	; (8001ef8 <decodeCmd+0x28c>)
 8001e8e:	889b      	ldrh	r3, [r3, #4]
 8001e90:	f640 427f 	movw	r2, #3199	; 0xc7f
 8001e94:	f641 01ff 	movw	r1, #6399	; 0x18ff
 8001e98:	4618      	mov	r0, r3
 8001e9a:	f000 f9b5 	bl	8002208 <NormalizeRange>
		TIM3->CCR4 = motorPos.yawPos;
 8001e9e:	4b16      	ldr	r3, [pc, #88]	; (8001ef8 <decodeCmd+0x28c>)
 8001ea0:	889a      	ldrh	r2, [r3, #4]
 8001ea2:	4b16      	ldr	r3, [pc, #88]	; (8001efc <decodeCmd+0x290>)
 8001ea4:	641a      	str	r2, [r3, #64]	; 0x40
		return RIGHT;
 8001ea6:	2303      	movs	r3, #3
 8001ea8:	e076      	b.n	8001f98 <decodeCmd+0x32c>
	}

	// Rotate left command
	if(strncmp(cmdString, "RLF\n", length) == 0){
 8001eaa:	683b      	ldr	r3, [r7, #0]
 8001eac:	461a      	mov	r2, r3
 8001eae:	4918      	ldr	r1, [pc, #96]	; (8001f10 <decodeCmd+0x2a4>)
 8001eb0:	6878      	ldr	r0, [r7, #4]
 8001eb2:	f003 fd55 	bl	8005960 <strncmp>
 8001eb6:	4603      	mov	r3, r0
 8001eb8:	2b00      	cmp	r3, #0
 8001eba:	d140      	bne.n	8001f3e <decodeCmd+0x2d2>

		if(!calibrationEn) motorPos.rollPos += DELTA_POS;
 8001ebc:	4b0b      	ldr	r3, [pc, #44]	; (8001eec <decodeCmd+0x280>)
 8001ebe:	781b      	ldrb	r3, [r3, #0]
 8001ec0:	f083 0301 	eor.w	r3, r3, #1
 8001ec4:	b2db      	uxtb	r3, r3
 8001ec6:	2b00      	cmp	r3, #0
 8001ec8:	d024      	beq.n	8001f14 <decodeCmd+0x2a8>
 8001eca:	4b0b      	ldr	r3, [pc, #44]	; (8001ef8 <decodeCmd+0x28c>)
 8001ecc:	885b      	ldrh	r3, [r3, #2]
 8001ece:	3346      	adds	r3, #70	; 0x46
 8001ed0:	b29a      	uxth	r2, r3
 8001ed2:	4b09      	ldr	r3, [pc, #36]	; (8001ef8 <decodeCmd+0x28c>)
 8001ed4:	805a      	strh	r2, [r3, #2]
 8001ed6:	e023      	b.n	8001f20 <decodeCmd+0x2b4>
 8001ed8:	20000690 	.word	0x20000690
 8001edc:	08006954 	.word	0x08006954
 8001ee0:	2000068e 	.word	0x2000068e
 8001ee4:	0800695c 	.word	0x0800695c
 8001ee8:	08006964 	.word	0x08006964
 8001eec:	2000068f 	.word	0x2000068f
 8001ef0:	0800696c 	.word	0x0800696c
 8001ef4:	08006974 	.word	0x08006974
 8001ef8:	20000554 	.word	0x20000554
 8001efc:	40000400 	.word	0x40000400
 8001f00:	08006978 	.word	0x08006978
 8001f04:	0800697c 	.word	0x0800697c
 8001f08:	08006980 	.word	0x08006980
 8001f0c:	08006984 	.word	0x08006984
 8001f10:	08006988 	.word	0x08006988
		else motorPos.rollPos += CALDELTA_POS;
 8001f14:	4b22      	ldr	r3, [pc, #136]	; (8001fa0 <decodeCmd+0x334>)
 8001f16:	885b      	ldrh	r3, [r3, #2]
 8001f18:	330a      	adds	r3, #10
 8001f1a:	b29a      	uxth	r2, r3
 8001f1c:	4b20      	ldr	r3, [pc, #128]	; (8001fa0 <decodeCmd+0x334>)
 8001f1e:	805a      	strh	r2, [r3, #2]

		NormalizeRange(motorPos.rollPos, MAX_POS, MIN_POS);
 8001f20:	4b1f      	ldr	r3, [pc, #124]	; (8001fa0 <decodeCmd+0x334>)
 8001f22:	885b      	ldrh	r3, [r3, #2]
 8001f24:	f640 427f 	movw	r2, #3199	; 0xc7f
 8001f28:	f641 01ff 	movw	r1, #6399	; 0x18ff
 8001f2c:	4618      	mov	r0, r3
 8001f2e:	f000 f96b 	bl	8002208 <NormalizeRange>
		TIM3->CCR1 = motorPos.rollPos;
 8001f32:	4b1b      	ldr	r3, [pc, #108]	; (8001fa0 <decodeCmd+0x334>)
 8001f34:	885a      	ldrh	r2, [r3, #2]
 8001f36:	4b1b      	ldr	r3, [pc, #108]	; (8001fa4 <decodeCmd+0x338>)
 8001f38:	635a      	str	r2, [r3, #52]	; 0x34
		return ROTATE_LEFT;
 8001f3a:	2304      	movs	r3, #4
 8001f3c:	e02c      	b.n	8001f98 <decodeCmd+0x32c>
	}
	// Rotate right command
	if(strncmp(cmdString, "RRH\n", length) == 0){
 8001f3e:	683b      	ldr	r3, [r7, #0]
 8001f40:	461a      	mov	r2, r3
 8001f42:	4919      	ldr	r1, [pc, #100]	; (8001fa8 <decodeCmd+0x33c>)
 8001f44:	6878      	ldr	r0, [r7, #4]
 8001f46:	f003 fd0b 	bl	8005960 <strncmp>
 8001f4a:	4603      	mov	r3, r0
 8001f4c:	2b00      	cmp	r3, #0
 8001f4e:	d122      	bne.n	8001f96 <decodeCmd+0x32a>

		if(!calibrationEn) motorPos.rollPos -= DELTA_POS;
 8001f50:	4b16      	ldr	r3, [pc, #88]	; (8001fac <decodeCmd+0x340>)
 8001f52:	781b      	ldrb	r3, [r3, #0]
 8001f54:	f083 0301 	eor.w	r3, r3, #1
 8001f58:	b2db      	uxtb	r3, r3
 8001f5a:	2b00      	cmp	r3, #0
 8001f5c:	d006      	beq.n	8001f6c <decodeCmd+0x300>
 8001f5e:	4b10      	ldr	r3, [pc, #64]	; (8001fa0 <decodeCmd+0x334>)
 8001f60:	885b      	ldrh	r3, [r3, #2]
 8001f62:	3b46      	subs	r3, #70	; 0x46
 8001f64:	b29a      	uxth	r2, r3
 8001f66:	4b0e      	ldr	r3, [pc, #56]	; (8001fa0 <decodeCmd+0x334>)
 8001f68:	805a      	strh	r2, [r3, #2]
 8001f6a:	e005      	b.n	8001f78 <decodeCmd+0x30c>
		else motorPos.rollPos -= CALDELTA_POS;
 8001f6c:	4b0c      	ldr	r3, [pc, #48]	; (8001fa0 <decodeCmd+0x334>)
 8001f6e:	885b      	ldrh	r3, [r3, #2]
 8001f70:	3b0a      	subs	r3, #10
 8001f72:	b29a      	uxth	r2, r3
 8001f74:	4b0a      	ldr	r3, [pc, #40]	; (8001fa0 <decodeCmd+0x334>)
 8001f76:	805a      	strh	r2, [r3, #2]

		NormalizeRange(motorPos.rollPos, MAX_POS, MIN_POS);
 8001f78:	4b09      	ldr	r3, [pc, #36]	; (8001fa0 <decodeCmd+0x334>)
 8001f7a:	885b      	ldrh	r3, [r3, #2]
 8001f7c:	f640 427f 	movw	r2, #3199	; 0xc7f
 8001f80:	f641 01ff 	movw	r1, #6399	; 0x18ff
 8001f84:	4618      	mov	r0, r3
 8001f86:	f000 f93f 	bl	8002208 <NormalizeRange>
		TIM3->CCR1 = motorPos.rollPos;
 8001f8a:	4b05      	ldr	r3, [pc, #20]	; (8001fa0 <decodeCmd+0x334>)
 8001f8c:	885a      	ldrh	r2, [r3, #2]
 8001f8e:	4b05      	ldr	r3, [pc, #20]	; (8001fa4 <decodeCmd+0x338>)
 8001f90:	635a      	str	r2, [r3, #52]	; 0x34
		return ROTATE_RIGHT;
 8001f92:	2305      	movs	r3, #5
 8001f94:	e000      	b.n	8001f98 <decodeCmd+0x32c>
	}
	return NA;
 8001f96:	230b      	movs	r3, #11
}
 8001f98:	4618      	mov	r0, r3
 8001f9a:	3708      	adds	r7, #8
 8001f9c:	46bd      	mov	sp, r7
 8001f9e:	bd80      	pop	{r7, pc}
 8001fa0:	20000554 	.word	0x20000554
 8001fa4:	40000400 	.word	0x40000400
 8001fa8:	08006990 	.word	0x08006990
 8001fac:	2000068f 	.word	0x2000068f

08001fb0 <applyControlLaw>:
 * arguments
 * @param x	Optical flow value in horizontal direction
 * @param y Optical flow value in vertical direction
 * @param rotation	Optical flow value which indicates the rotation
 */
void applyControlLaw(frameStruct * frame, ControlLawModeTypeDef mode){
 8001fb0:	b590      	push	{r4, r7, lr}
 8001fb2:	b089      	sub	sp, #36	; 0x24
 8001fb4:	af00      	add	r7, sp, #0
 8001fb6:	6078      	str	r0, [r7, #4]
 8001fb8:	460b      	mov	r3, r1
 8001fba:	70fb      	strb	r3, [r7, #3]
	int x, y, rotation;
	int deltaPitch, deltaRoll, deltaYaw;

	if(!trackingEn) return;
 8001fbc:	4b6e      	ldr	r3, [pc, #440]	; (8002178 <applyControlLaw+0x1c8>)
 8001fbe:	781b      	ldrb	r3, [r3, #0]
 8001fc0:	f083 0301 	eor.w	r3, r3, #1
 8001fc4:	b2db      	uxtb	r3, r3
 8001fc6:	2b00      	cmp	r3, #0
 8001fc8:	f040 80d1 	bne.w	800216e <applyControlLaw+0x1be>

	// Integrate values
	switch(mode){
 8001fcc:	78fb      	ldrb	r3, [r7, #3]
 8001fce:	2b01      	cmp	r3, #1
 8001fd0:	d00e      	beq.n	8001ff0 <applyControlLaw+0x40>
 8001fd2:	2b02      	cmp	r3, #2
 8001fd4:	d017      	beq.n	8002006 <applyControlLaw+0x56>
 8001fd6:	2b00      	cmp	r3, #0
 8001fd8:	d122      	bne.n	8002020 <applyControlLaw+0x70>
	case LEFT_ONLY:
		x = frame->oFLeft.x;
 8001fda:	687b      	ldr	r3, [r7, #4]
 8001fdc:	f8d3 3295 	ldr.w	r3, [r3, #661]	; 0x295
 8001fe0:	613b      	str	r3, [r7, #16]
		y = frame->oFLeft.y;
 8001fe2:	687b      	ldr	r3, [r7, #4]
 8001fe4:	f8d3 3299 	ldr.w	r3, [r3, #665]	; 0x299
 8001fe8:	60fb      	str	r3, [r7, #12]
		rotation = 0;
 8001fea:	2300      	movs	r3, #0
 8001fec:	60bb      	str	r3, [r7, #8]
		break;
 8001fee:	e017      	b.n	8002020 <applyControlLaw+0x70>
	case RIGHT_ONLY:
		x = frame->oFRight.x;
 8001ff0:	687b      	ldr	r3, [r7, #4]
 8001ff2:	f8d3 328d 	ldr.w	r3, [r3, #653]	; 0x28d
 8001ff6:	613b      	str	r3, [r7, #16]
		y = frame->oFRight.y;
 8001ff8:	687b      	ldr	r3, [r7, #4]
 8001ffa:	f8d3 3291 	ldr.w	r3, [r3, #657]	; 0x291
 8001ffe:	60fb      	str	r3, [r7, #12]
		rotation = 0;
 8002000:	2300      	movs	r3, #0
 8002002:	60bb      	str	r3, [r7, #8]
		break;
 8002004:	e00c      	b.n	8002020 <applyControlLaw+0x70>
	case ALL:
		x = frame->oFFused.x;
 8002006:	687b      	ldr	r3, [r7, #4]
 8002008:	f8d3 329d 	ldr.w	r3, [r3, #669]	; 0x29d
 800200c:	613b      	str	r3, [r7, #16]
		y = frame->oFFused.y;
 800200e:	687b      	ldr	r3, [r7, #4]
 8002010:	f8d3 32a1 	ldr.w	r3, [r3, #673]	; 0x2a1
 8002014:	60fb      	str	r3, [r7, #12]
		rotation = frame->oFFused.theta;
 8002016:	687b      	ldr	r3, [r7, #4]
 8002018:	f8d3 32a5 	ldr.w	r3, [r3, #677]	; 0x2a5
 800201c:	60bb      	str	r3, [r7, #8]
		break;
 800201e:	bf00      	nop
	}

	RemoveNoise(&x, &y, &rotation);
 8002020:	f107 0208 	add.w	r2, r7, #8
 8002024:	f107 010c 	add.w	r1, r7, #12
 8002028:	f107 0310 	add.w	r3, r7, #16
 800202c:	4618      	mov	r0, r3
 800202e:	f000 f904 	bl	800223a <RemoveNoise>

	xSum += x;
 8002032:	4b52      	ldr	r3, [pc, #328]	; (800217c <applyControlLaw+0x1cc>)
 8002034:	681a      	ldr	r2, [r3, #0]
 8002036:	693b      	ldr	r3, [r7, #16]
 8002038:	4413      	add	r3, r2
 800203a:	4a50      	ldr	r2, [pc, #320]	; (800217c <applyControlLaw+0x1cc>)
 800203c:	6013      	str	r3, [r2, #0]
	ySum += y;
 800203e:	4b50      	ldr	r3, [pc, #320]	; (8002180 <applyControlLaw+0x1d0>)
 8002040:	681a      	ldr	r2, [r3, #0]
 8002042:	68fb      	ldr	r3, [r7, #12]
 8002044:	4413      	add	r3, r2
 8002046:	4a4e      	ldr	r2, [pc, #312]	; (8002180 <applyControlLaw+0x1d0>)
 8002048:	6013      	str	r3, [r2, #0]
	rotationSum += rotation;
 800204a:	4b4e      	ldr	r3, [pc, #312]	; (8002184 <applyControlLaw+0x1d4>)
 800204c:	681a      	ldr	r2, [r3, #0]
 800204e:	68bb      	ldr	r3, [r7, #8]
 8002050:	4413      	add	r3, r2
 8002052:	4a4c      	ldr	r2, [pc, #304]	; (8002184 <applyControlLaw+0x1d4>)
 8002054:	6013      	str	r3, [r2, #0]

	// Integral windup
	if(abs(ySum) > PITCH_WINDUP) ySum = 0;
 8002056:	4b4a      	ldr	r3, [pc, #296]	; (8002180 <applyControlLaw+0x1d0>)
 8002058:	681b      	ldr	r3, [r3, #0]
 800205a:	2b00      	cmp	r3, #0
 800205c:	bfb8      	it	lt
 800205e:	425b      	neglt	r3, r3
 8002060:	f5b3 7f96 	cmp.w	r3, #300	; 0x12c
 8002064:	dd02      	ble.n	800206c <applyControlLaw+0xbc>
 8002066:	4b46      	ldr	r3, [pc, #280]	; (8002180 <applyControlLaw+0x1d0>)
 8002068:	2200      	movs	r2, #0
 800206a:	601a      	str	r2, [r3, #0]
	if(abs(rotationSum) > ROLL_WINDUP) rotationSum = 0;
 800206c:	4b45      	ldr	r3, [pc, #276]	; (8002184 <applyControlLaw+0x1d4>)
 800206e:	681b      	ldr	r3, [r3, #0]
 8002070:	2b00      	cmp	r3, #0
 8002072:	bfb8      	it	lt
 8002074:	425b      	neglt	r3, r3
 8002076:	f5b3 7f96 	cmp.w	r3, #300	; 0x12c
 800207a:	dd02      	ble.n	8002082 <applyControlLaw+0xd2>
 800207c:	4b41      	ldr	r3, [pc, #260]	; (8002184 <applyControlLaw+0x1d4>)
 800207e:	2200      	movs	r2, #0
 8002080:	601a      	str	r2, [r3, #0]
	if(abs(xSum) > YAW_WINDUP) xSum = 0;
 8002082:	4b3e      	ldr	r3, [pc, #248]	; (800217c <applyControlLaw+0x1cc>)
 8002084:	681b      	ldr	r3, [r3, #0]
 8002086:	2b00      	cmp	r3, #0
 8002088:	bfb8      	it	lt
 800208a:	425b      	neglt	r3, r3
 800208c:	f5b3 7f96 	cmp.w	r3, #300	; 0x12c
 8002090:	dd02      	ble.n	8002098 <applyControlLaw+0xe8>
 8002092:	4b3a      	ldr	r3, [pc, #232]	; (800217c <applyControlLaw+0x1cc>)
 8002094:	2200      	movs	r2, #0
 8002096:	601a      	str	r2, [r3, #0]

	// PID implementation
	deltaYaw = (float)(x * YAW_P) + (float)(xSum * YAW_I) + (float)((x - xLast) * YAW_D);
 8002098:	693b      	ldr	r3, [r7, #16]
 800209a:	4618      	mov	r0, r3
 800209c:	f7fe fa3a 	bl	8000514 <__aeabi_i2d>
 80020a0:	f04f 0200 	mov.w	r2, #0
 80020a4:	4b38      	ldr	r3, [pc, #224]	; (8002188 <applyControlLaw+0x1d8>)
 80020a6:	f7fe fa9f 	bl	80005e8 <__aeabi_dmul>
 80020aa:	4603      	mov	r3, r0
 80020ac:	460c      	mov	r4, r1
 80020ae:	4618      	mov	r0, r3
 80020b0:	4621      	mov	r1, r4
 80020b2:	f7fe fcab 	bl	8000a0c <__aeabi_d2f>
 80020b6:	ee07 0a10 	vmov	s14, r0
 80020ba:	eddf 7a34 	vldr	s15, [pc, #208]	; 800218c <applyControlLaw+0x1dc>
 80020be:	ee77 7a27 	vadd.f32	s15, s14, s15
 80020c2:	ed9f 7a32 	vldr	s14, [pc, #200]	; 800218c <applyControlLaw+0x1dc>
 80020c6:	ee77 7a87 	vadd.f32	s15, s15, s14
 80020ca:	eefd 7ae7 	vcvt.s32.f32	s15, s15
 80020ce:	ee17 3a90 	vmov	r3, s15
 80020d2:	61fb      	str	r3, [r7, #28]
	deltaPitch = y * PITCH_P + ySum * PITCH_I + (y - yLast) * PITCH_D;
 80020d4:	2300      	movs	r3, #0
 80020d6:	61bb      	str	r3, [r7, #24]
	deltaRoll = rotation * ROLL_P + rotationSum *  ROLL_I +
 80020d8:	2300      	movs	r3, #0
 80020da:	617b      	str	r3, [r7, #20]

	// Avoid small changes in computed values
//	if(abs(deltaYaw)>=DELTALIMIT) motorPos.yawPos +=deltaYaw;
//	if(abs(deltaPitch)>=DELTALIMIT) motorPos.pitchPos +=deltaPitch;
//	if(abs(deltaRoll)>=DELTALIMIT) motorPos.rollPos +=deltaRoll;
	motorPos.yawPos +=deltaYaw;
 80020dc:	4b2c      	ldr	r3, [pc, #176]	; (8002190 <applyControlLaw+0x1e0>)
 80020de:	889a      	ldrh	r2, [r3, #4]
 80020e0:	69fb      	ldr	r3, [r7, #28]
 80020e2:	b29b      	uxth	r3, r3
 80020e4:	4413      	add	r3, r2
 80020e6:	b29a      	uxth	r2, r3
 80020e8:	4b29      	ldr	r3, [pc, #164]	; (8002190 <applyControlLaw+0x1e0>)
 80020ea:	809a      	strh	r2, [r3, #4]
	motorPos.pitchPos +=deltaPitch;
 80020ec:	4b28      	ldr	r3, [pc, #160]	; (8002190 <applyControlLaw+0x1e0>)
 80020ee:	881a      	ldrh	r2, [r3, #0]
 80020f0:	69bb      	ldr	r3, [r7, #24]
 80020f2:	b29b      	uxth	r3, r3
 80020f4:	4413      	add	r3, r2
 80020f6:	b29a      	uxth	r2, r3
 80020f8:	4b25      	ldr	r3, [pc, #148]	; (8002190 <applyControlLaw+0x1e0>)
 80020fa:	801a      	strh	r2, [r3, #0]
	motorPos.rollPos +=deltaRoll;
 80020fc:	4b24      	ldr	r3, [pc, #144]	; (8002190 <applyControlLaw+0x1e0>)
 80020fe:	885a      	ldrh	r2, [r3, #2]
 8002100:	697b      	ldr	r3, [r7, #20]
 8002102:	b29b      	uxth	r3, r3
 8002104:	4413      	add	r3, r2
 8002106:	b29a      	uxth	r2, r3
 8002108:	4b21      	ldr	r3, [pc, #132]	; (8002190 <applyControlLaw+0x1e0>)
 800210a:	805a      	strh	r2, [r3, #2]

	// Check the signals are in the proper range
	NormalizeRange(motorPos.pitchPos, MAX_POS, MIN_POS);
 800210c:	4b20      	ldr	r3, [pc, #128]	; (8002190 <applyControlLaw+0x1e0>)
 800210e:	881b      	ldrh	r3, [r3, #0]
 8002110:	f640 427f 	movw	r2, #3199	; 0xc7f
 8002114:	f641 01ff 	movw	r1, #6399	; 0x18ff
 8002118:	4618      	mov	r0, r3
 800211a:	f000 f875 	bl	8002208 <NormalizeRange>
	NormalizeRange(motorPos.rollPos, MAX_POS, MIN_POS);
 800211e:	4b1c      	ldr	r3, [pc, #112]	; (8002190 <applyControlLaw+0x1e0>)
 8002120:	885b      	ldrh	r3, [r3, #2]
 8002122:	f640 427f 	movw	r2, #3199	; 0xc7f
 8002126:	f641 01ff 	movw	r1, #6399	; 0x18ff
 800212a:	4618      	mov	r0, r3
 800212c:	f000 f86c 	bl	8002208 <NormalizeRange>
	NormalizeRange(motorPos.yawPos, MAX_POS, MIN_POS);
 8002130:	4b17      	ldr	r3, [pc, #92]	; (8002190 <applyControlLaw+0x1e0>)
 8002132:	889b      	ldrh	r3, [r3, #4]
 8002134:	f640 427f 	movw	r2, #3199	; 0xc7f
 8002138:	f641 01ff 	movw	r1, #6399	; 0x18ff
 800213c:	4618      	mov	r0, r3
 800213e:	f000 f863 	bl	8002208 <NormalizeRange>

	// RC control signals generation
	TIM3->CCR1 = motorPos.rollPos;
 8002142:	4b13      	ldr	r3, [pc, #76]	; (8002190 <applyControlLaw+0x1e0>)
 8002144:	885a      	ldrh	r2, [r3, #2]
 8002146:	4b13      	ldr	r3, [pc, #76]	; (8002194 <applyControlLaw+0x1e4>)
 8002148:	635a      	str	r2, [r3, #52]	; 0x34
	TIM3->CCR2 = motorPos.pitchPos;
 800214a:	4b11      	ldr	r3, [pc, #68]	; (8002190 <applyControlLaw+0x1e0>)
 800214c:	881a      	ldrh	r2, [r3, #0]
 800214e:	4b11      	ldr	r3, [pc, #68]	; (8002194 <applyControlLaw+0x1e4>)
 8002150:	639a      	str	r2, [r3, #56]	; 0x38
	TIM3->CCR4 = motorPos.yawPos;
 8002152:	4b0f      	ldr	r3, [pc, #60]	; (8002190 <applyControlLaw+0x1e0>)
 8002154:	889a      	ldrh	r2, [r3, #4]
 8002156:	4b0f      	ldr	r3, [pc, #60]	; (8002194 <applyControlLaw+0x1e4>)
 8002158:	641a      	str	r2, [r3, #64]	; 0x40

	// Save values to differentiation
	xLast = x;
 800215a:	693b      	ldr	r3, [r7, #16]
 800215c:	4a0e      	ldr	r2, [pc, #56]	; (8002198 <applyControlLaw+0x1e8>)
 800215e:	6013      	str	r3, [r2, #0]
	yLast = y;
 8002160:	68fb      	ldr	r3, [r7, #12]
 8002162:	4a0e      	ldr	r2, [pc, #56]	; (800219c <applyControlLaw+0x1ec>)
 8002164:	6013      	str	r3, [r2, #0]
	rotationLast = rotation;
 8002166:	68bb      	ldr	r3, [r7, #8]
 8002168:	4a0d      	ldr	r2, [pc, #52]	; (80021a0 <applyControlLaw+0x1f0>)
 800216a:	6013      	str	r3, [r2, #0]
 800216c:	e000      	b.n	8002170 <applyControlLaw+0x1c0>
	if(!trackingEn) return;
 800216e:	bf00      	nop
}
 8002170:	3724      	adds	r7, #36	; 0x24
 8002172:	46bd      	mov	sp, r7
 8002174:	bd90      	pop	{r4, r7, pc}
 8002176:	bf00      	nop
 8002178:	2000068e 	.word	0x2000068e
 800217c:	200005f8 	.word	0x200005f8
 8002180:	200005fc 	.word	0x200005fc
 8002184:	20000600 	.word	0x20000600
 8002188:	3fd00000 	.word	0x3fd00000
 800218c:	00000000 	.word	0x00000000
 8002190:	20000554 	.word	0x20000554
 8002194:	40000400 	.word	0x40000400
 8002198:	20000604 	.word	0x20000604
 800219c:	20000608 	.word	0x20000608
 80021a0:	2000060c 	.word	0x2000060c

080021a4 <IsTrackingEnable>:

/**
 * @brief	Check if tracking function is enable/disable
 * @return	True if the tracking function is enable, False if it is disable
 */
bool IsTrackingEnable(){
 80021a4:	b480      	push	{r7}
 80021a6:	af00      	add	r7, sp, #0
	return trackingEn;
 80021a8:	4b03      	ldr	r3, [pc, #12]	; (80021b8 <IsTrackingEnable+0x14>)
 80021aa:	781b      	ldrb	r3, [r3, #0]
}
 80021ac:	4618      	mov	r0, r3
 80021ae:	46bd      	mov	sp, r7
 80021b0:	f85d 7b04 	ldr.w	r7, [sp], #4
 80021b4:	4770      	bx	lr
 80021b6:	bf00      	nop
 80021b8:	2000068e 	.word	0x2000068e

080021bc <enablePWM>:

/**
 * @brief	Enable RC (PWM) signal generation
 */
void enablePWM(){
 80021bc:	b480      	push	{r7}
 80021be:	af00      	add	r7, sp, #0
	// Enable output compare OCx channels
	//SET_BIT(TIM3->CCER, TIM_CCER_CC4E);
	MODIFY_REG(TIM3->CCER, ~(TIM_CCER_CC1NE | TIM_CCER_CC2NE),
 80021c0:	4b0f      	ldr	r3, [pc, #60]	; (8002200 <enablePWM+0x44>)
 80021c2:	6a1b      	ldr	r3, [r3, #32]
 80021c4:	f003 0344 	and.w	r3, r3, #68	; 0x44
 80021c8:	4a0d      	ldr	r2, [pc, #52]	; (8002200 <enablePWM+0x44>)
 80021ca:	f443 5380 	orr.w	r3, r3, #4096	; 0x1000
 80021ce:	f043 0311 	orr.w	r3, r3, #17
 80021d2:	6213      	str	r3, [r2, #32]
			(TIM_CCER_CC1E | TIM_CCER_CC2E | TIM_CCER_CC4E));

	// Enable master output
	MODIFY_REG(TIM3->BDTR, ~(TIM_BDTR_OSSI | TIM_BDTR_OSSR), TIM_BDTR_MOE);
 80021d4:	4b0a      	ldr	r3, [pc, #40]	; (8002200 <enablePWM+0x44>)
 80021d6:	6c5b      	ldr	r3, [r3, #68]	; 0x44
 80021d8:	f403 6340 	and.w	r3, r3, #3072	; 0xc00
 80021dc:	4a08      	ldr	r2, [pc, #32]	; (8002200 <enablePWM+0x44>)
 80021de:	f443 4300 	orr.w	r3, r3, #32768	; 0x8000
 80021e2:	6453      	str	r3, [r2, #68]	; 0x44

	// Enable counter
	SET_BIT(TIM3->CR1, TIM_CR1_CEN);
 80021e4:	4b06      	ldr	r3, [pc, #24]	; (8002200 <enablePWM+0x44>)
 80021e6:	681b      	ldr	r3, [r3, #0]
 80021e8:	4a05      	ldr	r2, [pc, #20]	; (8002200 <enablePWM+0x44>)
 80021ea:	f043 0301 	orr.w	r3, r3, #1
 80021ee:	6013      	str	r3, [r2, #0]

	pwmEn = true;
 80021f0:	4b04      	ldr	r3, [pc, #16]	; (8002204 <enablePWM+0x48>)
 80021f2:	2201      	movs	r2, #1
 80021f4:	701a      	strb	r2, [r3, #0]
}
 80021f6:	bf00      	nop
 80021f8:	46bd      	mov	sp, r7
 80021fa:	f85d 7b04 	ldr.w	r7, [sp], #4
 80021fe:	4770      	bx	lr
 8002200:	40000400 	.word	0x40000400
 8002204:	20000690 	.word	0x20000690

08002208 <NormalizeRange>:
 * @brief	Avoid out of range values in RC signals
 * @param value	Current value of signal
 * @param MaxRange	Maximum value for signal
 * @param MinRange	Minimum value for signal
 */
void NormalizeRange(int value, int MaxRange, int MinRange){
 8002208:	b480      	push	{r7}
 800220a:	b085      	sub	sp, #20
 800220c:	af00      	add	r7, sp, #0
 800220e:	60f8      	str	r0, [r7, #12]
 8002210:	60b9      	str	r1, [r7, #8]
 8002212:	607a      	str	r2, [r7, #4]
	if(value > MaxRange){
 8002214:	68fa      	ldr	r2, [r7, #12]
 8002216:	68bb      	ldr	r3, [r7, #8]
 8002218:	429a      	cmp	r2, r3
 800221a:	dd02      	ble.n	8002222 <NormalizeRange+0x1a>
		value = MaxRange;
 800221c:	68bb      	ldr	r3, [r7, #8]
 800221e:	60fb      	str	r3, [r7, #12]
	}
	else if(value < MinRange){
		value = MinRange;
	}
}
 8002220:	e005      	b.n	800222e <NormalizeRange+0x26>
	else if(value < MinRange){
 8002222:	68fa      	ldr	r2, [r7, #12]
 8002224:	687b      	ldr	r3, [r7, #4]
 8002226:	429a      	cmp	r2, r3
 8002228:	da01      	bge.n	800222e <NormalizeRange+0x26>
		value = MinRange;
 800222a:	687b      	ldr	r3, [r7, #4]
 800222c:	60fb      	str	r3, [r7, #12]
}
 800222e:	bf00      	nop
 8002230:	3714      	adds	r7, #20
 8002232:	46bd      	mov	sp, r7
 8002234:	f85d 7b04 	ldr.w	r7, [sp], #4
 8002238:	4770      	bx	lr

0800223a <RemoveNoise>:
 * Remove signal noise in OF signal
 * @param y
 * @param y
 * @param rotation
 */
void RemoveNoise(int * x, int *y, int * rotation){
 800223a:	b480      	push	{r7}
 800223c:	b085      	sub	sp, #20
 800223e:	af00      	add	r7, sp, #0
 8002240:	60f8      	str	r0, [r7, #12]
 8002242:	60b9      	str	r1, [r7, #8]
 8002244:	607a      	str	r2, [r7, #4]
	if(abs(*x)<=DELTALIMIT) *x=0;
 8002246:	68fb      	ldr	r3, [r7, #12]
 8002248:	681b      	ldr	r3, [r3, #0]
 800224a:	f113 0f1e 	cmn.w	r3, #30
 800224e:	db06      	blt.n	800225e <RemoveNoise+0x24>
 8002250:	68fb      	ldr	r3, [r7, #12]
 8002252:	681b      	ldr	r3, [r3, #0]
 8002254:	2b1e      	cmp	r3, #30
 8002256:	dc02      	bgt.n	800225e <RemoveNoise+0x24>
 8002258:	68fb      	ldr	r3, [r7, #12]
 800225a:	2200      	movs	r2, #0
 800225c:	601a      	str	r2, [r3, #0]
	if(abs(*y)<=DELTALIMIT) *y=0;
 800225e:	68bb      	ldr	r3, [r7, #8]
 8002260:	681b      	ldr	r3, [r3, #0]
 8002262:	f113 0f1e 	cmn.w	r3, #30
 8002266:	db06      	blt.n	8002276 <RemoveNoise+0x3c>
 8002268:	68bb      	ldr	r3, [r7, #8]
 800226a:	681b      	ldr	r3, [r3, #0]
 800226c:	2b1e      	cmp	r3, #30
 800226e:	dc02      	bgt.n	8002276 <RemoveNoise+0x3c>
 8002270:	68bb      	ldr	r3, [r7, #8]
 8002272:	2200      	movs	r2, #0
 8002274:	601a      	str	r2, [r3, #0]
	if(abs(*rotation)<=DELTALIMIT) *rotation=0;
 8002276:	687b      	ldr	r3, [r7, #4]
 8002278:	681b      	ldr	r3, [r3, #0]
 800227a:	f113 0f1e 	cmn.w	r3, #30
 800227e:	db06      	blt.n	800228e <RemoveNoise+0x54>
 8002280:	687b      	ldr	r3, [r7, #4]
 8002282:	681b      	ldr	r3, [r3, #0]
 8002284:	2b1e      	cmp	r3, #30
 8002286:	dc02      	bgt.n	800228e <RemoveNoise+0x54>
 8002288:	687b      	ldr	r3, [r7, #4]
 800228a:	2200      	movs	r2, #0
 800228c:	601a      	str	r2, [r3, #0]
}
 800228e:	bf00      	nop
 8002290:	3714      	adds	r7, #20
 8002292:	46bd      	mov	sp, r7
 8002294:	f85d 7b04 	ldr.w	r7, [sp], #4
 8002298:	4770      	bx	lr
	...

0800229c <USART2_IRQHandler>:

void USART2_IRQHandler(void){
 800229c:	b580      	push	{r7, lr}
 800229e:	af00      	add	r7, sp, #0
	static char bufferIn[BUFFER_SIZE];
	static int i = 0;

	if(READ_BIT(USART2->ISR, USART_ISR_ORE)){
 80022a0:	4b22      	ldr	r3, [pc, #136]	; (800232c <USART2_IRQHandler+0x90>)
 80022a2:	69db      	ldr	r3, [r3, #28]
 80022a4:	f003 0308 	and.w	r3, r3, #8
 80022a8:	2b00      	cmp	r3, #0
 80022aa:	d00d      	beq.n	80022c8 <USART2_IRQHandler+0x2c>
		SET_BIT(USART2->ICR, USART_ICR_ORECF);
 80022ac:	4b1f      	ldr	r3, [pc, #124]	; (800232c <USART2_IRQHandler+0x90>)
 80022ae:	6a1b      	ldr	r3, [r3, #32]
 80022b0:	4a1e      	ldr	r2, [pc, #120]	; (800232c <USART2_IRQHandler+0x90>)
 80022b2:	f043 0308 	orr.w	r3, r3, #8
 80022b6:	6213      	str	r3, [r2, #32]
		// Flush all data in USART RX
		SET_BIT(USART2->RQR, USART_RQR_RXFRQ);
 80022b8:	4b1c      	ldr	r3, [pc, #112]	; (800232c <USART2_IRQHandler+0x90>)
 80022ba:	8b1b      	ldrh	r3, [r3, #24]
 80022bc:	b29b      	uxth	r3, r3
 80022be:	4a1b      	ldr	r2, [pc, #108]	; (800232c <USART2_IRQHandler+0x90>)
 80022c0:	f043 0308 	orr.w	r3, r3, #8
 80022c4:	b29b      	uxth	r3, r3
 80022c6:	8313      	strh	r3, [r2, #24]
	}
	if(READ_BIT(USART2->ISR, USART_ISR_RXNE)){
 80022c8:	4b18      	ldr	r3, [pc, #96]	; (800232c <USART2_IRQHandler+0x90>)
 80022ca:	69db      	ldr	r3, [r3, #28]
 80022cc:	f003 0320 	and.w	r3, r3, #32
 80022d0:	2b00      	cmp	r3, #0
 80022d2:	d029      	beq.n	8002328 <USART2_IRQHandler+0x8c>
		bufferIn[i] = READ_REG(USART2->RDR);
 80022d4:	4b15      	ldr	r3, [pc, #84]	; (800232c <USART2_IRQHandler+0x90>)
 80022d6:	8c9b      	ldrh	r3, [r3, #36]	; 0x24
 80022d8:	b29a      	uxth	r2, r3
 80022da:	4b15      	ldr	r3, [pc, #84]	; (8002330 <USART2_IRQHandler+0x94>)
 80022dc:	681b      	ldr	r3, [r3, #0]
 80022de:	b2d1      	uxtb	r1, r2
 80022e0:	4a14      	ldr	r2, [pc, #80]	; (8002334 <USART2_IRQHandler+0x98>)
 80022e2:	54d1      	strb	r1, [r2, r3]

		if(bufferIn[i] == TAIL_CHAR){
 80022e4:	4b12      	ldr	r3, [pc, #72]	; (8002330 <USART2_IRQHandler+0x94>)
 80022e6:	681b      	ldr	r3, [r3, #0]
 80022e8:	4a12      	ldr	r2, [pc, #72]	; (8002334 <USART2_IRQHandler+0x98>)
 80022ea:	5cd3      	ldrb	r3, [r2, r3]
 80022ec:	2b0a      	cmp	r3, #10
 80022ee:	d10e      	bne.n	800230e <USART2_IRQHandler+0x72>
			i++;
 80022f0:	4b0f      	ldr	r3, [pc, #60]	; (8002330 <USART2_IRQHandler+0x94>)
 80022f2:	681b      	ldr	r3, [r3, #0]
 80022f4:	3301      	adds	r3, #1
 80022f6:	4a0e      	ldr	r2, [pc, #56]	; (8002330 <USART2_IRQHandler+0x94>)
 80022f8:	6013      	str	r3, [r2, #0]
			decodeCmd(bufferIn, i);
 80022fa:	4b0d      	ldr	r3, [pc, #52]	; (8002330 <USART2_IRQHandler+0x94>)
 80022fc:	681b      	ldr	r3, [r3, #0]
 80022fe:	4619      	mov	r1, r3
 8002300:	480c      	ldr	r0, [pc, #48]	; (8002334 <USART2_IRQHandler+0x98>)
 8002302:	f7ff fcb3 	bl	8001c6c <decodeCmd>
			i = 0;
 8002306:	4b0a      	ldr	r3, [pc, #40]	; (8002330 <USART2_IRQHandler+0x94>)
 8002308:	2200      	movs	r2, #0
 800230a:	601a      	str	r2, [r3, #0]
		else{
			i++;
		}
	}

}
 800230c:	e00c      	b.n	8002328 <USART2_IRQHandler+0x8c>
		else if(i ==  BUFFER_SIZE){
 800230e:	4b08      	ldr	r3, [pc, #32]	; (8002330 <USART2_IRQHandler+0x94>)
 8002310:	681b      	ldr	r3, [r3, #0]
 8002312:	2b0a      	cmp	r3, #10
 8002314:	d103      	bne.n	800231e <USART2_IRQHandler+0x82>
			i = 0;
 8002316:	4b06      	ldr	r3, [pc, #24]	; (8002330 <USART2_IRQHandler+0x94>)
 8002318:	2200      	movs	r2, #0
 800231a:	601a      	str	r2, [r3, #0]
}
 800231c:	e004      	b.n	8002328 <USART2_IRQHandler+0x8c>
			i++;
 800231e:	4b04      	ldr	r3, [pc, #16]	; (8002330 <USART2_IRQHandler+0x94>)
 8002320:	681b      	ldr	r3, [r3, #0]
 8002322:	3301      	adds	r3, #1
 8002324:	4a02      	ldr	r2, [pc, #8]	; (8002330 <USART2_IRQHandler+0x94>)
 8002326:	6013      	str	r3, [r2, #0]
}
 8002328:	bf00      	nop
 800232a:	bd80      	pop	{r7, pc}
 800232c:	40004400 	.word	0x40004400
 8002330:	20000610 	.word	0x20000610
 8002334:	20000614 	.word	0x20000614

08002338 <LL_AHB2_GRP1_EnableClock>:
  *
  *         (*) value not defined in all devices.
  * @retval None
*/
__STATIC_INLINE void LL_AHB2_GRP1_EnableClock(uint32_t Periphs)
{
 8002338:	b480      	push	{r7}
 800233a:	b085      	sub	sp, #20
 800233c:	af00      	add	r7, sp, #0
 800233e:	6078      	str	r0, [r7, #4]
  __IO uint32_t tmpreg;
  SET_BIT(RCC->AHB2ENR, Periphs);
 8002340:	4b08      	ldr	r3, [pc, #32]	; (8002364 <LL_AHB2_GRP1_EnableClock+0x2c>)
 8002342:	6cda      	ldr	r2, [r3, #76]	; 0x4c
 8002344:	4907      	ldr	r1, [pc, #28]	; (8002364 <LL_AHB2_GRP1_EnableClock+0x2c>)
 8002346:	687b      	ldr	r3, [r7, #4]
 8002348:	4313      	orrs	r3, r2
 800234a:	64cb      	str	r3, [r1, #76]	; 0x4c
  /* Delay after an RCC peripheral clock enabling */
  tmpreg = READ_BIT(RCC->AHB2ENR, Periphs);
 800234c:	4b05      	ldr	r3, [pc, #20]	; (8002364 <LL_AHB2_GRP1_EnableClock+0x2c>)
 800234e:	6cda      	ldr	r2, [r3, #76]	; 0x4c
 8002350:	687b      	ldr	r3, [r7, #4]
 8002352:	4013      	ands	r3, r2
 8002354:	60fb      	str	r3, [r7, #12]
  (void)tmpreg;
 8002356:	68fb      	ldr	r3, [r7, #12]
}
 8002358:	bf00      	nop
 800235a:	3714      	adds	r7, #20
 800235c:	46bd      	mov	sp, r7
 800235e:	f85d 7b04 	ldr.w	r7, [sp], #4
 8002362:	4770      	bx	lr
 8002364:	40021000 	.word	0x40021000

08002368 <LL_SYSCFG_SetEXTISource>:
  *         @arg @ref LL_SYSCFG_EXTI_LINE14
  *         @arg @ref LL_SYSCFG_EXTI_LINE15
  * @retval None
  */
__STATIC_INLINE void LL_SYSCFG_SetEXTISource(uint32_t Port, uint32_t Line)
{
 8002368:	b480      	push	{r7}
 800236a:	b087      	sub	sp, #28
 800236c:	af00      	add	r7, sp, #0
 800236e:	6078      	str	r0, [r7, #4]
 8002370:	6039      	str	r1, [r7, #0]
  MODIFY_REG(SYSCFG->EXTICR[Line & 0xFFU], (Line >> 16U), Port << POSITION_VAL((Line >> 16U)));
 8002372:	4a17      	ldr	r2, [pc, #92]	; (80023d0 <LL_SYSCFG_SetEXTISource+0x68>)
 8002374:	683b      	ldr	r3, [r7, #0]
 8002376:	b2db      	uxtb	r3, r3
 8002378:	3302      	adds	r3, #2
 800237a:	f852 2023 	ldr.w	r2, [r2, r3, lsl #2]
 800237e:	683b      	ldr	r3, [r7, #0]
 8002380:	0c1b      	lsrs	r3, r3, #16
 8002382:	43db      	mvns	r3, r3
 8002384:	ea02 0103 	and.w	r1, r2, r3
 8002388:	683b      	ldr	r3, [r7, #0]
 800238a:	0c1b      	lsrs	r3, r3, #16
 800238c:	613b      	str	r3, [r7, #16]
  uint32_t result;

#if ((defined (__ARM_ARCH_7M__      ) && (__ARM_ARCH_7M__      == 1)) || \
     (defined (__ARM_ARCH_7EM__     ) && (__ARM_ARCH_7EM__     == 1)) || \
     (defined (__ARM_ARCH_8M_MAIN__ ) && (__ARM_ARCH_8M_MAIN__ == 1))    )
   __ASM volatile ("rbit %0, %1" : "=r" (result) : "r" (value) );
 800238e:	693b      	ldr	r3, [r7, #16]
 8002390:	fa93 f3a3 	rbit	r3, r3
 8002394:	60fb      	str	r3, [r7, #12]
    result |= value & 1U;
    s--;
  }
  result <<= s;                        /* shift when v's highest bits are zero */
#endif
  return result;
 8002396:	68fb      	ldr	r3, [r7, #12]
 8002398:	617b      	str	r3, [r7, #20]
     optimisations using the logic "value was passed to __builtin_clz, so it
     is non-zero".
     ARM GCC 7.3 and possibly earlier will optimise this test away, leaving a
     single CLZ instruction.
   */
  if (value == 0U)
 800239a:	697b      	ldr	r3, [r7, #20]
 800239c:	2b00      	cmp	r3, #0
 800239e:	d101      	bne.n	80023a4 <LL_SYSCFG_SetEXTISource+0x3c>
  {
    return 32U;
 80023a0:	2320      	movs	r3, #32
 80023a2:	e003      	b.n	80023ac <LL_SYSCFG_SetEXTISource+0x44>
  }
  return __builtin_clz(value);
 80023a4:	697b      	ldr	r3, [r7, #20]
 80023a6:	fab3 f383 	clz	r3, r3
 80023aa:	b2db      	uxtb	r3, r3
 80023ac:	461a      	mov	r2, r3
 80023ae:	687b      	ldr	r3, [r7, #4]
 80023b0:	fa03 f202 	lsl.w	r2, r3, r2
 80023b4:	4806      	ldr	r0, [pc, #24]	; (80023d0 <LL_SYSCFG_SetEXTISource+0x68>)
 80023b6:	683b      	ldr	r3, [r7, #0]
 80023b8:	b2db      	uxtb	r3, r3
 80023ba:	430a      	orrs	r2, r1
 80023bc:	3302      	adds	r3, #2
 80023be:	f840 2023 	str.w	r2, [r0, r3, lsl #2]
}
 80023c2:	bf00      	nop
 80023c4:	371c      	adds	r7, #28
 80023c6:	46bd      	mov	sp, r7
 80023c8:	f85d 7b04 	ldr.w	r7, [sp], #4
 80023cc:	4770      	bx	lr
 80023ce:	bf00      	nop
 80023d0:	40010000 	.word	0x40010000

080023d4 <LL_GPIO_SetPinMode>:
  *         @arg @ref LL_GPIO_MODE_ALTERNATE
  *         @arg @ref LL_GPIO_MODE_ANALOG
  * @retval None
  */
__STATIC_INLINE void LL_GPIO_SetPinMode(GPIO_TypeDef *GPIOx, uint32_t Pin, uint32_t Mode)
{
 80023d4:	b480      	push	{r7}
 80023d6:	b08b      	sub	sp, #44	; 0x2c
 80023d8:	af00      	add	r7, sp, #0
 80023da:	60f8      	str	r0, [r7, #12]
 80023dc:	60b9      	str	r1, [r7, #8]
 80023de:	607a      	str	r2, [r7, #4]
  MODIFY_REG(GPIOx->MODER, (GPIO_MODER_MODE0 << (POSITION_VAL(Pin) * 2U)), (Mode << (POSITION_VAL(Pin) * 2U)));
 80023e0:	68fb      	ldr	r3, [r7, #12]
 80023e2:	681a      	ldr	r2, [r3, #0]
 80023e4:	68bb      	ldr	r3, [r7, #8]
 80023e6:	617b      	str	r3, [r7, #20]
   __ASM volatile ("rbit %0, %1" : "=r" (result) : "r" (value) );
 80023e8:	697b      	ldr	r3, [r7, #20]
 80023ea:	fa93 f3a3 	rbit	r3, r3
 80023ee:	613b      	str	r3, [r7, #16]
  return result;
 80023f0:	693b      	ldr	r3, [r7, #16]
 80023f2:	61bb      	str	r3, [r7, #24]
  if (value == 0U)
 80023f4:	69bb      	ldr	r3, [r7, #24]
 80023f6:	2b00      	cmp	r3, #0
 80023f8:	d101      	bne.n	80023fe <LL_GPIO_SetPinMode+0x2a>
    return 32U;
 80023fa:	2320      	movs	r3, #32
 80023fc:	e003      	b.n	8002406 <LL_GPIO_SetPinMode+0x32>
  return __builtin_clz(value);
 80023fe:	69bb      	ldr	r3, [r7, #24]
 8002400:	fab3 f383 	clz	r3, r3
 8002404:	b2db      	uxtb	r3, r3
 8002406:	005b      	lsls	r3, r3, #1
 8002408:	2103      	movs	r1, #3
 800240a:	fa01 f303 	lsl.w	r3, r1, r3
 800240e:	43db      	mvns	r3, r3
 8002410:	401a      	ands	r2, r3
 8002412:	68bb      	ldr	r3, [r7, #8]
 8002414:	623b      	str	r3, [r7, #32]
   __ASM volatile ("rbit %0, %1" : "=r" (result) : "r" (value) );
 8002416:	6a3b      	ldr	r3, [r7, #32]
 8002418:	fa93 f3a3 	rbit	r3, r3
 800241c:	61fb      	str	r3, [r7, #28]
  return result;
 800241e:	69fb      	ldr	r3, [r7, #28]
 8002420:	627b      	str	r3, [r7, #36]	; 0x24
  if (value == 0U)
 8002422:	6a7b      	ldr	r3, [r7, #36]	; 0x24
 8002424:	2b00      	cmp	r3, #0
 8002426:	d101      	bne.n	800242c <LL_GPIO_SetPinMode+0x58>
    return 32U;
 8002428:	2320      	movs	r3, #32
 800242a:	e003      	b.n	8002434 <LL_GPIO_SetPinMode+0x60>
  return __builtin_clz(value);
 800242c:	6a7b      	ldr	r3, [r7, #36]	; 0x24
 800242e:	fab3 f383 	clz	r3, r3
 8002432:	b2db      	uxtb	r3, r3
 8002434:	005b      	lsls	r3, r3, #1
 8002436:	6879      	ldr	r1, [r7, #4]
 8002438:	fa01 f303 	lsl.w	r3, r1, r3
 800243c:	431a      	orrs	r2, r3
 800243e:	68fb      	ldr	r3, [r7, #12]
 8002440:	601a      	str	r2, [r3, #0]
}
 8002442:	bf00      	nop
 8002444:	372c      	adds	r7, #44	; 0x2c
 8002446:	46bd      	mov	sp, r7
 8002448:	f85d 7b04 	ldr.w	r7, [sp], #4
 800244c:	4770      	bx	lr

0800244e <LL_GPIO_SetPinPull>:
  *         @arg @ref LL_GPIO_PULL_UP
  *         @arg @ref LL_GPIO_PULL_DOWN
  * @retval None
  */
__STATIC_INLINE void LL_GPIO_SetPinPull(GPIO_TypeDef *GPIOx, uint32_t Pin, uint32_t Pull)
{
 800244e:	b480      	push	{r7}
 8002450:	b08b      	sub	sp, #44	; 0x2c
 8002452:	af00      	add	r7, sp, #0
 8002454:	60f8      	str	r0, [r7, #12]
 8002456:	60b9      	str	r1, [r7, #8]
 8002458:	607a      	str	r2, [r7, #4]
  MODIFY_REG(GPIOx->PUPDR, (GPIO_PUPDR_PUPD0 << (POSITION_VAL(Pin) * 2U)), (Pull << (POSITION_VAL(Pin) * 2U)));
 800245a:	68fb      	ldr	r3, [r7, #12]
 800245c:	68da      	ldr	r2, [r3, #12]
 800245e:	68bb      	ldr	r3, [r7, #8]
 8002460:	617b      	str	r3, [r7, #20]
   __ASM volatile ("rbit %0, %1" : "=r" (result) : "r" (value) );
 8002462:	697b      	ldr	r3, [r7, #20]
 8002464:	fa93 f3a3 	rbit	r3, r3
 8002468:	613b      	str	r3, [r7, #16]
  return result;
 800246a:	693b      	ldr	r3, [r7, #16]
 800246c:	61bb      	str	r3, [r7, #24]
  if (value == 0U)
 800246e:	69bb      	ldr	r3, [r7, #24]
 8002470:	2b00      	cmp	r3, #0
 8002472:	d101      	bne.n	8002478 <LL_GPIO_SetPinPull+0x2a>
    return 32U;
 8002474:	2320      	movs	r3, #32
 8002476:	e003      	b.n	8002480 <LL_GPIO_SetPinPull+0x32>
  return __builtin_clz(value);
 8002478:	69bb      	ldr	r3, [r7, #24]
 800247a:	fab3 f383 	clz	r3, r3
 800247e:	b2db      	uxtb	r3, r3
 8002480:	005b      	lsls	r3, r3, #1
 8002482:	2103      	movs	r1, #3
 8002484:	fa01 f303 	lsl.w	r3, r1, r3
 8002488:	43db      	mvns	r3, r3
 800248a:	401a      	ands	r2, r3
 800248c:	68bb      	ldr	r3, [r7, #8]
 800248e:	623b      	str	r3, [r7, #32]
   __ASM volatile ("rbit %0, %1" : "=r" (result) : "r" (value) );
 8002490:	6a3b      	ldr	r3, [r7, #32]
 8002492:	fa93 f3a3 	rbit	r3, r3
 8002496:	61fb      	str	r3, [r7, #28]
  return result;
 8002498:	69fb      	ldr	r3, [r7, #28]
 800249a:	627b      	str	r3, [r7, #36]	; 0x24
  if (value == 0U)
 800249c:	6a7b      	ldr	r3, [r7, #36]	; 0x24
 800249e:	2b00      	cmp	r3, #0
 80024a0:	d101      	bne.n	80024a6 <LL_GPIO_SetPinPull+0x58>
    return 32U;
 80024a2:	2320      	movs	r3, #32
 80024a4:	e003      	b.n	80024ae <LL_GPIO_SetPinPull+0x60>
  return __builtin_clz(value);
 80024a6:	6a7b      	ldr	r3, [r7, #36]	; 0x24
 80024a8:	fab3 f383 	clz	r3, r3
 80024ac:	b2db      	uxtb	r3, r3
 80024ae:	005b      	lsls	r3, r3, #1
 80024b0:	6879      	ldr	r1, [r7, #4]
 80024b2:	fa01 f303 	lsl.w	r3, r1, r3
 80024b6:	431a      	orrs	r2, r3
 80024b8:	68fb      	ldr	r3, [r7, #12]
 80024ba:	60da      	str	r2, [r3, #12]
}
 80024bc:	bf00      	nop
 80024be:	372c      	adds	r7, #44	; 0x2c
 80024c0:	46bd      	mov	sp, r7
 80024c2:	f85d 7b04 	ldr.w	r7, [sp], #4
 80024c6:	4770      	bx	lr

080024c8 <LL_GPIO_ResetOutputPin>:
  *         @arg @ref LL_GPIO_PIN_15
  *         @arg @ref LL_GPIO_PIN_ALL
  * @retval None
  */
__STATIC_INLINE void LL_GPIO_ResetOutputPin(GPIO_TypeDef *GPIOx, uint32_t PinMask)
{
 80024c8:	b480      	push	{r7}
 80024ca:	b083      	sub	sp, #12
 80024cc:	af00      	add	r7, sp, #0
 80024ce:	6078      	str	r0, [r7, #4]
 80024d0:	6039      	str	r1, [r7, #0]
  WRITE_REG(GPIOx->BRR, PinMask);
 80024d2:	687b      	ldr	r3, [r7, #4]
 80024d4:	683a      	ldr	r2, [r7, #0]
 80024d6:	629a      	str	r2, [r3, #40]	; 0x28
}
 80024d8:	bf00      	nop
 80024da:	370c      	adds	r7, #12
 80024dc:	46bd      	mov	sp, r7
 80024de:	f85d 7b04 	ldr.w	r7, [sp], #4
 80024e2:	4770      	bx	lr

080024e4 <MX_GPIO_Init>:
        * Output
        * EVENT_OUT
        * EXTI
*/
void MX_GPIO_Init(void)
{
 80024e4:	b580      	push	{r7, lr}
 80024e6:	b08a      	sub	sp, #40	; 0x28
 80024e8:	af00      	add	r7, sp, #0

  LL_EXTI_InitTypeDef EXTI_InitStruct = {0};
 80024ea:	f107 031c 	add.w	r3, r7, #28
 80024ee:	2200      	movs	r2, #0
 80024f0:	601a      	str	r2, [r3, #0]
 80024f2:	605a      	str	r2, [r3, #4]
 80024f4:	609a      	str	r2, [r3, #8]
  LL_GPIO_InitTypeDef GPIO_InitStruct = {0};
 80024f6:	1d3b      	adds	r3, r7, #4
 80024f8:	2200      	movs	r2, #0
 80024fa:	601a      	str	r2, [r3, #0]
 80024fc:	605a      	str	r2, [r3, #4]
 80024fe:	609a      	str	r2, [r3, #8]
 8002500:	60da      	str	r2, [r3, #12]
 8002502:	611a      	str	r2, [r3, #16]
 8002504:	615a      	str	r2, [r3, #20]

  /* GPIO Ports Clock Enable */
  LL_AHB2_GRP1_EnableClock(LL_AHB2_GRP1_PERIPH_GPIOC);
 8002506:	2004      	movs	r0, #4
 8002508:	f7ff ff16 	bl	8002338 <LL_AHB2_GRP1_EnableClock>
  LL_AHB2_GRP1_EnableClock(LL_AHB2_GRP1_PERIPH_GPIOH);
 800250c:	2080      	movs	r0, #128	; 0x80
 800250e:	f7ff ff13 	bl	8002338 <LL_AHB2_GRP1_EnableClock>
  LL_AHB2_GRP1_EnableClock(LL_AHB2_GRP1_PERIPH_GPIOA);
 8002512:	2001      	movs	r0, #1
 8002514:	f7ff ff10 	bl	8002338 <LL_AHB2_GRP1_EnableClock>
  LL_AHB2_GRP1_EnableClock(LL_AHB2_GRP1_PERIPH_GPIOB);
 8002518:	2002      	movs	r0, #2
 800251a:	f7ff ff0d 	bl	8002338 <LL_AHB2_GRP1_EnableClock>

  /**/
  LL_GPIO_ResetOutputPin(LD2_GPIO_Port, LD2_Pin);
 800251e:	2120      	movs	r1, #32
 8002520:	f04f 4090 	mov.w	r0, #1207959552	; 0x48000000
 8002524:	f7ff ffd0 	bl	80024c8 <LL_GPIO_ResetOutputPin>

  /**/
  LL_SYSCFG_SetEXTISource(LL_SYSCFG_EXTI_PORTC, LL_SYSCFG_EXTI_LINE13);
 8002528:	491b      	ldr	r1, [pc, #108]	; (8002598 <MX_GPIO_Init+0xb4>)
 800252a:	2002      	movs	r0, #2
 800252c:	f7ff ff1c 	bl	8002368 <LL_SYSCFG_SetEXTISource>

  /**/
  EXTI_InitStruct.Line_0_31 = LL_EXTI_LINE_13;
 8002530:	f44f 5300 	mov.w	r3, #8192	; 0x2000
 8002534:	61fb      	str	r3, [r7, #28]
  EXTI_InitStruct.Line_32_63 = LL_EXTI_LINE_NONE;
 8002536:	2300      	movs	r3, #0
 8002538:	623b      	str	r3, [r7, #32]
  EXTI_InitStruct.LineCommand = ENABLE;
 800253a:	2301      	movs	r3, #1
 800253c:	f887 3024 	strb.w	r3, [r7, #36]	; 0x24
  EXTI_InitStruct.Mode = LL_EXTI_MODE_IT;
 8002540:	2300      	movs	r3, #0
 8002542:	f887 3025 	strb.w	r3, [r7, #37]	; 0x25
  EXTI_InitStruct.Trigger = LL_EXTI_TRIGGER_FALLING;
 8002546:	2302      	movs	r3, #2
 8002548:	f887 3026 	strb.w	r3, [r7, #38]	; 0x26
  LL_EXTI_Init(&EXTI_InitStruct);
 800254c:	f107 031c 	add.w	r3, r7, #28
 8002550:	4618      	mov	r0, r3
 8002552:	f001 fd0b 	bl	8003f6c <LL_EXTI_Init>

  /**/
  LL_GPIO_SetPinPull(B1_GPIO_Port, B1_Pin, LL_GPIO_PULL_NO);
 8002556:	2200      	movs	r2, #0
 8002558:	f44f 5100 	mov.w	r1, #8192	; 0x2000
 800255c:	480f      	ldr	r0, [pc, #60]	; (800259c <MX_GPIO_Init+0xb8>)
 800255e:	f7ff ff76 	bl	800244e <LL_GPIO_SetPinPull>

  /**/
  LL_GPIO_SetPinMode(B1_GPIO_Port, B1_Pin, LL_GPIO_MODE_INPUT);
 8002562:	2200      	movs	r2, #0
 8002564:	f44f 5100 	mov.w	r1, #8192	; 0x2000
 8002568:	480c      	ldr	r0, [pc, #48]	; (800259c <MX_GPIO_Init+0xb8>)
 800256a:	f7ff ff33 	bl	80023d4 <LL_GPIO_SetPinMode>

  /**/
  GPIO_InitStruct.Pin = LD2_Pin;
 800256e:	2320      	movs	r3, #32
 8002570:	607b      	str	r3, [r7, #4]
  GPIO_InitStruct.Mode = LL_GPIO_MODE_OUTPUT;
 8002572:	2301      	movs	r3, #1
 8002574:	60bb      	str	r3, [r7, #8]
  GPIO_InitStruct.Speed = LL_GPIO_SPEED_FREQ_LOW;
 8002576:	2300      	movs	r3, #0
 8002578:	60fb      	str	r3, [r7, #12]
  GPIO_InitStruct.OutputType = LL_GPIO_OUTPUT_PUSHPULL;
 800257a:	2300      	movs	r3, #0
 800257c:	613b      	str	r3, [r7, #16]
  GPIO_InitStruct.Pull = LL_GPIO_PULL_NO;
 800257e:	2300      	movs	r3, #0
 8002580:	617b      	str	r3, [r7, #20]
  LL_GPIO_Init(LD2_GPIO_Port, &GPIO_InitStruct);
 8002582:	1d3b      	adds	r3, r7, #4
 8002584:	4619      	mov	r1, r3
 8002586:	f04f 4090 	mov.w	r0, #1207959552	; 0x48000000
 800258a:	f001 ff26 	bl	80043da <LL_GPIO_Init>

}
 800258e:	bf00      	nop
 8002590:	3728      	adds	r7, #40	; 0x28
 8002592:	46bd      	mov	sp, r7
 8002594:	bd80      	pop	{r7, pc}
 8002596:	bf00      	nop
 8002598:	00f00003 	.word	0x00f00003
 800259c:	48000800 	.word	0x48000800

080025a0 <__NVIC_SetPriorityGrouping>:
{
 80025a0:	b480      	push	{r7}
 80025a2:	b085      	sub	sp, #20
 80025a4:	af00      	add	r7, sp, #0
 80025a6:	6078      	str	r0, [r7, #4]
  uint32_t PriorityGroupTmp = (PriorityGroup & (uint32_t)0x07UL);             /* only values 0..7 are used          */
 80025a8:	687b      	ldr	r3, [r7, #4]
 80025aa:	f003 0307 	and.w	r3, r3, #7
 80025ae:	60fb      	str	r3, [r7, #12]
  reg_value  =  SCB->AIRCR;                                                   /* read old register configuration    */
 80025b0:	4b0c      	ldr	r3, [pc, #48]	; (80025e4 <__NVIC_SetPriorityGrouping+0x44>)
 80025b2:	68db      	ldr	r3, [r3, #12]
 80025b4:	60bb      	str	r3, [r7, #8]
  reg_value &= ~((uint32_t)(SCB_AIRCR_VECTKEY_Msk | SCB_AIRCR_PRIGROUP_Msk)); /* clear bits to change               */
 80025b6:	68ba      	ldr	r2, [r7, #8]
 80025b8:	f64f 03ff 	movw	r3, #63743	; 0xf8ff
 80025bc:	4013      	ands	r3, r2
 80025be:	60bb      	str	r3, [r7, #8]
                (PriorityGroupTmp << SCB_AIRCR_PRIGROUP_Pos)  );              /* Insert write key and priority group */
 80025c0:	68fb      	ldr	r3, [r7, #12]
 80025c2:	021a      	lsls	r2, r3, #8
                ((uint32_t)0x5FAUL << SCB_AIRCR_VECTKEY_Pos) |
 80025c4:	68bb      	ldr	r3, [r7, #8]
 80025c6:	4313      	orrs	r3, r2
  reg_value  =  (reg_value                                   |
 80025c8:	f043 63bf 	orr.w	r3, r3, #100139008	; 0x5f80000
 80025cc:	f443 3300 	orr.w	r3, r3, #131072	; 0x20000
 80025d0:	60bb      	str	r3, [r7, #8]
  SCB->AIRCR =  reg_value;
 80025d2:	4a04      	ldr	r2, [pc, #16]	; (80025e4 <__NVIC_SetPriorityGrouping+0x44>)
 80025d4:	68bb      	ldr	r3, [r7, #8]
 80025d6:	60d3      	str	r3, [r2, #12]
}
 80025d8:	bf00      	nop
 80025da:	3714      	adds	r7, #20
 80025dc:	46bd      	mov	sp, r7
 80025de:	f85d 7b04 	ldr.w	r7, [sp], #4
 80025e2:	4770      	bx	lr
 80025e4:	e000ed00 	.word	0xe000ed00

080025e8 <LL_RCC_HSI_Enable>:
  * @brief  Enable HSI oscillator
  * @rmtoll CR           HSION         LL_RCC_HSI_Enable
  * @retval None
  */
__STATIC_INLINE void LL_RCC_HSI_Enable(void)
{
 80025e8:	b480      	push	{r7}
 80025ea:	af00      	add	r7, sp, #0
  SET_BIT(RCC->CR, RCC_CR_HSION);
 80025ec:	4b05      	ldr	r3, [pc, #20]	; (8002604 <LL_RCC_HSI_Enable+0x1c>)
 80025ee:	681b      	ldr	r3, [r3, #0]
 80025f0:	4a04      	ldr	r2, [pc, #16]	; (8002604 <LL_RCC_HSI_Enable+0x1c>)
 80025f2:	f443 7380 	orr.w	r3, r3, #256	; 0x100
 80025f6:	6013      	str	r3, [r2, #0]
}
 80025f8:	bf00      	nop
 80025fa:	46bd      	mov	sp, r7
 80025fc:	f85d 7b04 	ldr.w	r7, [sp], #4
 8002600:	4770      	bx	lr
 8002602:	bf00      	nop
 8002604:	40021000 	.word	0x40021000

08002608 <LL_RCC_HSI_IsReady>:
  * @brief  Check if HSI clock is ready
  * @rmtoll CR           HSIRDY        LL_RCC_HSI_IsReady
  * @retval State of bit (1 or 0).
  */
__STATIC_INLINE uint32_t LL_RCC_HSI_IsReady(void)
{
 8002608:	b480      	push	{r7}
 800260a:	af00      	add	r7, sp, #0
  return ((READ_BIT(RCC->CR, RCC_CR_HSIRDY) == RCC_CR_HSIRDY) ? 1UL : 0UL);
 800260c:	4b07      	ldr	r3, [pc, #28]	; (800262c <LL_RCC_HSI_IsReady+0x24>)
 800260e:	681b      	ldr	r3, [r3, #0]
 8002610:	f403 6380 	and.w	r3, r3, #1024	; 0x400
 8002614:	f5b3 6f80 	cmp.w	r3, #1024	; 0x400
 8002618:	d101      	bne.n	800261e <LL_RCC_HSI_IsReady+0x16>
 800261a:	2301      	movs	r3, #1
 800261c:	e000      	b.n	8002620 <LL_RCC_HSI_IsReady+0x18>
 800261e:	2300      	movs	r3, #0
}
 8002620:	4618      	mov	r0, r3
 8002622:	46bd      	mov	sp, r7
 8002624:	f85d 7b04 	ldr.w	r7, [sp], #4
 8002628:	4770      	bx	lr
 800262a:	bf00      	nop
 800262c:	40021000 	.word	0x40021000

08002630 <LL_RCC_HSI_SetCalibTrimming>:
  * @param  Value Between Min_Data = 0 and Max_Data = 31 on STM32L47x/STM32L48x or
  *               between Min_Data = 0 and Max_Data = 127 on other devices
  * @retval None
  */
__STATIC_INLINE void LL_RCC_HSI_SetCalibTrimming(uint32_t Value)
{
 8002630:	b480      	push	{r7}
 8002632:	b083      	sub	sp, #12
 8002634:	af00      	add	r7, sp, #0
 8002636:	6078      	str	r0, [r7, #4]
  MODIFY_REG(RCC->ICSCR, RCC_ICSCR_HSITRIM, Value << RCC_ICSCR_HSITRIM_Pos);
 8002638:	4b07      	ldr	r3, [pc, #28]	; (8002658 <LL_RCC_HSI_SetCalibTrimming+0x28>)
 800263a:	685b      	ldr	r3, [r3, #4]
 800263c:	f023 52f8 	bic.w	r2, r3, #520093696	; 0x1f000000
 8002640:	687b      	ldr	r3, [r7, #4]
 8002642:	061b      	lsls	r3, r3, #24
 8002644:	4904      	ldr	r1, [pc, #16]	; (8002658 <LL_RCC_HSI_SetCalibTrimming+0x28>)
 8002646:	4313      	orrs	r3, r2
 8002648:	604b      	str	r3, [r1, #4]
}
 800264a:	bf00      	nop
 800264c:	370c      	adds	r7, #12
 800264e:	46bd      	mov	sp, r7
 8002650:	f85d 7b04 	ldr.w	r7, [sp], #4
 8002654:	4770      	bx	lr
 8002656:	bf00      	nop
 8002658:	40021000 	.word	0x40021000

0800265c <LL_RCC_SetSysClkSource>:
  *         @arg @ref LL_RCC_SYS_CLKSOURCE_HSE
  *         @arg @ref LL_RCC_SYS_CLKSOURCE_PLL
  * @retval None
  */
__STATIC_INLINE void LL_RCC_SetSysClkSource(uint32_t Source)
{
 800265c:	b480      	push	{r7}
 800265e:	b083      	sub	sp, #12
 8002660:	af00      	add	r7, sp, #0
 8002662:	6078      	str	r0, [r7, #4]
  MODIFY_REG(RCC->CFGR, RCC_CFGR_SW, Source);
 8002664:	4b06      	ldr	r3, [pc, #24]	; (8002680 <LL_RCC_SetSysClkSource+0x24>)
 8002666:	689b      	ldr	r3, [r3, #8]
 8002668:	f023 0203 	bic.w	r2, r3, #3
 800266c:	4904      	ldr	r1, [pc, #16]	; (8002680 <LL_RCC_SetSysClkSource+0x24>)
 800266e:	687b      	ldr	r3, [r7, #4]
 8002670:	4313      	orrs	r3, r2
 8002672:	608b      	str	r3, [r1, #8]
}
 8002674:	bf00      	nop
 8002676:	370c      	adds	r7, #12
 8002678:	46bd      	mov	sp, r7
 800267a:	f85d 7b04 	ldr.w	r7, [sp], #4
 800267e:	4770      	bx	lr
 8002680:	40021000 	.word	0x40021000

08002684 <LL_RCC_GetSysClkSource>:
  *         @arg @ref LL_RCC_SYS_CLKSOURCE_STATUS_HSI
  *         @arg @ref LL_RCC_SYS_CLKSOURCE_STATUS_HSE
  *         @arg @ref LL_RCC_SYS_CLKSOURCE_STATUS_PLL
  */
__STATIC_INLINE uint32_t LL_RCC_GetSysClkSource(void)
{
 8002684:	b480      	push	{r7}
 8002686:	af00      	add	r7, sp, #0
  return (uint32_t)(READ_BIT(RCC->CFGR, RCC_CFGR_SWS));
 8002688:	4b04      	ldr	r3, [pc, #16]	; (800269c <LL_RCC_GetSysClkSource+0x18>)
 800268a:	689b      	ldr	r3, [r3, #8]
 800268c:	f003 030c 	and.w	r3, r3, #12
}
 8002690:	4618      	mov	r0, r3
 8002692:	46bd      	mov	sp, r7
 8002694:	f85d 7b04 	ldr.w	r7, [sp], #4
 8002698:	4770      	bx	lr
 800269a:	bf00      	nop
 800269c:	40021000 	.word	0x40021000

080026a0 <LL_RCC_SetAHBPrescaler>:
  *         @arg @ref LL_RCC_SYSCLK_DIV_256
  *         @arg @ref LL_RCC_SYSCLK_DIV_512
  * @retval None
  */
__STATIC_INLINE void LL_RCC_SetAHBPrescaler(uint32_t Prescaler)
{
 80026a0:	b480      	push	{r7}
 80026a2:	b083      	sub	sp, #12
 80026a4:	af00      	add	r7, sp, #0
 80026a6:	6078      	str	r0, [r7, #4]
  MODIFY_REG(RCC->CFGR, RCC_CFGR_HPRE, Prescaler);
 80026a8:	4b06      	ldr	r3, [pc, #24]	; (80026c4 <LL_RCC_SetAHBPrescaler+0x24>)
 80026aa:	689b      	ldr	r3, [r3, #8]
 80026ac:	f023 02f0 	bic.w	r2, r3, #240	; 0xf0
 80026b0:	4904      	ldr	r1, [pc, #16]	; (80026c4 <LL_RCC_SetAHBPrescaler+0x24>)
 80026b2:	687b      	ldr	r3, [r7, #4]
 80026b4:	4313      	orrs	r3, r2
 80026b6:	608b      	str	r3, [r1, #8]
}
 80026b8:	bf00      	nop
 80026ba:	370c      	adds	r7, #12
 80026bc:	46bd      	mov	sp, r7
 80026be:	f85d 7b04 	ldr.w	r7, [sp], #4
 80026c2:	4770      	bx	lr
 80026c4:	40021000 	.word	0x40021000

080026c8 <LL_RCC_SetAPB1Prescaler>:
  *         @arg @ref LL_RCC_APB1_DIV_8
  *         @arg @ref LL_RCC_APB1_DIV_16
  * @retval None
  */
__STATIC_INLINE void LL_RCC_SetAPB1Prescaler(uint32_t Prescaler)
{
 80026c8:	b480      	push	{r7}
 80026ca:	b083      	sub	sp, #12
 80026cc:	af00      	add	r7, sp, #0
 80026ce:	6078      	str	r0, [r7, #4]
  MODIFY_REG(RCC->CFGR, RCC_CFGR_PPRE1, Prescaler);
 80026d0:	4b06      	ldr	r3, [pc, #24]	; (80026ec <LL_RCC_SetAPB1Prescaler+0x24>)
 80026d2:	689b      	ldr	r3, [r3, #8]
 80026d4:	f423 62e0 	bic.w	r2, r3, #1792	; 0x700
 80026d8:	4904      	ldr	r1, [pc, #16]	; (80026ec <LL_RCC_SetAPB1Prescaler+0x24>)
 80026da:	687b      	ldr	r3, [r7, #4]
 80026dc:	4313      	orrs	r3, r2
 80026de:	608b      	str	r3, [r1, #8]
}
 80026e0:	bf00      	nop
 80026e2:	370c      	adds	r7, #12
 80026e4:	46bd      	mov	sp, r7
 80026e6:	f85d 7b04 	ldr.w	r7, [sp], #4
 80026ea:	4770      	bx	lr
 80026ec:	40021000 	.word	0x40021000

080026f0 <LL_RCC_SetAPB2Prescaler>:
  *         @arg @ref LL_RCC_APB2_DIV_8
  *         @arg @ref LL_RCC_APB2_DIV_16
  * @retval None
  */
__STATIC_INLINE void LL_RCC_SetAPB2Prescaler(uint32_t Prescaler)
{
 80026f0:	b480      	push	{r7}
 80026f2:	b083      	sub	sp, #12
 80026f4:	af00      	add	r7, sp, #0
 80026f6:	6078      	str	r0, [r7, #4]
  MODIFY_REG(RCC->CFGR, RCC_CFGR_PPRE2, Prescaler);
 80026f8:	4b06      	ldr	r3, [pc, #24]	; (8002714 <LL_RCC_SetAPB2Prescaler+0x24>)
 80026fa:	689b      	ldr	r3, [r3, #8]
 80026fc:	f423 5260 	bic.w	r2, r3, #14336	; 0x3800
 8002700:	4904      	ldr	r1, [pc, #16]	; (8002714 <LL_RCC_SetAPB2Prescaler+0x24>)
 8002702:	687b      	ldr	r3, [r7, #4]
 8002704:	4313      	orrs	r3, r2
 8002706:	608b      	str	r3, [r1, #8]
}
 8002708:	bf00      	nop
 800270a:	370c      	adds	r7, #12
 800270c:	46bd      	mov	sp, r7
 800270e:	f85d 7b04 	ldr.w	r7, [sp], #4
 8002712:	4770      	bx	lr
 8002714:	40021000 	.word	0x40021000

08002718 <LL_RCC_SetUSARTClockSource>:
  *
  *         (*) value not defined in all devices.
  * @retval None
  */
__STATIC_INLINE void LL_RCC_SetUSARTClockSource(uint32_t USARTxSource)
{
 8002718:	b480      	push	{r7}
 800271a:	b083      	sub	sp, #12
 800271c:	af00      	add	r7, sp, #0
 800271e:	6078      	str	r0, [r7, #4]
  MODIFY_REG(RCC->CCIPR, (USARTxSource >> 16U), (USARTxSource & 0x0000FFFFU));
 8002720:	4b09      	ldr	r3, [pc, #36]	; (8002748 <LL_RCC_SetUSARTClockSource+0x30>)
 8002722:	f8d3 2088 	ldr.w	r2, [r3, #136]	; 0x88
 8002726:	687b      	ldr	r3, [r7, #4]
 8002728:	0c1b      	lsrs	r3, r3, #16
 800272a:	43db      	mvns	r3, r3
 800272c:	401a      	ands	r2, r3
 800272e:	687b      	ldr	r3, [r7, #4]
 8002730:	b29b      	uxth	r3, r3
 8002732:	4905      	ldr	r1, [pc, #20]	; (8002748 <LL_RCC_SetUSARTClockSource+0x30>)
 8002734:	4313      	orrs	r3, r2
 8002736:	f8c1 3088 	str.w	r3, [r1, #136]	; 0x88
}
 800273a:	bf00      	nop
 800273c:	370c      	adds	r7, #12
 800273e:	46bd      	mov	sp, r7
 8002740:	f85d 7b04 	ldr.w	r7, [sp], #4
 8002744:	4770      	bx	lr
 8002746:	bf00      	nop
 8002748:	40021000 	.word	0x40021000

0800274c <LL_RCC_PLL_Enable>:
  * @brief  Enable PLL
  * @rmtoll CR           PLLON         LL_RCC_PLL_Enable
  * @retval None
  */
__STATIC_INLINE void LL_RCC_PLL_Enable(void)
{
 800274c:	b480      	push	{r7}
 800274e:	af00      	add	r7, sp, #0
  SET_BIT(RCC->CR, RCC_CR_PLLON);
 8002750:	4b05      	ldr	r3, [pc, #20]	; (8002768 <LL_RCC_PLL_Enable+0x1c>)
 8002752:	681b      	ldr	r3, [r3, #0]
 8002754:	4a04      	ldr	r2, [pc, #16]	; (8002768 <LL_RCC_PLL_Enable+0x1c>)
 8002756:	f043 7380 	orr.w	r3, r3, #16777216	; 0x1000000
 800275a:	6013      	str	r3, [r2, #0]
}
 800275c:	bf00      	nop
 800275e:	46bd      	mov	sp, r7
 8002760:	f85d 7b04 	ldr.w	r7, [sp], #4
 8002764:	4770      	bx	lr
 8002766:	bf00      	nop
 8002768:	40021000 	.word	0x40021000

0800276c <LL_RCC_PLL_IsReady>:
  * @brief  Check if PLL Ready
  * @rmtoll CR           PLLRDY        LL_RCC_PLL_IsReady
  * @retval State of bit (1 or 0).
  */
__STATIC_INLINE uint32_t LL_RCC_PLL_IsReady(void)
{
 800276c:	b480      	push	{r7}
 800276e:	af00      	add	r7, sp, #0
  return ((READ_BIT(RCC->CR, RCC_CR_PLLRDY) == RCC_CR_PLLRDY) ? 1UL : 0UL);
 8002770:	4b07      	ldr	r3, [pc, #28]	; (8002790 <LL_RCC_PLL_IsReady+0x24>)
 8002772:	681b      	ldr	r3, [r3, #0]
 8002774:	f003 7300 	and.w	r3, r3, #33554432	; 0x2000000
 8002778:	f1b3 7f00 	cmp.w	r3, #33554432	; 0x2000000
 800277c:	d101      	bne.n	8002782 <LL_RCC_PLL_IsReady+0x16>
 800277e:	2301      	movs	r3, #1
 8002780:	e000      	b.n	8002784 <LL_RCC_PLL_IsReady+0x18>
 8002782:	2300      	movs	r3, #0
}
 8002784:	4618      	mov	r0, r3
 8002786:	46bd      	mov	sp, r7
 8002788:	f85d 7b04 	ldr.w	r7, [sp], #4
 800278c:	4770      	bx	lr
 800278e:	bf00      	nop
 8002790:	40021000 	.word	0x40021000

08002794 <LL_RCC_PLL_ConfigDomain_SYS>:
  *         @arg @ref LL_RCC_PLLR_DIV_6
  *         @arg @ref LL_RCC_PLLR_DIV_8
  * @retval None
  */
__STATIC_INLINE void LL_RCC_PLL_ConfigDomain_SYS(uint32_t Source, uint32_t PLLM, uint32_t PLLN, uint32_t PLLR)
{
 8002794:	b480      	push	{r7}
 8002796:	b085      	sub	sp, #20
 8002798:	af00      	add	r7, sp, #0
 800279a:	60f8      	str	r0, [r7, #12]
 800279c:	60b9      	str	r1, [r7, #8]
 800279e:	607a      	str	r2, [r7, #4]
 80027a0:	603b      	str	r3, [r7, #0]
  MODIFY_REG(RCC->PLLCFGR, RCC_PLLCFGR_PLLSRC | RCC_PLLCFGR_PLLM | RCC_PLLCFGR_PLLN | RCC_PLLCFGR_PLLR,
 80027a2:	4b0a      	ldr	r3, [pc, #40]	; (80027cc <LL_RCC_PLL_ConfigDomain_SYS+0x38>)
 80027a4:	68da      	ldr	r2, [r3, #12]
 80027a6:	4b0a      	ldr	r3, [pc, #40]	; (80027d0 <LL_RCC_PLL_ConfigDomain_SYS+0x3c>)
 80027a8:	4013      	ands	r3, r2
 80027aa:	68f9      	ldr	r1, [r7, #12]
 80027ac:	68ba      	ldr	r2, [r7, #8]
 80027ae:	4311      	orrs	r1, r2
 80027b0:	687a      	ldr	r2, [r7, #4]
 80027b2:	0212      	lsls	r2, r2, #8
 80027b4:	4311      	orrs	r1, r2
 80027b6:	683a      	ldr	r2, [r7, #0]
 80027b8:	430a      	orrs	r2, r1
 80027ba:	4904      	ldr	r1, [pc, #16]	; (80027cc <LL_RCC_PLL_ConfigDomain_SYS+0x38>)
 80027bc:	4313      	orrs	r3, r2
 80027be:	60cb      	str	r3, [r1, #12]
             Source | PLLM | (PLLN << RCC_PLLCFGR_PLLN_Pos) | PLLR);
}
 80027c0:	bf00      	nop
 80027c2:	3714      	adds	r7, #20
 80027c4:	46bd      	mov	sp, r7
 80027c6:	f85d 7b04 	ldr.w	r7, [sp], #4
 80027ca:	4770      	bx	lr
 80027cc:	40021000 	.word	0x40021000
 80027d0:	f9ff808c 	.word	0xf9ff808c

080027d4 <LL_RCC_PLL_EnableDomain_SYS>:
  * @brief  Enable PLL output mapped on SYSCLK domain
  * @rmtoll PLLCFGR      PLLREN        LL_RCC_PLL_EnableDomain_SYS
  * @retval None
  */
__STATIC_INLINE void LL_RCC_PLL_EnableDomain_SYS(void)
{
 80027d4:	b480      	push	{r7}
 80027d6:	af00      	add	r7, sp, #0
  SET_BIT(RCC->PLLCFGR, RCC_PLLCFGR_PLLREN);
 80027d8:	4b05      	ldr	r3, [pc, #20]	; (80027f0 <LL_RCC_PLL_EnableDomain_SYS+0x1c>)
 80027da:	68db      	ldr	r3, [r3, #12]
 80027dc:	4a04      	ldr	r2, [pc, #16]	; (80027f0 <LL_RCC_PLL_EnableDomain_SYS+0x1c>)
 80027de:	f043 7380 	orr.w	r3, r3, #16777216	; 0x1000000
 80027e2:	60d3      	str	r3, [r2, #12]
}
 80027e4:	bf00      	nop
 80027e6:	46bd      	mov	sp, r7
 80027e8:	f85d 7b04 	ldr.w	r7, [sp], #4
 80027ec:	4770      	bx	lr
 80027ee:	bf00      	nop
 80027f0:	40021000 	.word	0x40021000

080027f4 <LL_APB1_GRP1_EnableClock>:
  *
  *         (*) value not defined in all devices.
  * @retval None
*/
__STATIC_INLINE void LL_APB1_GRP1_EnableClock(uint32_t Periphs)
{
 80027f4:	b480      	push	{r7}
 80027f6:	b085      	sub	sp, #20
 80027f8:	af00      	add	r7, sp, #0
 80027fa:	6078      	str	r0, [r7, #4]
  __IO uint32_t tmpreg;
  SET_BIT(RCC->APB1ENR1, Periphs);
 80027fc:	4b08      	ldr	r3, [pc, #32]	; (8002820 <LL_APB1_GRP1_EnableClock+0x2c>)
 80027fe:	6d9a      	ldr	r2, [r3, #88]	; 0x58
 8002800:	4907      	ldr	r1, [pc, #28]	; (8002820 <LL_APB1_GRP1_EnableClock+0x2c>)
 8002802:	687b      	ldr	r3, [r7, #4]
 8002804:	4313      	orrs	r3, r2
 8002806:	658b      	str	r3, [r1, #88]	; 0x58
  /* Delay after an RCC peripheral clock enabling */
  tmpreg = READ_BIT(RCC->APB1ENR1, Periphs);
 8002808:	4b05      	ldr	r3, [pc, #20]	; (8002820 <LL_APB1_GRP1_EnableClock+0x2c>)
 800280a:	6d9a      	ldr	r2, [r3, #88]	; 0x58
 800280c:	687b      	ldr	r3, [r7, #4]
 800280e:	4013      	ands	r3, r2
 8002810:	60fb      	str	r3, [r7, #12]
  (void)tmpreg;
 8002812:	68fb      	ldr	r3, [r7, #12]
}
 8002814:	bf00      	nop
 8002816:	3714      	adds	r7, #20
 8002818:	46bd      	mov	sp, r7
 800281a:	f85d 7b04 	ldr.w	r7, [sp], #4
 800281e:	4770      	bx	lr
 8002820:	40021000 	.word	0x40021000

08002824 <LL_APB2_GRP1_EnableClock>:
  *
  *         (*) value not defined in all devices.
  * @retval None
*/
__STATIC_INLINE void LL_APB2_GRP1_EnableClock(uint32_t Periphs)
{
 8002824:	b480      	push	{r7}
 8002826:	b085      	sub	sp, #20
 8002828:	af00      	add	r7, sp, #0
 800282a:	6078      	str	r0, [r7, #4]
  __IO uint32_t tmpreg;
  SET_BIT(RCC->APB2ENR, Periphs);
 800282c:	4b08      	ldr	r3, [pc, #32]	; (8002850 <LL_APB2_GRP1_EnableClock+0x2c>)
 800282e:	6e1a      	ldr	r2, [r3, #96]	; 0x60
 8002830:	4907      	ldr	r1, [pc, #28]	; (8002850 <LL_APB2_GRP1_EnableClock+0x2c>)
 8002832:	687b      	ldr	r3, [r7, #4]
 8002834:	4313      	orrs	r3, r2
 8002836:	660b      	str	r3, [r1, #96]	; 0x60
  /* Delay after an RCC peripheral clock enabling */
  tmpreg = READ_BIT(RCC->APB2ENR, Periphs);
 8002838:	4b05      	ldr	r3, [pc, #20]	; (8002850 <LL_APB2_GRP1_EnableClock+0x2c>)
 800283a:	6e1a      	ldr	r2, [r3, #96]	; 0x60
 800283c:	687b      	ldr	r3, [r7, #4]
 800283e:	4013      	ands	r3, r2
 8002840:	60fb      	str	r3, [r7, #12]
  (void)tmpreg;
 8002842:	68fb      	ldr	r3, [r7, #12]
}
 8002844:	bf00      	nop
 8002846:	3714      	adds	r7, #20
 8002848:	46bd      	mov	sp, r7
 800284a:	f85d 7b04 	ldr.w	r7, [sp], #4
 800284e:	4770      	bx	lr
 8002850:	40021000 	.word	0x40021000

08002854 <LL_FLASH_SetLatency>:
  *
  *         (*) value not defined in all devices.
  * @retval None
  */
__STATIC_INLINE void LL_FLASH_SetLatency(uint32_t Latency)
{
 8002854:	b480      	push	{r7}
 8002856:	b083      	sub	sp, #12
 8002858:	af00      	add	r7, sp, #0
 800285a:	6078      	str	r0, [r7, #4]
  MODIFY_REG(FLASH->ACR, FLASH_ACR_LATENCY, Latency);
 800285c:	4b06      	ldr	r3, [pc, #24]	; (8002878 <LL_FLASH_SetLatency+0x24>)
 800285e:	681b      	ldr	r3, [r3, #0]
 8002860:	f023 0207 	bic.w	r2, r3, #7
 8002864:	4904      	ldr	r1, [pc, #16]	; (8002878 <LL_FLASH_SetLatency+0x24>)
 8002866:	687b      	ldr	r3, [r7, #4]
 8002868:	4313      	orrs	r3, r2
 800286a:	600b      	str	r3, [r1, #0]
}
 800286c:	bf00      	nop
 800286e:	370c      	adds	r7, #12
 8002870:	46bd      	mov	sp, r7
 8002872:	f85d 7b04 	ldr.w	r7, [sp], #4
 8002876:	4770      	bx	lr
 8002878:	40022000 	.word	0x40022000

0800287c <LL_FLASH_GetLatency>:
  *         @arg @ref LL_FLASH_LATENCY_15 (*)
  *
  *         (*) value not defined in all devices.
  */
__STATIC_INLINE uint32_t LL_FLASH_GetLatency(void)
{
 800287c:	b480      	push	{r7}
 800287e:	af00      	add	r7, sp, #0
  return (uint32_t)(READ_BIT(FLASH->ACR, FLASH_ACR_LATENCY));
 8002880:	4b04      	ldr	r3, [pc, #16]	; (8002894 <LL_FLASH_GetLatency+0x18>)
 8002882:	681b      	ldr	r3, [r3, #0]
 8002884:	f003 0307 	and.w	r3, r3, #7
}
 8002888:	4618      	mov	r0, r3
 800288a:	46bd      	mov	sp, r7
 800288c:	f85d 7b04 	ldr.w	r7, [sp], #4
 8002890:	4770      	bx	lr
 8002892:	bf00      	nop
 8002894:	40022000 	.word	0x40022000

08002898 <LL_PWR_SetRegulVoltageScaling>:
  *         @arg @ref LL_PWR_REGU_VOLTAGE_SCALE1
  *         @arg @ref LL_PWR_REGU_VOLTAGE_SCALE2
  * @retval None
  */
__STATIC_INLINE void LL_PWR_SetRegulVoltageScaling(uint32_t VoltageScaling)
{
 8002898:	b480      	push	{r7}
 800289a:	b083      	sub	sp, #12
 800289c:	af00      	add	r7, sp, #0
 800289e:	6078      	str	r0, [r7, #4]
  MODIFY_REG(PWR->CR1, PWR_CR1_VOS, VoltageScaling);
 80028a0:	4b06      	ldr	r3, [pc, #24]	; (80028bc <LL_PWR_SetRegulVoltageScaling+0x24>)
 80028a2:	681b      	ldr	r3, [r3, #0]
 80028a4:	f423 62c0 	bic.w	r2, r3, #1536	; 0x600
 80028a8:	4904      	ldr	r1, [pc, #16]	; (80028bc <LL_PWR_SetRegulVoltageScaling+0x24>)
 80028aa:	687b      	ldr	r3, [r7, #4]
 80028ac:	4313      	orrs	r3, r2
 80028ae:	600b      	str	r3, [r1, #0]
}
 80028b0:	bf00      	nop
 80028b2:	370c      	adds	r7, #12
 80028b4:	46bd      	mov	sp, r7
 80028b6:	f85d 7b04 	ldr.w	r7, [sp], #4
 80028ba:	4770      	bx	lr
 80028bc:	40007000 	.word	0x40007000

080028c0 <main>:
/**
  * @brief  The application entry point.
  * @retval int
  */
int main(void)
{
 80028c0:	b580      	push	{r7, lr}
 80028c2:	af00      	add	r7, sp, #0

  /* MCU Configuration--------------------------------------------------------*/

  /* Reset of all peripherals, Initializes the Flash interface and the Systick. */

  LL_APB2_GRP1_EnableClock(LL_APB2_GRP1_PERIPH_SYSCFG);
 80028c4:	2001      	movs	r0, #1
 80028c6:	f7ff ffad 	bl	8002824 <LL_APB2_GRP1_EnableClock>
  LL_APB1_GRP1_EnableClock(LL_APB1_GRP1_PERIPH_PWR);
 80028ca:	f04f 5080 	mov.w	r0, #268435456	; 0x10000000
 80028ce:	f7ff ff91 	bl	80027f4 <LL_APB1_GRP1_EnableClock>

  NVIC_SetPriorityGrouping(NVIC_PRIORITYGROUP_4);
 80028d2:	2003      	movs	r0, #3
 80028d4:	f7ff fe64 	bl	80025a0 <__NVIC_SetPriorityGrouping>
  /* USER CODE BEGIN Init */

  /* USER CODE END Init */

  /* Configure the system clock */
  SystemClock_Config();
 80028d8:	f000 f818 	bl	800290c <SystemClock_Config>
  /* USER CODE BEGIN SysInit */

  /* USER CODE END SysInit */

  /* Initialize all configured peripherals */
  MX_GPIO_Init();
 80028dc:	f7ff fe02 	bl	80024e4 <MX_GPIO_Init>
  MX_USART2_UART_Init();
 80028e0:	f001 f89c 	bl	8003a1c <MX_USART2_UART_Init>
  MX_SPI2_Init();
 80028e4:	f000 fb30 	bl	8002f48 <MX_SPI2_Init>
  MX_TIM1_Init();
 80028e8:	f000 fe7e 	bl	80035e8 <MX_TIM1_Init>
  MX_SPI3_Init();
 80028ec:	f000 fb9a 	bl	8003024 <MX_SPI3_Init>
  MX_TIM3_Init();
 80028f0:	f000 feb0 	bl	8003654 <MX_TIM3_Init>
  MX_TIM4_Init();
 80028f4:	f000 ff6a 	bl	80037cc <MX_TIM4_Init>
  /* USER CODE BEGIN 2 */

  startupPrint();
 80028f8:	f001 f906 	bl	8003b08 <startupPrint>

  gimbalControlInit();
 80028fc:	f7ff f9a0 	bl	8001c40 <gimbalControlInit>

  eyes_init();
 8002900:	f7fe fd4e 	bl	80013a0 <eyes_init>
  eyes_start();
 8002904:	f7fe fd70 	bl	80013e8 <eyes_start>

  /* USER CODE END 2 */

  /* Infinite loop */
  /* USER CODE BEGIN WHILE */
  while (1)
 8002908:	e7fe      	b.n	8002908 <main+0x48>
	...

0800290c <SystemClock_Config>:
/**
  * @brief System Clock Configuration
  * @retval None
  */
void SystemClock_Config(void)
{
 800290c:	b580      	push	{r7, lr}
 800290e:	af00      	add	r7, sp, #0
  LL_FLASH_SetLatency(LL_FLASH_LATENCY_3);
 8002910:	2003      	movs	r0, #3
 8002912:	f7ff ff9f 	bl	8002854 <LL_FLASH_SetLatency>
  while(LL_FLASH_GetLatency()!= LL_FLASH_LATENCY_3)
 8002916:	bf00      	nop
 8002918:	f7ff ffb0 	bl	800287c <LL_FLASH_GetLatency>
 800291c:	4603      	mov	r3, r0
 800291e:	2b03      	cmp	r3, #3
 8002920:	d1fa      	bne.n	8002918 <SystemClock_Config+0xc>
  {
  }
  LL_PWR_SetRegulVoltageScaling(LL_PWR_REGU_VOLTAGE_SCALE1);
 8002922:	f44f 7000 	mov.w	r0, #512	; 0x200
 8002926:	f7ff ffb7 	bl	8002898 <LL_PWR_SetRegulVoltageScaling>
  LL_RCC_HSI_Enable();
 800292a:	f7ff fe5d 	bl	80025e8 <LL_RCC_HSI_Enable>

   /* Wait till HSI is ready */
  while(LL_RCC_HSI_IsReady() != 1)
 800292e:	bf00      	nop
 8002930:	f7ff fe6a 	bl	8002608 <LL_RCC_HSI_IsReady>
 8002934:	4603      	mov	r3, r0
 8002936:	2b01      	cmp	r3, #1
 8002938:	d1fa      	bne.n	8002930 <SystemClock_Config+0x24>
  {

  }
  LL_RCC_HSI_SetCalibTrimming(16);
 800293a:	2010      	movs	r0, #16
 800293c:	f7ff fe78 	bl	8002630 <LL_RCC_HSI_SetCalibTrimming>
  LL_RCC_PLL_ConfigDomain_SYS(LL_RCC_PLLSOURCE_HSI, LL_RCC_PLLM_DIV_1, 8, LL_RCC_PLLR_DIV_2);
 8002940:	2300      	movs	r3, #0
 8002942:	2208      	movs	r2, #8
 8002944:	2100      	movs	r1, #0
 8002946:	2002      	movs	r0, #2
 8002948:	f7ff ff24 	bl	8002794 <LL_RCC_PLL_ConfigDomain_SYS>
  LL_RCC_PLL_EnableDomain_SYS();
 800294c:	f7ff ff42 	bl	80027d4 <LL_RCC_PLL_EnableDomain_SYS>
  LL_RCC_PLL_Enable();
 8002950:	f7ff fefc 	bl	800274c <LL_RCC_PLL_Enable>

   /* Wait till PLL is ready */
  while(LL_RCC_PLL_IsReady() != 1)
 8002954:	bf00      	nop
 8002956:	f7ff ff09 	bl	800276c <LL_RCC_PLL_IsReady>
 800295a:	4603      	mov	r3, r0
 800295c:	2b01      	cmp	r3, #1
 800295e:	d1fa      	bne.n	8002956 <SystemClock_Config+0x4a>
  {

  }
  LL_RCC_SetSysClkSource(LL_RCC_SYS_CLKSOURCE_PLL);
 8002960:	2003      	movs	r0, #3
 8002962:	f7ff fe7b 	bl	800265c <LL_RCC_SetSysClkSource>

   /* Wait till System clock is ready */
  while(LL_RCC_GetSysClkSource() != LL_RCC_SYS_CLKSOURCE_STATUS_PLL)
 8002966:	bf00      	nop
 8002968:	f7ff fe8c 	bl	8002684 <LL_RCC_GetSysClkSource>
 800296c:	4603      	mov	r3, r0
 800296e:	2b0c      	cmp	r3, #12
 8002970:	d1fa      	bne.n	8002968 <SystemClock_Config+0x5c>
  {

  }
  LL_RCC_SetAHBPrescaler(LL_RCC_SYSCLK_DIV_1);
 8002972:	2000      	movs	r0, #0
 8002974:	f7ff fe94 	bl	80026a0 <LL_RCC_SetAHBPrescaler>
  LL_RCC_SetAPB1Prescaler(LL_RCC_APB1_DIV_1);
 8002978:	2000      	movs	r0, #0
 800297a:	f7ff fea5 	bl	80026c8 <LL_RCC_SetAPB1Prescaler>
  LL_RCC_SetAPB2Prescaler(LL_RCC_APB2_DIV_1);
 800297e:	2000      	movs	r0, #0
 8002980:	f7ff feb6 	bl	80026f0 <LL_RCC_SetAPB2Prescaler>

  LL_Init1msTick(64000000);
 8002984:	4805      	ldr	r0, [pc, #20]	; (800299c <SystemClock_Config+0x90>)
 8002986:	f002 fef9 	bl	800577c <LL_Init1msTick>

  LL_SetSystemCoreClock(64000000);
 800298a:	4804      	ldr	r0, [pc, #16]	; (800299c <SystemClock_Config+0x90>)
 800298c:	f002 ff2a 	bl	80057e4 <LL_SetSystemCoreClock>
  LL_RCC_SetUSARTClockSource(LL_RCC_USART2_CLKSOURCE_PCLK1);
 8002990:	f44f 2040 	mov.w	r0, #786432	; 0xc0000
 8002994:	f7ff fec0 	bl	8002718 <LL_RCC_SetUSARTClockSource>
}
 8002998:	bf00      	nop
 800299a:	bd80      	pop	{r7, pc}
 800299c:	03d09000 	.word	0x03d09000

080029a0 <OF_ResetCoefficients>:
static int16_t frameIdx;

/**
 * @brief Reset the coefficient values and the frame's pixel index to zero
 */
void OF_ResetCoefficients(){
 80029a0:	b490      	push	{r4, r7}
 80029a2:	af00      	add	r7, sp, #0
	A[0] = B[0] = C[0] = D[0] = E[0] = 0;
 80029a4:	4a22      	ldr	r2, [pc, #136]	; (8002a30 <OF_ResetCoefficients+0x90>)
 80029a6:	f04f 0300 	mov.w	r3, #0
 80029aa:	f04f 0400 	mov.w	r4, #0
 80029ae:	e9c2 3400 	strd	r3, r4, [r2]
 80029b2:	4b1f      	ldr	r3, [pc, #124]	; (8002a30 <OF_ResetCoefficients+0x90>)
 80029b4:	e9d3 3400 	ldrd	r3, r4, [r3]
 80029b8:	4a1e      	ldr	r2, [pc, #120]	; (8002a34 <OF_ResetCoefficients+0x94>)
 80029ba:	e9c2 3400 	strd	r3, r4, [r2]
 80029be:	4b1d      	ldr	r3, [pc, #116]	; (8002a34 <OF_ResetCoefficients+0x94>)
 80029c0:	e9d3 3400 	ldrd	r3, r4, [r3]
 80029c4:	4a1c      	ldr	r2, [pc, #112]	; (8002a38 <OF_ResetCoefficients+0x98>)
 80029c6:	e9c2 3400 	strd	r3, r4, [r2]
 80029ca:	4b1b      	ldr	r3, [pc, #108]	; (8002a38 <OF_ResetCoefficients+0x98>)
 80029cc:	e9d3 3400 	ldrd	r3, r4, [r3]
 80029d0:	4a1a      	ldr	r2, [pc, #104]	; (8002a3c <OF_ResetCoefficients+0x9c>)
 80029d2:	e9c2 3400 	strd	r3, r4, [r2]
 80029d6:	4b19      	ldr	r3, [pc, #100]	; (8002a3c <OF_ResetCoefficients+0x9c>)
 80029d8:	e9d3 3400 	ldrd	r3, r4, [r3]
 80029dc:	4a18      	ldr	r2, [pc, #96]	; (8002a40 <OF_ResetCoefficients+0xa0>)
 80029de:	e9c2 3400 	strd	r3, r4, [r2]
	A[1] = B[1] = C[1] = D[1] = E[1] = 0;
 80029e2:	4a13      	ldr	r2, [pc, #76]	; (8002a30 <OF_ResetCoefficients+0x90>)
 80029e4:	f04f 0300 	mov.w	r3, #0
 80029e8:	f04f 0400 	mov.w	r4, #0
 80029ec:	e9c2 3402 	strd	r3, r4, [r2, #8]
 80029f0:	4b0f      	ldr	r3, [pc, #60]	; (8002a30 <OF_ResetCoefficients+0x90>)
 80029f2:	e9d3 3402 	ldrd	r3, r4, [r3, #8]
 80029f6:	4a0f      	ldr	r2, [pc, #60]	; (8002a34 <OF_ResetCoefficients+0x94>)
 80029f8:	e9c2 3402 	strd	r3, r4, [r2, #8]
 80029fc:	4b0d      	ldr	r3, [pc, #52]	; (8002a34 <OF_ResetCoefficients+0x94>)
 80029fe:	e9d3 3402 	ldrd	r3, r4, [r3, #8]
 8002a02:	4a0d      	ldr	r2, [pc, #52]	; (8002a38 <OF_ResetCoefficients+0x98>)
 8002a04:	e9c2 3402 	strd	r3, r4, [r2, #8]
 8002a08:	4b0b      	ldr	r3, [pc, #44]	; (8002a38 <OF_ResetCoefficients+0x98>)
 8002a0a:	e9d3 3402 	ldrd	r3, r4, [r3, #8]
 8002a0e:	4a0b      	ldr	r2, [pc, #44]	; (8002a3c <OF_ResetCoefficients+0x9c>)
 8002a10:	e9c2 3402 	strd	r3, r4, [r2, #8]
 8002a14:	4b09      	ldr	r3, [pc, #36]	; (8002a3c <OF_ResetCoefficients+0x9c>)
 8002a16:	e9d3 3402 	ldrd	r3, r4, [r3, #8]
 8002a1a:	4a09      	ldr	r2, [pc, #36]	; (8002a40 <OF_ResetCoefficients+0xa0>)
 8002a1c:	e9c2 3402 	strd	r3, r4, [r2, #8]
	frameIdx = 0;
 8002a20:	4b08      	ldr	r3, [pc, #32]	; (8002a44 <OF_ResetCoefficients+0xa4>)
 8002a22:	2200      	movs	r2, #0
 8002a24:	801a      	strh	r2, [r3, #0]
}
 8002a26:	bf00      	nop
 8002a28:	46bd      	mov	sp, r7
 8002a2a:	bc90      	pop	{r4, r7}
 8002a2c:	4770      	bx	lr
 8002a2e:	bf00      	nop
 8002a30:	20000660 	.word	0x20000660
 8002a34:	20000650 	.word	0x20000650
 8002a38:	20000640 	.word	0x20000640
 8002a3c:	20000630 	.word	0x20000630
 8002a40:	20000620 	.word	0x20000620
 8002a44:	2000067c 	.word	0x2000067c

08002a48 <OF_ComputeCoefficients>:
 * @param dev	The device where the frames from
 * @param currentFrame	The current frame to process the optical flow
 * @param lastFrame		The reference frame to process the optical flow
 * @param idx			The frame's pixel index which is going to be processed
 */
void OF_ComputeCoefficients(Device dev, uint8_t currentFrame[], uint8_t lastFrame[], int32_t idx){
 8002a48:	e92d 0890 	stmdb	sp!, {r4, r7, fp}
 8002a4c:	b085      	sub	sp, #20
 8002a4e:	af00      	add	r7, sp, #0
 8002a50:	60b9      	str	r1, [r7, #8]
 8002a52:	607a      	str	r2, [r7, #4]
 8002a54:	603b      	str	r3, [r7, #0]
 8002a56:	4603      	mov	r3, r0
 8002a58:	73fb      	strb	r3, [r7, #15]

	if(fSelect[idx]){
 8002a5a:	4a76      	ldr	r2, [pc, #472]	; (8002c34 <OF_ComputeCoefficients+0x1ec>)
 8002a5c:	683b      	ldr	r3, [r7, #0]
 8002a5e:	4413      	add	r3, r2
 8002a60:	781b      	ldrb	r3, [r3, #0]
 8002a62:	2b00      	cmp	r3, #0
 8002a64:	f000 80e0 	beq.w	8002c28 <OF_ComputeCoefficients+0x1e0>
		deltaX = (lastFrame[f2[frameIdx]] & ADNS2610_PIXEL_DATA) - (lastFrame[f1[frameIdx]] & ADNS2610_PIXEL_DATA);
 8002a68:	4b73      	ldr	r3, [pc, #460]	; (8002c38 <OF_ComputeCoefficients+0x1f0>)
 8002a6a:	f9b3 3000 	ldrsh.w	r3, [r3]
 8002a6e:	461a      	mov	r2, r3
 8002a70:	4b72      	ldr	r3, [pc, #456]	; (8002c3c <OF_ComputeCoefficients+0x1f4>)
 8002a72:	f833 3012 	ldrh.w	r3, [r3, r2, lsl #1]
 8002a76:	461a      	mov	r2, r3
 8002a78:	687b      	ldr	r3, [r7, #4]
 8002a7a:	4413      	add	r3, r2
 8002a7c:	781b      	ldrb	r3, [r3, #0]
 8002a7e:	f003 023f 	and.w	r2, r3, #63	; 0x3f
 8002a82:	4b6d      	ldr	r3, [pc, #436]	; (8002c38 <OF_ComputeCoefficients+0x1f0>)
 8002a84:	f9b3 3000 	ldrsh.w	r3, [r3]
 8002a88:	4619      	mov	r1, r3
 8002a8a:	4b6d      	ldr	r3, [pc, #436]	; (8002c40 <OF_ComputeCoefficients+0x1f8>)
 8002a8c:	f833 3011 	ldrh.w	r3, [r3, r1, lsl #1]
 8002a90:	4619      	mov	r1, r3
 8002a92:	687b      	ldr	r3, [r7, #4]
 8002a94:	440b      	add	r3, r1
 8002a96:	781b      	ldrb	r3, [r3, #0]
 8002a98:	f003 033f 	and.w	r3, r3, #63	; 0x3f
 8002a9c:	1ad3      	subs	r3, r2, r3
 8002a9e:	461a      	mov	r2, r3
 8002aa0:	4b68      	ldr	r3, [pc, #416]	; (8002c44 <OF_ComputeCoefficients+0x1fc>)
 8002aa2:	601a      	str	r2, [r3, #0]
		deltaY = (lastFrame[f4[frameIdx]] & ADNS2610_PIXEL_DATA) - (lastFrame[f3[frameIdx]] & ADNS2610_PIXEL_DATA);
 8002aa4:	4b64      	ldr	r3, [pc, #400]	; (8002c38 <OF_ComputeCoefficients+0x1f0>)
 8002aa6:	f9b3 3000 	ldrsh.w	r3, [r3]
 8002aaa:	461a      	mov	r2, r3
 8002aac:	4b66      	ldr	r3, [pc, #408]	; (8002c48 <OF_ComputeCoefficients+0x200>)
 8002aae:	f833 3012 	ldrh.w	r3, [r3, r2, lsl #1]
 8002ab2:	461a      	mov	r2, r3
 8002ab4:	687b      	ldr	r3, [r7, #4]
 8002ab6:	4413      	add	r3, r2
 8002ab8:	781b      	ldrb	r3, [r3, #0]
 8002aba:	f003 023f 	and.w	r2, r3, #63	; 0x3f
 8002abe:	4b5e      	ldr	r3, [pc, #376]	; (8002c38 <OF_ComputeCoefficients+0x1f0>)
 8002ac0:	f9b3 3000 	ldrsh.w	r3, [r3]
 8002ac4:	4619      	mov	r1, r3
 8002ac6:	4b61      	ldr	r3, [pc, #388]	; (8002c4c <OF_ComputeCoefficients+0x204>)
 8002ac8:	f833 3011 	ldrh.w	r3, [r3, r1, lsl #1]
 8002acc:	4619      	mov	r1, r3
 8002ace:	687b      	ldr	r3, [r7, #4]
 8002ad0:	440b      	add	r3, r1
 8002ad2:	781b      	ldrb	r3, [r3, #0]
 8002ad4:	f003 033f 	and.w	r3, r3, #63	; 0x3f
 8002ad8:	1ad3      	subs	r3, r2, r3
 8002ada:	461a      	mov	r2, r3
 8002adc:	4b5c      	ldr	r3, [pc, #368]	; (8002c50 <OF_ComputeCoefficients+0x208>)
 8002ade:	601a      	str	r2, [r3, #0]
		deltaT = (currentFrame[f0[frameIdx]] & ADNS2610_PIXEL_DATA) - (lastFrame[f0[frameIdx]] & ADNS2610_PIXEL_DATA);
 8002ae0:	4b55      	ldr	r3, [pc, #340]	; (8002c38 <OF_ComputeCoefficients+0x1f0>)
 8002ae2:	f9b3 3000 	ldrsh.w	r3, [r3]
 8002ae6:	461a      	mov	r2, r3
 8002ae8:	4b5a      	ldr	r3, [pc, #360]	; (8002c54 <OF_ComputeCoefficients+0x20c>)
 8002aea:	f833 3012 	ldrh.w	r3, [r3, r2, lsl #1]
 8002aee:	461a      	mov	r2, r3
 8002af0:	68bb      	ldr	r3, [r7, #8]
 8002af2:	4413      	add	r3, r2
 8002af4:	781b      	ldrb	r3, [r3, #0]
 8002af6:	f003 023f 	and.w	r2, r3, #63	; 0x3f
 8002afa:	4b4f      	ldr	r3, [pc, #316]	; (8002c38 <OF_ComputeCoefficients+0x1f0>)
 8002afc:	f9b3 3000 	ldrsh.w	r3, [r3]
 8002b00:	4619      	mov	r1, r3
 8002b02:	4b54      	ldr	r3, [pc, #336]	; (8002c54 <OF_ComputeCoefficients+0x20c>)
 8002b04:	f833 3011 	ldrh.w	r3, [r3, r1, lsl #1]
 8002b08:	4619      	mov	r1, r3
 8002b0a:	687b      	ldr	r3, [r7, #4]
 8002b0c:	440b      	add	r3, r1
 8002b0e:	781b      	ldrb	r3, [r3, #0]
 8002b10:	f003 033f 	and.w	r3, r3, #63	; 0x3f
 8002b14:	1ad3      	subs	r3, r2, r3
 8002b16:	461a      	mov	r2, r3
 8002b18:	4b4f      	ldr	r3, [pc, #316]	; (8002c58 <OF_ComputeCoefficients+0x210>)
 8002b1a:	601a      	str	r2, [r3, #0]

		A[dev] += deltaX * deltaX;
 8002b1c:	7bfb      	ldrb	r3, [r7, #15]
 8002b1e:	4a4f      	ldr	r2, [pc, #316]	; (8002c5c <OF_ComputeCoefficients+0x214>)
 8002b20:	00db      	lsls	r3, r3, #3
 8002b22:	4413      	add	r3, r2
 8002b24:	e9d3 1200 	ldrd	r1, r2, [r3]
 8002b28:	4b46      	ldr	r3, [pc, #280]	; (8002c44 <OF_ComputeCoefficients+0x1fc>)
 8002b2a:	681b      	ldr	r3, [r3, #0]
 8002b2c:	4845      	ldr	r0, [pc, #276]	; (8002c44 <OF_ComputeCoefficients+0x1fc>)
 8002b2e:	6800      	ldr	r0, [r0, #0]
 8002b30:	fb00 f303 	mul.w	r3, r0, r3
 8002b34:	469b      	mov	fp, r3
 8002b36:	ea4f 7ceb 	mov.w	ip, fp, asr #31
 8002b3a:	7bf8      	ldrb	r0, [r7, #15]
 8002b3c:	eb1b 0301 	adds.w	r3, fp, r1
 8002b40:	eb4c 0402 	adc.w	r4, ip, r2
 8002b44:	4945      	ldr	r1, [pc, #276]	; (8002c5c <OF_ComputeCoefficients+0x214>)
 8002b46:	00c2      	lsls	r2, r0, #3
 8002b48:	440a      	add	r2, r1
 8002b4a:	e9c2 3400 	strd	r3, r4, [r2]
		B[dev] += deltaY * deltaX;
 8002b4e:	7bfb      	ldrb	r3, [r7, #15]
 8002b50:	4a43      	ldr	r2, [pc, #268]	; (8002c60 <OF_ComputeCoefficients+0x218>)
 8002b52:	00db      	lsls	r3, r3, #3
 8002b54:	4413      	add	r3, r2
 8002b56:	e9d3 1200 	ldrd	r1, r2, [r3]
 8002b5a:	4b3d      	ldr	r3, [pc, #244]	; (8002c50 <OF_ComputeCoefficients+0x208>)
 8002b5c:	681b      	ldr	r3, [r3, #0]
 8002b5e:	4839      	ldr	r0, [pc, #228]	; (8002c44 <OF_ComputeCoefficients+0x1fc>)
 8002b60:	6800      	ldr	r0, [r0, #0]
 8002b62:	fb00 f303 	mul.w	r3, r0, r3
 8002b66:	469b      	mov	fp, r3
 8002b68:	ea4f 7ceb 	mov.w	ip, fp, asr #31
 8002b6c:	7bf8      	ldrb	r0, [r7, #15]
 8002b6e:	eb1b 0301 	adds.w	r3, fp, r1
 8002b72:	eb4c 0402 	adc.w	r4, ip, r2
 8002b76:	493a      	ldr	r1, [pc, #232]	; (8002c60 <OF_ComputeCoefficients+0x218>)
 8002b78:	00c2      	lsls	r2, r0, #3
 8002b7a:	440a      	add	r2, r1
 8002b7c:	e9c2 3400 	strd	r3, r4, [r2]
		C[dev] += deltaT * deltaX;
 8002b80:	7bfb      	ldrb	r3, [r7, #15]
 8002b82:	4a38      	ldr	r2, [pc, #224]	; (8002c64 <OF_ComputeCoefficients+0x21c>)
 8002b84:	00db      	lsls	r3, r3, #3
 8002b86:	4413      	add	r3, r2
 8002b88:	e9d3 1200 	ldrd	r1, r2, [r3]
 8002b8c:	4b32      	ldr	r3, [pc, #200]	; (8002c58 <OF_ComputeCoefficients+0x210>)
 8002b8e:	681b      	ldr	r3, [r3, #0]
 8002b90:	482c      	ldr	r0, [pc, #176]	; (8002c44 <OF_ComputeCoefficients+0x1fc>)
 8002b92:	6800      	ldr	r0, [r0, #0]
 8002b94:	fb00 f303 	mul.w	r3, r0, r3
 8002b98:	469b      	mov	fp, r3
 8002b9a:	ea4f 7ceb 	mov.w	ip, fp, asr #31
 8002b9e:	7bf8      	ldrb	r0, [r7, #15]
 8002ba0:	eb1b 0301 	adds.w	r3, fp, r1
 8002ba4:	eb4c 0402 	adc.w	r4, ip, r2
 8002ba8:	492e      	ldr	r1, [pc, #184]	; (8002c64 <OF_ComputeCoefficients+0x21c>)
 8002baa:	00c2      	lsls	r2, r0, #3
 8002bac:	440a      	add	r2, r1
 8002bae:	e9c2 3400 	strd	r3, r4, [r2]
		D[dev] += deltaY * deltaY;
 8002bb2:	7bfb      	ldrb	r3, [r7, #15]
 8002bb4:	4a2c      	ldr	r2, [pc, #176]	; (8002c68 <OF_ComputeCoefficients+0x220>)
 8002bb6:	00db      	lsls	r3, r3, #3
 8002bb8:	4413      	add	r3, r2
 8002bba:	e9d3 1200 	ldrd	r1, r2, [r3]
 8002bbe:	4b24      	ldr	r3, [pc, #144]	; (8002c50 <OF_ComputeCoefficients+0x208>)
 8002bc0:	681b      	ldr	r3, [r3, #0]
 8002bc2:	4823      	ldr	r0, [pc, #140]	; (8002c50 <OF_ComputeCoefficients+0x208>)
 8002bc4:	6800      	ldr	r0, [r0, #0]
 8002bc6:	fb00 f303 	mul.w	r3, r0, r3
 8002bca:	469b      	mov	fp, r3
 8002bcc:	ea4f 7ceb 	mov.w	ip, fp, asr #31
 8002bd0:	7bf8      	ldrb	r0, [r7, #15]
 8002bd2:	eb1b 0301 	adds.w	r3, fp, r1
 8002bd6:	eb4c 0402 	adc.w	r4, ip, r2
 8002bda:	4923      	ldr	r1, [pc, #140]	; (8002c68 <OF_ComputeCoefficients+0x220>)
 8002bdc:	00c2      	lsls	r2, r0, #3
 8002bde:	440a      	add	r2, r1
 8002be0:	e9c2 3400 	strd	r3, r4, [r2]
		E[dev] += deltaT * deltaY;
 8002be4:	7bfb      	ldrb	r3, [r7, #15]
 8002be6:	4a21      	ldr	r2, [pc, #132]	; (8002c6c <OF_ComputeCoefficients+0x224>)
 8002be8:	00db      	lsls	r3, r3, #3
 8002bea:	4413      	add	r3, r2
 8002bec:	e9d3 1200 	ldrd	r1, r2, [r3]
 8002bf0:	4b19      	ldr	r3, [pc, #100]	; (8002c58 <OF_ComputeCoefficients+0x210>)
 8002bf2:	681b      	ldr	r3, [r3, #0]
 8002bf4:	4816      	ldr	r0, [pc, #88]	; (8002c50 <OF_ComputeCoefficients+0x208>)
 8002bf6:	6800      	ldr	r0, [r0, #0]
 8002bf8:	fb00 f303 	mul.w	r3, r0, r3
 8002bfc:	469b      	mov	fp, r3
 8002bfe:	ea4f 7ceb 	mov.w	ip, fp, asr #31
 8002c02:	7bf8      	ldrb	r0, [r7, #15]
 8002c04:	eb1b 0301 	adds.w	r3, fp, r1
 8002c08:	eb4c 0402 	adc.w	r4, ip, r2
 8002c0c:	4917      	ldr	r1, [pc, #92]	; (8002c6c <OF_ComputeCoefficients+0x224>)
 8002c0e:	00c2      	lsls	r2, r0, #3
 8002c10:	440a      	add	r2, r1
 8002c12:	e9c2 3400 	strd	r3, r4, [r2]

		frameIdx++;
 8002c16:	4b08      	ldr	r3, [pc, #32]	; (8002c38 <OF_ComputeCoefficients+0x1f0>)
 8002c18:	f9b3 3000 	ldrsh.w	r3, [r3]
 8002c1c:	b29b      	uxth	r3, r3
 8002c1e:	3301      	adds	r3, #1
 8002c20:	b29b      	uxth	r3, r3
 8002c22:	b21a      	sxth	r2, r3
 8002c24:	4b04      	ldr	r3, [pc, #16]	; (8002c38 <OF_ComputeCoefficients+0x1f0>)
 8002c26:	801a      	strh	r2, [r3, #0]
	}
}
 8002c28:	bf00      	nop
 8002c2a:	3714      	adds	r7, #20
 8002c2c:	46bd      	mov	sp, r7
 8002c2e:	e8bd 0890 	ldmia.w	sp!, {r4, r7, fp}
 8002c32:	4770      	bx	lr
 8002c34:	080074ec 	.word	0x080074ec
 8002c38:	2000067c 	.word	0x2000067c
 8002c3c:	08006eec 	.word	0x08006eec
 8002c40:	08006cec 	.word	0x08006cec
 8002c44:	20000670 	.word	0x20000670
 8002c48:	080072ec 	.word	0x080072ec
 8002c4c:	080070ec 	.word	0x080070ec
 8002c50:	20000674 	.word	0x20000674
 8002c54:	08006aec 	.word	0x08006aec
 8002c58:	20000678 	.word	0x20000678
 8002c5c:	20000620 	.word	0x20000620
 8002c60:	20000630 	.word	0x20000630
 8002c64:	20000640 	.word	0x20000640
 8002c68:	20000650 	.word	0x20000650
 8002c6c:	20000660 	.word	0x20000660

08002c70 <OF_Compute>:
 * @brief It computes the optical flow value from the coefficients computed in the last iterations
 * @param dev	The device where the frames from
 * @param ofX	Pointer to the variable where the optical flow value in X direction is going to be stored
 * @param ofY	Pointer to the variable where the optical flow value in Y direction is going to be stored
 */
void OF_Compute(Device dev, int32_t* ofX, int32_t* ofY){
 8002c70:	e92d 48f0 	stmdb	sp!, {r4, r5, r6, r7, fp, lr}
 8002c74:	b088      	sub	sp, #32
 8002c76:	af00      	add	r7, sp, #0
 8002c78:	4603      	mov	r3, r0
 8002c7a:	60b9      	str	r1, [r7, #8]
 8002c7c:	607a      	str	r2, [r7, #4]
 8002c7e:	73fb      	strb	r3, [r7, #15]
	int64_t num, den;

	den = A[dev] * D[dev] - B[dev] * B[dev];
 8002c80:	7bfb      	ldrb	r3, [r7, #15]
 8002c82:	4a68      	ldr	r2, [pc, #416]	; (8002e24 <OF_Compute+0x1b4>)
 8002c84:	00db      	lsls	r3, r3, #3
 8002c86:	4413      	add	r3, r2
 8002c88:	e9d3 1200 	ldrd	r1, r2, [r3]
 8002c8c:	7bfb      	ldrb	r3, [r7, #15]
 8002c8e:	4866      	ldr	r0, [pc, #408]	; (8002e28 <OF_Compute+0x1b8>)
 8002c90:	00db      	lsls	r3, r3, #3
 8002c92:	4403      	add	r3, r0
 8002c94:	e9d3 3400 	ldrd	r3, r4, [r3]
 8002c98:	fb03 f502 	mul.w	r5, r3, r2
 8002c9c:	fb01 f004 	mul.w	r0, r1, r4
 8002ca0:	4428      	add	r0, r5
 8002ca2:	fba1 5603 	umull	r5, r6, r1, r3
 8002ca6:	1983      	adds	r3, r0, r6
 8002ca8:	461e      	mov	r6, r3
 8002caa:	7bfb      	ldrb	r3, [r7, #15]
 8002cac:	4a5f      	ldr	r2, [pc, #380]	; (8002e2c <OF_Compute+0x1bc>)
 8002cae:	00db      	lsls	r3, r3, #3
 8002cb0:	4413      	add	r3, r2
 8002cb2:	e9d3 1200 	ldrd	r1, r2, [r3]
 8002cb6:	7bfb      	ldrb	r3, [r7, #15]
 8002cb8:	485c      	ldr	r0, [pc, #368]	; (8002e2c <OF_Compute+0x1bc>)
 8002cba:	00db      	lsls	r3, r3, #3
 8002cbc:	4403      	add	r3, r0
 8002cbe:	e9d3 3400 	ldrd	r3, r4, [r3]
 8002cc2:	fb03 fc02 	mul.w	ip, r3, r2
 8002cc6:	fb01 f004 	mul.w	r0, r1, r4
 8002cca:	4460      	add	r0, ip
 8002ccc:	fba1 bc03 	umull	fp, ip, r1, r3
 8002cd0:	eb00 020c 	add.w	r2, r0, ip
 8002cd4:	4694      	mov	ip, r2
 8002cd6:	462b      	mov	r3, r5
 8002cd8:	4634      	mov	r4, r6
 8002cda:	ebb3 030b 	subs.w	r3, r3, fp
 8002cde:	eb64 040c 	sbc.w	r4, r4, ip
 8002ce2:	e9c7 3406 	strd	r3, r4, [r7, #24]

	if(den != 0){
 8002ce6:	e9d7 3406 	ldrd	r3, r4, [r7, #24]
 8002cea:	4323      	orrs	r3, r4
 8002cec:	f000 808d 	beq.w	8002e0a <OF_Compute+0x19a>
		num = (C[dev]*D[dev]) - (B[dev]*E[dev]);
 8002cf0:	7bfb      	ldrb	r3, [r7, #15]
 8002cf2:	4a4f      	ldr	r2, [pc, #316]	; (8002e30 <OF_Compute+0x1c0>)
 8002cf4:	00db      	lsls	r3, r3, #3
 8002cf6:	4413      	add	r3, r2
 8002cf8:	e9d3 1200 	ldrd	r1, r2, [r3]
 8002cfc:	7bfb      	ldrb	r3, [r7, #15]
 8002cfe:	484a      	ldr	r0, [pc, #296]	; (8002e28 <OF_Compute+0x1b8>)
 8002d00:	00db      	lsls	r3, r3, #3
 8002d02:	4403      	add	r3, r0
 8002d04:	e9d3 3400 	ldrd	r3, r4, [r3]
 8002d08:	fb03 f502 	mul.w	r5, r3, r2
 8002d0c:	fb01 f004 	mul.w	r0, r1, r4
 8002d10:	4428      	add	r0, r5
 8002d12:	fba1 5603 	umull	r5, r6, r1, r3
 8002d16:	1983      	adds	r3, r0, r6
 8002d18:	461e      	mov	r6, r3
 8002d1a:	7bfb      	ldrb	r3, [r7, #15]
 8002d1c:	4a43      	ldr	r2, [pc, #268]	; (8002e2c <OF_Compute+0x1bc>)
 8002d1e:	00db      	lsls	r3, r3, #3
 8002d20:	4413      	add	r3, r2
 8002d22:	e9d3 1200 	ldrd	r1, r2, [r3]
 8002d26:	7bfb      	ldrb	r3, [r7, #15]
 8002d28:	4842      	ldr	r0, [pc, #264]	; (8002e34 <OF_Compute+0x1c4>)
 8002d2a:	00db      	lsls	r3, r3, #3
 8002d2c:	4403      	add	r3, r0
 8002d2e:	e9d3 3400 	ldrd	r3, r4, [r3]
 8002d32:	fb03 fc02 	mul.w	ip, r3, r2
 8002d36:	fb01 f004 	mul.w	r0, r1, r4
 8002d3a:	4460      	add	r0, ip
 8002d3c:	fba1 bc03 	umull	fp, ip, r1, r3
 8002d40:	eb00 020c 	add.w	r2, r0, ip
 8002d44:	4694      	mov	ip, r2
 8002d46:	462b      	mov	r3, r5
 8002d48:	4634      	mov	r4, r6
 8002d4a:	ebb3 030b 	subs.w	r3, r3, fp
 8002d4e:	eb64 040c 	sbc.w	r4, r4, ip
 8002d52:	e9c7 3404 	strd	r3, r4, [r7, #16]
		*ofX = (num << bitsOfResolution)  / den;
 8002d56:	e9d7 3404 	ldrd	r3, r4, [r7, #16]
 8002d5a:	f04f 0000 	mov.w	r0, #0
 8002d5e:	f04f 0100 	mov.w	r1, #0
 8002d62:	0261      	lsls	r1, r4, #9
 8002d64:	ea41 51d3 	orr.w	r1, r1, r3, lsr #23
 8002d68:	0258      	lsls	r0, r3, #9
 8002d6a:	e9d7 2306 	ldrd	r2, r3, [r7, #24]
 8002d6e:	f7fd fe9d 	bl	8000aac <__aeabi_ldivmod>
 8002d72:	4603      	mov	r3, r0
 8002d74:	460c      	mov	r4, r1
 8002d76:	461a      	mov	r2, r3
 8002d78:	68bb      	ldr	r3, [r7, #8]
 8002d7a:	601a      	str	r2, [r3, #0]
		num = (A[dev]*E[dev]) - (B[dev]*C[dev]);
 8002d7c:	7bfb      	ldrb	r3, [r7, #15]
 8002d7e:	4a29      	ldr	r2, [pc, #164]	; (8002e24 <OF_Compute+0x1b4>)
 8002d80:	00db      	lsls	r3, r3, #3
 8002d82:	4413      	add	r3, r2
 8002d84:	e9d3 1200 	ldrd	r1, r2, [r3]
 8002d88:	7bfb      	ldrb	r3, [r7, #15]
 8002d8a:	482a      	ldr	r0, [pc, #168]	; (8002e34 <OF_Compute+0x1c4>)
 8002d8c:	00db      	lsls	r3, r3, #3
 8002d8e:	4403      	add	r3, r0
 8002d90:	e9d3 3400 	ldrd	r3, r4, [r3]
 8002d94:	fb03 f502 	mul.w	r5, r3, r2
 8002d98:	fb01 f004 	mul.w	r0, r1, r4
 8002d9c:	4428      	add	r0, r5
 8002d9e:	fba1 5603 	umull	r5, r6, r1, r3
 8002da2:	1983      	adds	r3, r0, r6
 8002da4:	461e      	mov	r6, r3
 8002da6:	7bfb      	ldrb	r3, [r7, #15]
 8002da8:	4a20      	ldr	r2, [pc, #128]	; (8002e2c <OF_Compute+0x1bc>)
 8002daa:	00db      	lsls	r3, r3, #3
 8002dac:	4413      	add	r3, r2
 8002dae:	e9d3 1200 	ldrd	r1, r2, [r3]
 8002db2:	7bfb      	ldrb	r3, [r7, #15]
 8002db4:	481e      	ldr	r0, [pc, #120]	; (8002e30 <OF_Compute+0x1c0>)
 8002db6:	00db      	lsls	r3, r3, #3
 8002db8:	4403      	add	r3, r0
 8002dba:	e9d3 3400 	ldrd	r3, r4, [r3]
 8002dbe:	fb03 fc02 	mul.w	ip, r3, r2
 8002dc2:	fb01 f004 	mul.w	r0, r1, r4
 8002dc6:	4460      	add	r0, ip
 8002dc8:	fba1 bc03 	umull	fp, ip, r1, r3
 8002dcc:	eb00 020c 	add.w	r2, r0, ip
 8002dd0:	4694      	mov	ip, r2
 8002dd2:	462b      	mov	r3, r5
 8002dd4:	4634      	mov	r4, r6
 8002dd6:	ebb3 030b 	subs.w	r3, r3, fp
 8002dda:	eb64 040c 	sbc.w	r4, r4, ip
 8002dde:	e9c7 3404 	strd	r3, r4, [r7, #16]
		*ofY = (num << bitsOfResolution) / den;
 8002de2:	e9d7 3404 	ldrd	r3, r4, [r7, #16]
 8002de6:	f04f 0000 	mov.w	r0, #0
 8002dea:	f04f 0100 	mov.w	r1, #0
 8002dee:	0261      	lsls	r1, r4, #9
 8002df0:	ea41 51d3 	orr.w	r1, r1, r3, lsr #23
 8002df4:	0258      	lsls	r0, r3, #9
 8002df6:	e9d7 2306 	ldrd	r2, r3, [r7, #24]
 8002dfa:	f7fd fe57 	bl	8000aac <__aeabi_ldivmod>
 8002dfe:	4603      	mov	r3, r0
 8002e00:	460c      	mov	r4, r1
 8002e02:	461a      	mov	r2, r3
 8002e04:	687b      	ldr	r3, [r7, #4]
 8002e06:	601a      	str	r2, [r3, #0]
	}
	else{
		*ofX = *ofY = 0;
	}
}
 8002e08:	e006      	b.n	8002e18 <OF_Compute+0x1a8>
		*ofX = *ofY = 0;
 8002e0a:	687b      	ldr	r3, [r7, #4]
 8002e0c:	2200      	movs	r2, #0
 8002e0e:	601a      	str	r2, [r3, #0]
 8002e10:	687b      	ldr	r3, [r7, #4]
 8002e12:	681a      	ldr	r2, [r3, #0]
 8002e14:	68bb      	ldr	r3, [r7, #8]
 8002e16:	601a      	str	r2, [r3, #0]
}
 8002e18:	bf00      	nop
 8002e1a:	3720      	adds	r7, #32
 8002e1c:	46bd      	mov	sp, r7
 8002e1e:	e8bd 88f0 	ldmia.w	sp!, {r4, r5, r6, r7, fp, pc}
 8002e22:	bf00      	nop
 8002e24:	20000620 	.word	0x20000620
 8002e28:	20000650 	.word	0x20000650
 8002e2c:	20000630 	.word	0x20000630
 8002e30:	20000640 	.word	0x20000640
 8002e34:	20000660 	.word	0x20000660

08002e38 <OF_ComputeFused>:
 * @brief It computes the optical flow fusion from the optical flow values computed for the two connected devices
 * @param right	Pointer to the struct which contains the optical flow values computed from the right positioned device
 * @param left	Pointer to the struct which contains the optical flow values computed from the left positioned device
 * @param fused	Pointer to the struct where the fused values are going to be stored
 */
void OF_ComputeFused(optical2DFlowStruct* right, optical2DFlowStruct* left, optical2DandRotateFlowStruct* fused){
 8002e38:	b480      	push	{r7}
 8002e3a:	b085      	sub	sp, #20
 8002e3c:	af00      	add	r7, sp, #0
 8002e3e:	60f8      	str	r0, [r7, #12]
 8002e40:	60b9      	str	r1, [r7, #8]
 8002e42:	607a      	str	r2, [r7, #4]
	fused->x = (right->x + left->x) >> 1;
 8002e44:	68fb      	ldr	r3, [r7, #12]
 8002e46:	681a      	ldr	r2, [r3, #0]
 8002e48:	68bb      	ldr	r3, [r7, #8]
 8002e4a:	681b      	ldr	r3, [r3, #0]
 8002e4c:	4413      	add	r3, r2
 8002e4e:	105a      	asrs	r2, r3, #1
 8002e50:	687b      	ldr	r3, [r7, #4]
 8002e52:	601a      	str	r2, [r3, #0]
	fused->y = (right->y + left->y) >> 1;
 8002e54:	68fb      	ldr	r3, [r7, #12]
 8002e56:	685a      	ldr	r2, [r3, #4]
 8002e58:	68bb      	ldr	r3, [r7, #8]
 8002e5a:	685b      	ldr	r3, [r3, #4]
 8002e5c:	4413      	add	r3, r2
 8002e5e:	105a      	asrs	r2, r3, #1
 8002e60:	687b      	ldr	r3, [r7, #4]
 8002e62:	605a      	str	r2, [r3, #4]
	if((right->y < 0 && left->y > 0) || (right->y > 0 && left->y < 0))
 8002e64:	68fb      	ldr	r3, [r7, #12]
 8002e66:	685b      	ldr	r3, [r3, #4]
 8002e68:	2b00      	cmp	r3, #0
 8002e6a:	da03      	bge.n	8002e74 <OF_ComputeFused+0x3c>
 8002e6c:	68bb      	ldr	r3, [r7, #8]
 8002e6e:	685b      	ldr	r3, [r3, #4]
 8002e70:	2b00      	cmp	r3, #0
 8002e72:	dc07      	bgt.n	8002e84 <OF_ComputeFused+0x4c>
 8002e74:	68fb      	ldr	r3, [r7, #12]
 8002e76:	685b      	ldr	r3, [r3, #4]
 8002e78:	2b00      	cmp	r3, #0
 8002e7a:	dd0a      	ble.n	8002e92 <OF_ComputeFused+0x5a>
 8002e7c:	68bb      	ldr	r3, [r7, #8]
 8002e7e:	685b      	ldr	r3, [r3, #4]
 8002e80:	2b00      	cmp	r3, #0
 8002e82:	da06      	bge.n	8002e92 <OF_ComputeFused+0x5a>
		fused->theta = (right->y - left->y);
 8002e84:	68fb      	ldr	r3, [r7, #12]
 8002e86:	685a      	ldr	r2, [r3, #4]
 8002e88:	68bb      	ldr	r3, [r7, #8]
 8002e8a:	685b      	ldr	r3, [r3, #4]
 8002e8c:	1ad2      	subs	r2, r2, r3
 8002e8e:	687b      	ldr	r3, [r7, #4]
 8002e90:	609a      	str	r2, [r3, #8]
}
 8002e92:	bf00      	nop
 8002e94:	3714      	adds	r7, #20
 8002e96:	46bd      	mov	sp, r7
 8002e98:	f85d 7b04 	ldr.w	r7, [sp], #4
 8002e9c:	4770      	bx	lr
	...

08002ea0 <LL_AHB2_GRP1_EnableClock>:
{
 8002ea0:	b480      	push	{r7}
 8002ea2:	b085      	sub	sp, #20
 8002ea4:	af00      	add	r7, sp, #0
 8002ea6:	6078      	str	r0, [r7, #4]
  SET_BIT(RCC->AHB2ENR, Periphs);
 8002ea8:	4b08      	ldr	r3, [pc, #32]	; (8002ecc <LL_AHB2_GRP1_EnableClock+0x2c>)
 8002eaa:	6cda      	ldr	r2, [r3, #76]	; 0x4c
 8002eac:	4907      	ldr	r1, [pc, #28]	; (8002ecc <LL_AHB2_GRP1_EnableClock+0x2c>)
 8002eae:	687b      	ldr	r3, [r7, #4]
 8002eb0:	4313      	orrs	r3, r2
 8002eb2:	64cb      	str	r3, [r1, #76]	; 0x4c
  tmpreg = READ_BIT(RCC->AHB2ENR, Periphs);
 8002eb4:	4b05      	ldr	r3, [pc, #20]	; (8002ecc <LL_AHB2_GRP1_EnableClock+0x2c>)
 8002eb6:	6cda      	ldr	r2, [r3, #76]	; 0x4c
 8002eb8:	687b      	ldr	r3, [r7, #4]
 8002eba:	4013      	ands	r3, r2
 8002ebc:	60fb      	str	r3, [r7, #12]
  (void)tmpreg;
 8002ebe:	68fb      	ldr	r3, [r7, #12]
}
 8002ec0:	bf00      	nop
 8002ec2:	3714      	adds	r7, #20
 8002ec4:	46bd      	mov	sp, r7
 8002ec6:	f85d 7b04 	ldr.w	r7, [sp], #4
 8002eca:	4770      	bx	lr
 8002ecc:	40021000 	.word	0x40021000

08002ed0 <LL_APB1_GRP1_EnableClock>:
{
 8002ed0:	b480      	push	{r7}
 8002ed2:	b085      	sub	sp, #20
 8002ed4:	af00      	add	r7, sp, #0
 8002ed6:	6078      	str	r0, [r7, #4]
  SET_BIT(RCC->APB1ENR1, Periphs);
 8002ed8:	4b08      	ldr	r3, [pc, #32]	; (8002efc <LL_APB1_GRP1_EnableClock+0x2c>)
 8002eda:	6d9a      	ldr	r2, [r3, #88]	; 0x58
 8002edc:	4907      	ldr	r1, [pc, #28]	; (8002efc <LL_APB1_GRP1_EnableClock+0x2c>)
 8002ede:	687b      	ldr	r3, [r7, #4]
 8002ee0:	4313      	orrs	r3, r2
 8002ee2:	658b      	str	r3, [r1, #88]	; 0x58
  tmpreg = READ_BIT(RCC->APB1ENR1, Periphs);
 8002ee4:	4b05      	ldr	r3, [pc, #20]	; (8002efc <LL_APB1_GRP1_EnableClock+0x2c>)
 8002ee6:	6d9a      	ldr	r2, [r3, #88]	; 0x58
 8002ee8:	687b      	ldr	r3, [r7, #4]
 8002eea:	4013      	ands	r3, r2
 8002eec:	60fb      	str	r3, [r7, #12]
  (void)tmpreg;
 8002eee:	68fb      	ldr	r3, [r7, #12]
}
 8002ef0:	bf00      	nop
 8002ef2:	3714      	adds	r7, #20
 8002ef4:	46bd      	mov	sp, r7
 8002ef6:	f85d 7b04 	ldr.w	r7, [sp], #4
 8002efa:	4770      	bx	lr
 8002efc:	40021000 	.word	0x40021000

08002f00 <LL_SPI_SetStandard>:
  *         @arg @ref LL_SPI_PROTOCOL_MOTOROLA
  *         @arg @ref LL_SPI_PROTOCOL_TI
  * @retval None
  */
__STATIC_INLINE void LL_SPI_SetStandard(SPI_TypeDef *SPIx, uint32_t Standard)
{
 8002f00:	b480      	push	{r7}
 8002f02:	b083      	sub	sp, #12
 8002f04:	af00      	add	r7, sp, #0
 8002f06:	6078      	str	r0, [r7, #4]
 8002f08:	6039      	str	r1, [r7, #0]
  MODIFY_REG(SPIx->CR2, SPI_CR2_FRF, Standard);
 8002f0a:	687b      	ldr	r3, [r7, #4]
 8002f0c:	685b      	ldr	r3, [r3, #4]
 8002f0e:	f023 0210 	bic.w	r2, r3, #16
 8002f12:	683b      	ldr	r3, [r7, #0]
 8002f14:	431a      	orrs	r2, r3
 8002f16:	687b      	ldr	r3, [r7, #4]
 8002f18:	605a      	str	r2, [r3, #4]
}
 8002f1a:	bf00      	nop
 8002f1c:	370c      	adds	r7, #12
 8002f1e:	46bd      	mov	sp, r7
 8002f20:	f85d 7b04 	ldr.w	r7, [sp], #4
 8002f24:	4770      	bx	lr

08002f26 <LL_SPI_DisableNSSPulseMgt>:
  * @rmtoll CR2          NSSP          LL_SPI_DisableNSSPulseMgt
  * @param  SPIx SPI Instance
  * @retval None
  */
__STATIC_INLINE void LL_SPI_DisableNSSPulseMgt(SPI_TypeDef *SPIx)
{
 8002f26:	b480      	push	{r7}
 8002f28:	b083      	sub	sp, #12
 8002f2a:	af00      	add	r7, sp, #0
 8002f2c:	6078      	str	r0, [r7, #4]
  CLEAR_BIT(SPIx->CR2, SPI_CR2_NSSP);
 8002f2e:	687b      	ldr	r3, [r7, #4]
 8002f30:	685b      	ldr	r3, [r3, #4]
 8002f32:	f023 0208 	bic.w	r2, r3, #8
 8002f36:	687b      	ldr	r3, [r7, #4]
 8002f38:	605a      	str	r2, [r3, #4]
}
 8002f3a:	bf00      	nop
 8002f3c:	370c      	adds	r7, #12
 8002f3e:	46bd      	mov	sp, r7
 8002f40:	f85d 7b04 	ldr.w	r7, [sp], #4
 8002f44:	4770      	bx	lr
	...

08002f48 <MX_SPI2_Init>:

/* USER CODE END 0 */

/* SPI2 init function */
void MX_SPI2_Init(void)
{
 8002f48:	b580      	push	{r7, lr}
 8002f4a:	b090      	sub	sp, #64	; 0x40
 8002f4c:	af00      	add	r7, sp, #0
  LL_SPI_InitTypeDef SPI_InitStruct = {0};
 8002f4e:	f107 0318 	add.w	r3, r7, #24
 8002f52:	2228      	movs	r2, #40	; 0x28
 8002f54:	2100      	movs	r1, #0
 8002f56:	4618      	mov	r0, r3
 8002f58:	f002 fc7e 	bl	8005858 <memset>

  LL_GPIO_InitTypeDef GPIO_InitStruct = {0};
 8002f5c:	463b      	mov	r3, r7
 8002f5e:	2200      	movs	r2, #0
 8002f60:	601a      	str	r2, [r3, #0]
 8002f62:	605a      	str	r2, [r3, #4]
 8002f64:	609a      	str	r2, [r3, #8]
 8002f66:	60da      	str	r2, [r3, #12]
 8002f68:	611a      	str	r2, [r3, #16]
 8002f6a:	615a      	str	r2, [r3, #20]

  /* Peripheral clock enable */
  LL_APB1_GRP1_EnableClock(LL_APB1_GRP1_PERIPH_SPI2);
 8002f6c:	f44f 4080 	mov.w	r0, #16384	; 0x4000
 8002f70:	f7ff ffae 	bl	8002ed0 <LL_APB1_GRP1_EnableClock>

  LL_AHB2_GRP1_EnableClock(LL_AHB2_GRP1_PERIPH_GPIOC);
 8002f74:	2004      	movs	r0, #4
 8002f76:	f7ff ff93 	bl	8002ea0 <LL_AHB2_GRP1_EnableClock>
  LL_AHB2_GRP1_EnableClock(LL_AHB2_GRP1_PERIPH_GPIOB);
 8002f7a:	2002      	movs	r0, #2
 8002f7c:	f7ff ff90 	bl	8002ea0 <LL_AHB2_GRP1_EnableClock>
  /**SPI2 GPIO Configuration
  PC2   ------> SPI2_MISO
  PC3   ------> SPI2_MOSI
  PB10   ------> SPI2_SCK
  */
  GPIO_InitStruct.Pin = LL_GPIO_PIN_2|LL_GPIO_PIN_3;
 8002f80:	230c      	movs	r3, #12
 8002f82:	603b      	str	r3, [r7, #0]
  GPIO_InitStruct.Mode = LL_GPIO_MODE_ALTERNATE;
 8002f84:	2302      	movs	r3, #2
 8002f86:	607b      	str	r3, [r7, #4]
  GPIO_InitStruct.Speed = LL_GPIO_SPEED_FREQ_VERY_HIGH;
 8002f88:	2303      	movs	r3, #3
 8002f8a:	60bb      	str	r3, [r7, #8]
  GPIO_InitStruct.OutputType = LL_GPIO_OUTPUT_PUSHPULL;
 8002f8c:	2300      	movs	r3, #0
 8002f8e:	60fb      	str	r3, [r7, #12]
  GPIO_InitStruct.Pull = LL_GPIO_PULL_NO;
 8002f90:	2300      	movs	r3, #0
 8002f92:	613b      	str	r3, [r7, #16]
  GPIO_InitStruct.Alternate = LL_GPIO_AF_5;
 8002f94:	2305      	movs	r3, #5
 8002f96:	617b      	str	r3, [r7, #20]
  LL_GPIO_Init(GPIOC, &GPIO_InitStruct);
 8002f98:	463b      	mov	r3, r7
 8002f9a:	4619      	mov	r1, r3
 8002f9c:	481e      	ldr	r0, [pc, #120]	; (8003018 <MX_SPI2_Init+0xd0>)
 8002f9e:	f001 fa1c 	bl	80043da <LL_GPIO_Init>

  GPIO_InitStruct.Pin = LL_GPIO_PIN_10;
 8002fa2:	f44f 6380 	mov.w	r3, #1024	; 0x400
 8002fa6:	603b      	str	r3, [r7, #0]
  GPIO_InitStruct.Mode = LL_GPIO_MODE_ALTERNATE;
 8002fa8:	2302      	movs	r3, #2
 8002faa:	607b      	str	r3, [r7, #4]
  GPIO_InitStruct.Speed = LL_GPIO_SPEED_FREQ_VERY_HIGH;
 8002fac:	2303      	movs	r3, #3
 8002fae:	60bb      	str	r3, [r7, #8]
  GPIO_InitStruct.OutputType = LL_GPIO_OUTPUT_PUSHPULL;
 8002fb0:	2300      	movs	r3, #0
 8002fb2:	60fb      	str	r3, [r7, #12]
  GPIO_InitStruct.Pull = LL_GPIO_PULL_NO;
 8002fb4:	2300      	movs	r3, #0
 8002fb6:	613b      	str	r3, [r7, #16]
  GPIO_InitStruct.Alternate = LL_GPIO_AF_5;
 8002fb8:	2305      	movs	r3, #5
 8002fba:	617b      	str	r3, [r7, #20]
  LL_GPIO_Init(GPIOB, &GPIO_InitStruct);
 8002fbc:	463b      	mov	r3, r7
 8002fbe:	4619      	mov	r1, r3
 8002fc0:	4816      	ldr	r0, [pc, #88]	; (800301c <MX_SPI2_Init+0xd4>)
 8002fc2:	f001 fa0a 	bl	80043da <LL_GPIO_Init>

  SPI_InitStruct.TransferDirection = LL_SPI_FULL_DUPLEX;
 8002fc6:	2300      	movs	r3, #0
 8002fc8:	61bb      	str	r3, [r7, #24]
  SPI_InitStruct.Mode = LL_SPI_MODE_MASTER;
 8002fca:	f44f 7382 	mov.w	r3, #260	; 0x104
 8002fce:	61fb      	str	r3, [r7, #28]
  SPI_InitStruct.DataWidth = LL_SPI_DATAWIDTH_8BIT;
 8002fd0:	f44f 63e0 	mov.w	r3, #1792	; 0x700
 8002fd4:	623b      	str	r3, [r7, #32]
  SPI_InitStruct.ClockPolarity = LL_SPI_POLARITY_HIGH;
 8002fd6:	2302      	movs	r3, #2
 8002fd8:	627b      	str	r3, [r7, #36]	; 0x24
  SPI_InitStruct.ClockPhase = LL_SPI_PHASE_2EDGE;
 8002fda:	2301      	movs	r3, #1
 8002fdc:	62bb      	str	r3, [r7, #40]	; 0x28
  SPI_InitStruct.NSS = LL_SPI_NSS_SOFT;
 8002fde:	f44f 7300 	mov.w	r3, #512	; 0x200
 8002fe2:	62fb      	str	r3, [r7, #44]	; 0x2c
  SPI_InitStruct.BaudRate = LL_SPI_BAUDRATEPRESCALER_DIV32;
 8002fe4:	2320      	movs	r3, #32
 8002fe6:	633b      	str	r3, [r7, #48]	; 0x30
  SPI_InitStruct.BitOrder = LL_SPI_MSB_FIRST;
 8002fe8:	2300      	movs	r3, #0
 8002fea:	637b      	str	r3, [r7, #52]	; 0x34
  SPI_InitStruct.CRCCalculation = LL_SPI_CRCCALCULATION_DISABLE;
 8002fec:	2300      	movs	r3, #0
 8002fee:	63bb      	str	r3, [r7, #56]	; 0x38
  SPI_InitStruct.CRCPoly = 7;
 8002ff0:	2307      	movs	r3, #7
 8002ff2:	63fb      	str	r3, [r7, #60]	; 0x3c
  LL_SPI_Init(SPI2, &SPI_InitStruct);
 8002ff4:	f107 0318 	add.w	r3, r7, #24
 8002ff8:	4619      	mov	r1, r3
 8002ffa:	4809      	ldr	r0, [pc, #36]	; (8003020 <MX_SPI2_Init+0xd8>)
 8002ffc:	f001 fe3b 	bl	8004c76 <LL_SPI_Init>
  LL_SPI_SetStandard(SPI2, LL_SPI_PROTOCOL_MOTOROLA);
 8003000:	2100      	movs	r1, #0
 8003002:	4807      	ldr	r0, [pc, #28]	; (8003020 <MX_SPI2_Init+0xd8>)
 8003004:	f7ff ff7c 	bl	8002f00 <LL_SPI_SetStandard>
  LL_SPI_DisableNSSPulseMgt(SPI2);
 8003008:	4805      	ldr	r0, [pc, #20]	; (8003020 <MX_SPI2_Init+0xd8>)
 800300a:	f7ff ff8c 	bl	8002f26 <LL_SPI_DisableNSSPulseMgt>

}
 800300e:	bf00      	nop
 8003010:	3740      	adds	r7, #64	; 0x40
 8003012:	46bd      	mov	sp, r7
 8003014:	bd80      	pop	{r7, pc}
 8003016:	bf00      	nop
 8003018:	48000800 	.word	0x48000800
 800301c:	48000400 	.word	0x48000400
 8003020:	40003800 	.word	0x40003800

08003024 <MX_SPI3_Init>:
/* SPI3 init function */
void MX_SPI3_Init(void)
{
 8003024:	b580      	push	{r7, lr}
 8003026:	b090      	sub	sp, #64	; 0x40
 8003028:	af00      	add	r7, sp, #0
  LL_SPI_InitTypeDef SPI_InitStruct = {0};
 800302a:	f107 0318 	add.w	r3, r7, #24
 800302e:	2228      	movs	r2, #40	; 0x28
 8003030:	2100      	movs	r1, #0
 8003032:	4618      	mov	r0, r3
 8003034:	f002 fc10 	bl	8005858 <memset>

  LL_GPIO_InitTypeDef GPIO_InitStruct = {0};
 8003038:	463b      	mov	r3, r7
 800303a:	2200      	movs	r2, #0
 800303c:	601a      	str	r2, [r3, #0]
 800303e:	605a      	str	r2, [r3, #4]
 8003040:	609a      	str	r2, [r3, #8]
 8003042:	60da      	str	r2, [r3, #12]
 8003044:	611a      	str	r2, [r3, #16]
 8003046:	615a      	str	r2, [r3, #20]

  /* Peripheral clock enable */
  LL_APB1_GRP1_EnableClock(LL_APB1_GRP1_PERIPH_SPI3);
 8003048:	f44f 4000 	mov.w	r0, #32768	; 0x8000
 800304c:	f7ff ff40 	bl	8002ed0 <LL_APB1_GRP1_EnableClock>

  LL_AHB2_GRP1_EnableClock(LL_AHB2_GRP1_PERIPH_GPIOC);
 8003050:	2004      	movs	r0, #4
 8003052:	f7ff ff25 	bl	8002ea0 <LL_AHB2_GRP1_EnableClock>
  /**SPI3 GPIO Configuration
  PC10   ------> SPI3_SCK
  PC11   ------> SPI3_MISO
  PC12   ------> SPI3_MOSI
  */
  GPIO_InitStruct.Pin = LL_GPIO_PIN_10|LL_GPIO_PIN_11|LL_GPIO_PIN_12;
 8003056:	f44f 53e0 	mov.w	r3, #7168	; 0x1c00
 800305a:	603b      	str	r3, [r7, #0]
  GPIO_InitStruct.Mode = LL_GPIO_MODE_ALTERNATE;
 800305c:	2302      	movs	r3, #2
 800305e:	607b      	str	r3, [r7, #4]
  GPIO_InitStruct.Speed = LL_GPIO_SPEED_FREQ_VERY_HIGH;
 8003060:	2303      	movs	r3, #3
 8003062:	60bb      	str	r3, [r7, #8]
  GPIO_InitStruct.OutputType = LL_GPIO_OUTPUT_PUSHPULL;
 8003064:	2300      	movs	r3, #0
 8003066:	60fb      	str	r3, [r7, #12]
  GPIO_InitStruct.Pull = LL_GPIO_PULL_NO;
 8003068:	2300      	movs	r3, #0
 800306a:	613b      	str	r3, [r7, #16]
  GPIO_InitStruct.Alternate = LL_GPIO_AF_6;
 800306c:	2306      	movs	r3, #6
 800306e:	617b      	str	r3, [r7, #20]
  LL_GPIO_Init(GPIOC, &GPIO_InitStruct);
 8003070:	463b      	mov	r3, r7
 8003072:	4619      	mov	r1, r3
 8003074:	4815      	ldr	r0, [pc, #84]	; (80030cc <MX_SPI3_Init+0xa8>)
 8003076:	f001 f9b0 	bl	80043da <LL_GPIO_Init>

  SPI_InitStruct.TransferDirection = LL_SPI_FULL_DUPLEX;
 800307a:	2300      	movs	r3, #0
 800307c:	61bb      	str	r3, [r7, #24]
  SPI_InitStruct.Mode = LL_SPI_MODE_MASTER;
 800307e:	f44f 7382 	mov.w	r3, #260	; 0x104
 8003082:	61fb      	str	r3, [r7, #28]
  SPI_InitStruct.DataWidth = LL_SPI_DATAWIDTH_8BIT;
 8003084:	f44f 63e0 	mov.w	r3, #1792	; 0x700
 8003088:	623b      	str	r3, [r7, #32]
  SPI_InitStruct.ClockPolarity = LL_SPI_POLARITY_HIGH;
 800308a:	2302      	movs	r3, #2
 800308c:	627b      	str	r3, [r7, #36]	; 0x24
  SPI_InitStruct.ClockPhase = LL_SPI_PHASE_2EDGE;
 800308e:	2301      	movs	r3, #1
 8003090:	62bb      	str	r3, [r7, #40]	; 0x28
  SPI_InitStruct.NSS = LL_SPI_NSS_SOFT;
 8003092:	f44f 7300 	mov.w	r3, #512	; 0x200
 8003096:	62fb      	str	r3, [r7, #44]	; 0x2c
  SPI_InitStruct.BaudRate = LL_SPI_BAUDRATEPRESCALER_DIV32;
 8003098:	2320      	movs	r3, #32
 800309a:	633b      	str	r3, [r7, #48]	; 0x30
  SPI_InitStruct.BitOrder = LL_SPI_MSB_FIRST;
 800309c:	2300      	movs	r3, #0
 800309e:	637b      	str	r3, [r7, #52]	; 0x34
  SPI_InitStruct.CRCCalculation = LL_SPI_CRCCALCULATION_DISABLE;
 80030a0:	2300      	movs	r3, #0
 80030a2:	63bb      	str	r3, [r7, #56]	; 0x38
  SPI_InitStruct.CRCPoly = 7;
 80030a4:	2307      	movs	r3, #7
 80030a6:	63fb      	str	r3, [r7, #60]	; 0x3c
  LL_SPI_Init(SPI3, &SPI_InitStruct);
 80030a8:	f107 0318 	add.w	r3, r7, #24
 80030ac:	4619      	mov	r1, r3
 80030ae:	4808      	ldr	r0, [pc, #32]	; (80030d0 <MX_SPI3_Init+0xac>)
 80030b0:	f001 fde1 	bl	8004c76 <LL_SPI_Init>
  LL_SPI_SetStandard(SPI3, LL_SPI_PROTOCOL_MOTOROLA);
 80030b4:	2100      	movs	r1, #0
 80030b6:	4806      	ldr	r0, [pc, #24]	; (80030d0 <MX_SPI3_Init+0xac>)
 80030b8:	f7ff ff22 	bl	8002f00 <LL_SPI_SetStandard>
  LL_SPI_DisableNSSPulseMgt(SPI3);
 80030bc:	4804      	ldr	r0, [pc, #16]	; (80030d0 <MX_SPI3_Init+0xac>)
 80030be:	f7ff ff32 	bl	8002f26 <LL_SPI_DisableNSSPulseMgt>

}
 80030c2:	bf00      	nop
 80030c4:	3740      	adds	r7, #64	; 0x40
 80030c6:	46bd      	mov	sp, r7
 80030c8:	bd80      	pop	{r7, pc}
 80030ca:	bf00      	nop
 80030cc:	48000800 	.word	0x48000800
 80030d0:	40003c00 	.word	0x40003c00

080030d4 <NMI_Handler>:
/******************************************************************************/
/**
  * @brief This function handles Non maskable interrupt.
  */
void NMI_Handler(void)
{
 80030d4:	b480      	push	{r7}
 80030d6:	af00      	add	r7, sp, #0

  /* USER CODE END NonMaskableInt_IRQn 0 */
  /* USER CODE BEGIN NonMaskableInt_IRQn 1 */

  /* USER CODE END NonMaskableInt_IRQn 1 */
}
 80030d8:	bf00      	nop
 80030da:	46bd      	mov	sp, r7
 80030dc:	f85d 7b04 	ldr.w	r7, [sp], #4
 80030e0:	4770      	bx	lr

080030e2 <HardFault_Handler>:

/**
  * @brief This function handles Hard fault interrupt.
  */
void HardFault_Handler(void)
{
 80030e2:	b480      	push	{r7}
 80030e4:	af00      	add	r7, sp, #0
  /* USER CODE BEGIN HardFault_IRQn 0 */

  /* USER CODE END HardFault_IRQn 0 */
  while (1)
 80030e6:	e7fe      	b.n	80030e6 <HardFault_Handler+0x4>

080030e8 <MemManage_Handler>:

/**
  * @brief This function handles Memory management fault.
  */
void MemManage_Handler(void)
{
 80030e8:	b480      	push	{r7}
 80030ea:	af00      	add	r7, sp, #0
  /* USER CODE BEGIN MemoryManagement_IRQn 0 */

  /* USER CODE END MemoryManagement_IRQn 0 */
  while (1)
 80030ec:	e7fe      	b.n	80030ec <MemManage_Handler+0x4>

080030ee <BusFault_Handler>:

/**
  * @brief This function handles Prefetch fault, memory access fault.
  */
void BusFault_Handler(void)
{
 80030ee:	b480      	push	{r7}
 80030f0:	af00      	add	r7, sp, #0
  /* USER CODE BEGIN BusFault_IRQn 0 */

  /* USER CODE END BusFault_IRQn 0 */
  while (1)
 80030f2:	e7fe      	b.n	80030f2 <BusFault_Handler+0x4>

080030f4 <UsageFault_Handler>:

/**
  * @brief This function handles Undefined instruction or illegal state.
  */
void UsageFault_Handler(void)
{
 80030f4:	b480      	push	{r7}
 80030f6:	af00      	add	r7, sp, #0
  /* USER CODE BEGIN UsageFault_IRQn 0 */

  /* USER CODE END UsageFault_IRQn 0 */
  while (1)
 80030f8:	e7fe      	b.n	80030f8 <UsageFault_Handler+0x4>

080030fa <SVC_Handler>:

/**
  * @brief This function handles System service call via SWI instruction.
  */
void SVC_Handler(void)
{
 80030fa:	b480      	push	{r7}
 80030fc:	af00      	add	r7, sp, #0

  /* USER CODE END SVCall_IRQn 0 */
  /* USER CODE BEGIN SVCall_IRQn 1 */

  /* USER CODE END SVCall_IRQn 1 */
}
 80030fe:	bf00      	nop
 8003100:	46bd      	mov	sp, r7
 8003102:	f85d 7b04 	ldr.w	r7, [sp], #4
 8003106:	4770      	bx	lr

08003108 <DebugMon_Handler>:

/**
  * @brief This function handles Debug monitor.
  */
void DebugMon_Handler(void)
{
 8003108:	b480      	push	{r7}
 800310a:	af00      	add	r7, sp, #0

  /* USER CODE END DebugMonitor_IRQn 0 */
  /* USER CODE BEGIN DebugMonitor_IRQn 1 */

  /* USER CODE END DebugMonitor_IRQn 1 */
}
 800310c:	bf00      	nop
 800310e:	46bd      	mov	sp, r7
 8003110:	f85d 7b04 	ldr.w	r7, [sp], #4
 8003114:	4770      	bx	lr

08003116 <PendSV_Handler>:

/**
  * @brief This function handles Pendable request for system service.
  */
void PendSV_Handler(void)
{
 8003116:	b480      	push	{r7}
 8003118:	af00      	add	r7, sp, #0

  /* USER CODE END PendSV_IRQn 0 */
  /* USER CODE BEGIN PendSV_IRQn 1 */

  /* USER CODE END PendSV_IRQn 1 */
}
 800311a:	bf00      	nop
 800311c:	46bd      	mov	sp, r7
 800311e:	f85d 7b04 	ldr.w	r7, [sp], #4
 8003122:	4770      	bx	lr

08003124 <SysTick_Handler>:

/**
  * @brief This function handles System tick timer.
  */
void SysTick_Handler(void)
{
 8003124:	b480      	push	{r7}
 8003126:	af00      	add	r7, sp, #0
  /* USER CODE END SysTick_IRQn 0 */

  /* USER CODE BEGIN SysTick_IRQn 1 */

  /* USER CODE END SysTick_IRQn 1 */
}
 8003128:	bf00      	nop
 800312a:	46bd      	mov	sp, r7
 800312c:	f85d 7b04 	ldr.w	r7, [sp], #4
 8003130:	4770      	bx	lr

08003132 <_read>:
	_kill(status, -1);
	while (1) {}		/* Make sure we hang here */
}

__attribute__((weak)) int _read(int file, char *ptr, int len)
{
 8003132:	b580      	push	{r7, lr}
 8003134:	b086      	sub	sp, #24
 8003136:	af00      	add	r7, sp, #0
 8003138:	60f8      	str	r0, [r7, #12]
 800313a:	60b9      	str	r1, [r7, #8]
 800313c:	607a      	str	r2, [r7, #4]
	int DataIdx;

	for (DataIdx = 0; DataIdx < len; DataIdx++)
 800313e:	2300      	movs	r3, #0
 8003140:	617b      	str	r3, [r7, #20]
 8003142:	e00a      	b.n	800315a <_read+0x28>
	{
		*ptr++ = __io_getchar();
 8003144:	f000 fcd8 	bl	8003af8 <__io_getchar>
 8003148:	4601      	mov	r1, r0
 800314a:	68bb      	ldr	r3, [r7, #8]
 800314c:	1c5a      	adds	r2, r3, #1
 800314e:	60ba      	str	r2, [r7, #8]
 8003150:	b2ca      	uxtb	r2, r1
 8003152:	701a      	strb	r2, [r3, #0]
	for (DataIdx = 0; DataIdx < len; DataIdx++)
 8003154:	697b      	ldr	r3, [r7, #20]
 8003156:	3301      	adds	r3, #1
 8003158:	617b      	str	r3, [r7, #20]
 800315a:	697a      	ldr	r2, [r7, #20]
 800315c:	687b      	ldr	r3, [r7, #4]
 800315e:	429a      	cmp	r2, r3
 8003160:	dbf0      	blt.n	8003144 <_read+0x12>
	}

return len;
 8003162:	687b      	ldr	r3, [r7, #4]
}
 8003164:	4618      	mov	r0, r3
 8003166:	3718      	adds	r7, #24
 8003168:	46bd      	mov	sp, r7
 800316a:	bd80      	pop	{r7, pc}

0800316c <_write>:

__attribute__((weak)) int _write(int file, char *ptr, int len)
{
 800316c:	b580      	push	{r7, lr}
 800316e:	b086      	sub	sp, #24
 8003170:	af00      	add	r7, sp, #0
 8003172:	60f8      	str	r0, [r7, #12]
 8003174:	60b9      	str	r1, [r7, #8]
 8003176:	607a      	str	r2, [r7, #4]
	int DataIdx;

	for (DataIdx = 0; DataIdx < len; DataIdx++)
 8003178:	2300      	movs	r3, #0
 800317a:	617b      	str	r3, [r7, #20]
 800317c:	e009      	b.n	8003192 <_write+0x26>
	{
		__io_putchar(*ptr++);
 800317e:	68bb      	ldr	r3, [r7, #8]
 8003180:	1c5a      	adds	r2, r3, #1
 8003182:	60ba      	str	r2, [r7, #8]
 8003184:	781b      	ldrb	r3, [r3, #0]
 8003186:	4618      	mov	r0, r3
 8003188:	f000 fc98 	bl	8003abc <__io_putchar>
	for (DataIdx = 0; DataIdx < len; DataIdx++)
 800318c:	697b      	ldr	r3, [r7, #20]
 800318e:	3301      	adds	r3, #1
 8003190:	617b      	str	r3, [r7, #20]
 8003192:	697a      	ldr	r2, [r7, #20]
 8003194:	687b      	ldr	r3, [r7, #4]
 8003196:	429a      	cmp	r2, r3
 8003198:	dbf1      	blt.n	800317e <_write+0x12>
	}
	return len;
 800319a:	687b      	ldr	r3, [r7, #4]
}
 800319c:	4618      	mov	r0, r3
 800319e:	3718      	adds	r7, #24
 80031a0:	46bd      	mov	sp, r7
 80031a2:	bd80      	pop	{r7, pc}

080031a4 <_close>:

int _close(int file)
{
 80031a4:	b480      	push	{r7}
 80031a6:	b083      	sub	sp, #12
 80031a8:	af00      	add	r7, sp, #0
 80031aa:	6078      	str	r0, [r7, #4]
	return -1;
 80031ac:	f04f 33ff 	mov.w	r3, #4294967295
}
 80031b0:	4618      	mov	r0, r3
 80031b2:	370c      	adds	r7, #12
 80031b4:	46bd      	mov	sp, r7
 80031b6:	f85d 7b04 	ldr.w	r7, [sp], #4
 80031ba:	4770      	bx	lr

080031bc <_fstat>:


int _fstat(int file, struct stat *st)
{
 80031bc:	b480      	push	{r7}
 80031be:	b083      	sub	sp, #12
 80031c0:	af00      	add	r7, sp, #0
 80031c2:	6078      	str	r0, [r7, #4]
 80031c4:	6039      	str	r1, [r7, #0]
	st->st_mode = S_IFCHR;
 80031c6:	683b      	ldr	r3, [r7, #0]
 80031c8:	f44f 5200 	mov.w	r2, #8192	; 0x2000
 80031cc:	605a      	str	r2, [r3, #4]
	return 0;
 80031ce:	2300      	movs	r3, #0
}
 80031d0:	4618      	mov	r0, r3
 80031d2:	370c      	adds	r7, #12
 80031d4:	46bd      	mov	sp, r7
 80031d6:	f85d 7b04 	ldr.w	r7, [sp], #4
 80031da:	4770      	bx	lr

080031dc <_isatty>:

int _isatty(int file)
{
 80031dc:	b480      	push	{r7}
 80031de:	b083      	sub	sp, #12
 80031e0:	af00      	add	r7, sp, #0
 80031e2:	6078      	str	r0, [r7, #4]
	return 1;
 80031e4:	2301      	movs	r3, #1
}
 80031e6:	4618      	mov	r0, r3
 80031e8:	370c      	adds	r7, #12
 80031ea:	46bd      	mov	sp, r7
 80031ec:	f85d 7b04 	ldr.w	r7, [sp], #4
 80031f0:	4770      	bx	lr

080031f2 <_lseek>:

int _lseek(int file, int ptr, int dir)
{
 80031f2:	b480      	push	{r7}
 80031f4:	b085      	sub	sp, #20
 80031f6:	af00      	add	r7, sp, #0
 80031f8:	60f8      	str	r0, [r7, #12]
 80031fa:	60b9      	str	r1, [r7, #8]
 80031fc:	607a      	str	r2, [r7, #4]
	return 0;
 80031fe:	2300      	movs	r3, #0
}
 8003200:	4618      	mov	r0, r3
 8003202:	3714      	adds	r7, #20
 8003204:	46bd      	mov	sp, r7
 8003206:	f85d 7b04 	ldr.w	r7, [sp], #4
 800320a:	4770      	bx	lr

0800320c <_sbrk>:
 *
 * @param incr Memory size
 * @return Pointer to allocated memory
 */
void *_sbrk(ptrdiff_t incr)
{
 800320c:	b580      	push	{r7, lr}
 800320e:	b086      	sub	sp, #24
 8003210:	af00      	add	r7, sp, #0
 8003212:	6078      	str	r0, [r7, #4]
  extern uint8_t _end; /* Symbol defined in the linker script */
  extern uint8_t _estack; /* Symbol defined in the linker script */
  extern uint32_t _Min_Stack_Size; /* Symbol defined in the linker script */
  const uint32_t stack_limit = (uint32_t)&_estack - (uint32_t)&_Min_Stack_Size;
 8003214:	4a14      	ldr	r2, [pc, #80]	; (8003268 <_sbrk+0x5c>)
 8003216:	4b15      	ldr	r3, [pc, #84]	; (800326c <_sbrk+0x60>)
 8003218:	1ad3      	subs	r3, r2, r3
 800321a:	617b      	str	r3, [r7, #20]
  const uint8_t *max_heap = (uint8_t *)stack_limit;
 800321c:	697b      	ldr	r3, [r7, #20]
 800321e:	613b      	str	r3, [r7, #16]
  uint8_t *prev_heap_end;

  /* Initalize heap end at first call */
  if (NULL == __sbrk_heap_end)
 8003220:	4b13      	ldr	r3, [pc, #76]	; (8003270 <_sbrk+0x64>)
 8003222:	681b      	ldr	r3, [r3, #0]
 8003224:	2b00      	cmp	r3, #0
 8003226:	d102      	bne.n	800322e <_sbrk+0x22>
  {
    __sbrk_heap_end = &_end;
 8003228:	4b11      	ldr	r3, [pc, #68]	; (8003270 <_sbrk+0x64>)
 800322a:	4a12      	ldr	r2, [pc, #72]	; (8003274 <_sbrk+0x68>)
 800322c:	601a      	str	r2, [r3, #0]
  }

  /* Protect heap from growing into the reserved MSP stack */
  if (__sbrk_heap_end + incr > max_heap)
 800322e:	4b10      	ldr	r3, [pc, #64]	; (8003270 <_sbrk+0x64>)
 8003230:	681a      	ldr	r2, [r3, #0]
 8003232:	687b      	ldr	r3, [r7, #4]
 8003234:	4413      	add	r3, r2
 8003236:	693a      	ldr	r2, [r7, #16]
 8003238:	429a      	cmp	r2, r3
 800323a:	d207      	bcs.n	800324c <_sbrk+0x40>
  {
    errno = ENOMEM;
 800323c:	f002 fae2 	bl	8005804 <__errno>
 8003240:	4602      	mov	r2, r0
 8003242:	230c      	movs	r3, #12
 8003244:	6013      	str	r3, [r2, #0]
    return (void *)-1;
 8003246:	f04f 33ff 	mov.w	r3, #4294967295
 800324a:	e009      	b.n	8003260 <_sbrk+0x54>
  }

  prev_heap_end = __sbrk_heap_end;
 800324c:	4b08      	ldr	r3, [pc, #32]	; (8003270 <_sbrk+0x64>)
 800324e:	681b      	ldr	r3, [r3, #0]
 8003250:	60fb      	str	r3, [r7, #12]
  __sbrk_heap_end += incr;
 8003252:	4b07      	ldr	r3, [pc, #28]	; (8003270 <_sbrk+0x64>)
 8003254:	681a      	ldr	r2, [r3, #0]
 8003256:	687b      	ldr	r3, [r7, #4]
 8003258:	4413      	add	r3, r2
 800325a:	4a05      	ldr	r2, [pc, #20]	; (8003270 <_sbrk+0x64>)
 800325c:	6013      	str	r3, [r2, #0]

  return (void *)prev_heap_end;
 800325e:	68fb      	ldr	r3, [r7, #12]
}
 8003260:	4618      	mov	r0, r3
 8003262:	3718      	adds	r7, #24
 8003264:	46bd      	mov	sp, r7
 8003266:	bd80      	pop	{r7, pc}
 8003268:	20018000 	.word	0x20018000
 800326c:	00000400 	.word	0x00000400
 8003270:	20000680 	.word	0x20000680
 8003274:	20000698 	.word	0x20000698

08003278 <SystemInit>:
  * @param  None
  * @retval None
  */

void SystemInit(void)
{
 8003278:	b480      	push	{r7}
 800327a:	af00      	add	r7, sp, #0
  /* FPU settings ------------------------------------------------------------*/
  #if (__FPU_PRESENT == 1) && (__FPU_USED == 1)
    SCB->CPACR |= ((3UL << 10*2)|(3UL << 11*2));  /* set CP10 and CP11 Full Access */
 800327c:	4b17      	ldr	r3, [pc, #92]	; (80032dc <SystemInit+0x64>)
 800327e:	f8d3 3088 	ldr.w	r3, [r3, #136]	; 0x88
 8003282:	4a16      	ldr	r2, [pc, #88]	; (80032dc <SystemInit+0x64>)
 8003284:	f443 0370 	orr.w	r3, r3, #15728640	; 0xf00000
 8003288:	f8c2 3088 	str.w	r3, [r2, #136]	; 0x88
  #endif

  /* Reset the RCC clock configuration to the default reset state ------------*/
  /* Set MSION bit */
  RCC->CR |= RCC_CR_MSION;
 800328c:	4b14      	ldr	r3, [pc, #80]	; (80032e0 <SystemInit+0x68>)
 800328e:	681b      	ldr	r3, [r3, #0]
 8003290:	4a13      	ldr	r2, [pc, #76]	; (80032e0 <SystemInit+0x68>)
 8003292:	f043 0301 	orr.w	r3, r3, #1
 8003296:	6013      	str	r3, [r2, #0]

  /* Reset CFGR register */
  RCC->CFGR = 0x00000000U;
 8003298:	4b11      	ldr	r3, [pc, #68]	; (80032e0 <SystemInit+0x68>)
 800329a:	2200      	movs	r2, #0
 800329c:	609a      	str	r2, [r3, #8]

  /* Reset HSEON, CSSON , HSION, and PLLON bits */
  RCC->CR &= 0xEAF6FFFFU;
 800329e:	4b10      	ldr	r3, [pc, #64]	; (80032e0 <SystemInit+0x68>)
 80032a0:	681b      	ldr	r3, [r3, #0]
 80032a2:	4a0f      	ldr	r2, [pc, #60]	; (80032e0 <SystemInit+0x68>)
 80032a4:	f023 53a8 	bic.w	r3, r3, #352321536	; 0x15000000
 80032a8:	f423 2310 	bic.w	r3, r3, #589824	; 0x90000
 80032ac:	6013      	str	r3, [r2, #0]

  /* Reset PLLCFGR register */
  RCC->PLLCFGR = 0x00001000U;
 80032ae:	4b0c      	ldr	r3, [pc, #48]	; (80032e0 <SystemInit+0x68>)
 80032b0:	f44f 5280 	mov.w	r2, #4096	; 0x1000
 80032b4:	60da      	str	r2, [r3, #12]

  /* Reset HSEBYP bit */
  RCC->CR &= 0xFFFBFFFFU;
 80032b6:	4b0a      	ldr	r3, [pc, #40]	; (80032e0 <SystemInit+0x68>)
 80032b8:	681b      	ldr	r3, [r3, #0]
 80032ba:	4a09      	ldr	r2, [pc, #36]	; (80032e0 <SystemInit+0x68>)
 80032bc:	f423 2380 	bic.w	r3, r3, #262144	; 0x40000
 80032c0:	6013      	str	r3, [r2, #0]

  /* Disable all interrupts */
  RCC->CIER = 0x00000000U;
 80032c2:	4b07      	ldr	r3, [pc, #28]	; (80032e0 <SystemInit+0x68>)
 80032c4:	2200      	movs	r2, #0
 80032c6:	619a      	str	r2, [r3, #24]

  /* Configure the Vector Table location add offset address ------------------*/
#ifdef VECT_TAB_SRAM
  SCB->VTOR = SRAM_BASE | VECT_TAB_OFFSET; /* Vector Table Relocation in Internal SRAM */
#else
  SCB->VTOR = FLASH_BASE | VECT_TAB_OFFSET; /* Vector Table Relocation in Internal FLASH */
 80032c8:	4b04      	ldr	r3, [pc, #16]	; (80032dc <SystemInit+0x64>)
 80032ca:	f04f 6200 	mov.w	r2, #134217728	; 0x8000000
 80032ce:	609a      	str	r2, [r3, #8]
#endif
}
 80032d0:	bf00      	nop
 80032d2:	46bd      	mov	sp, r7
 80032d4:	f85d 7b04 	ldr.w	r7, [sp], #4
 80032d8:	4770      	bx	lr
 80032da:	bf00      	nop
 80032dc:	e000ed00 	.word	0xe000ed00
 80032e0:	40021000 	.word	0x40021000

080032e4 <LL_AHB2_GRP1_EnableClock>:
{
 80032e4:	b480      	push	{r7}
 80032e6:	b085      	sub	sp, #20
 80032e8:	af00      	add	r7, sp, #0
 80032ea:	6078      	str	r0, [r7, #4]
  SET_BIT(RCC->AHB2ENR, Periphs);
 80032ec:	4b08      	ldr	r3, [pc, #32]	; (8003310 <LL_AHB2_GRP1_EnableClock+0x2c>)
 80032ee:	6cda      	ldr	r2, [r3, #76]	; 0x4c
 80032f0:	4907      	ldr	r1, [pc, #28]	; (8003310 <LL_AHB2_GRP1_EnableClock+0x2c>)
 80032f2:	687b      	ldr	r3, [r7, #4]
 80032f4:	4313      	orrs	r3, r2
 80032f6:	64cb      	str	r3, [r1, #76]	; 0x4c
  tmpreg = READ_BIT(RCC->AHB2ENR, Periphs);
 80032f8:	4b05      	ldr	r3, [pc, #20]	; (8003310 <LL_AHB2_GRP1_EnableClock+0x2c>)
 80032fa:	6cda      	ldr	r2, [r3, #76]	; 0x4c
 80032fc:	687b      	ldr	r3, [r7, #4]
 80032fe:	4013      	ands	r3, r2
 8003300:	60fb      	str	r3, [r7, #12]
  (void)tmpreg;
 8003302:	68fb      	ldr	r3, [r7, #12]
}
 8003304:	bf00      	nop
 8003306:	3714      	adds	r7, #20
 8003308:	46bd      	mov	sp, r7
 800330a:	f85d 7b04 	ldr.w	r7, [sp], #4
 800330e:	4770      	bx	lr
 8003310:	40021000 	.word	0x40021000

08003314 <LL_APB1_GRP1_EnableClock>:
{
 8003314:	b480      	push	{r7}
 8003316:	b085      	sub	sp, #20
 8003318:	af00      	add	r7, sp, #0
 800331a:	6078      	str	r0, [r7, #4]
  SET_BIT(RCC->APB1ENR1, Periphs);
 800331c:	4b08      	ldr	r3, [pc, #32]	; (8003340 <LL_APB1_GRP1_EnableClock+0x2c>)
 800331e:	6d9a      	ldr	r2, [r3, #88]	; 0x58
 8003320:	4907      	ldr	r1, [pc, #28]	; (8003340 <LL_APB1_GRP1_EnableClock+0x2c>)
 8003322:	687b      	ldr	r3, [r7, #4]
 8003324:	4313      	orrs	r3, r2
 8003326:	658b      	str	r3, [r1, #88]	; 0x58
  tmpreg = READ_BIT(RCC->APB1ENR1, Periphs);
 8003328:	4b05      	ldr	r3, [pc, #20]	; (8003340 <LL_APB1_GRP1_EnableClock+0x2c>)
 800332a:	6d9a      	ldr	r2, [r3, #88]	; 0x58
 800332c:	687b      	ldr	r3, [r7, #4]
 800332e:	4013      	ands	r3, r2
 8003330:	60fb      	str	r3, [r7, #12]
  (void)tmpreg;
 8003332:	68fb      	ldr	r3, [r7, #12]
}
 8003334:	bf00      	nop
 8003336:	3714      	adds	r7, #20
 8003338:	46bd      	mov	sp, r7
 800333a:	f85d 7b04 	ldr.w	r7, [sp], #4
 800333e:	4770      	bx	lr
 8003340:	40021000 	.word	0x40021000

08003344 <LL_APB2_GRP1_EnableClock>:
{
 8003344:	b480      	push	{r7}
 8003346:	b085      	sub	sp, #20
 8003348:	af00      	add	r7, sp, #0
 800334a:	6078      	str	r0, [r7, #4]
  SET_BIT(RCC->APB2ENR, Periphs);
 800334c:	4b08      	ldr	r3, [pc, #32]	; (8003370 <LL_APB2_GRP1_EnableClock+0x2c>)
 800334e:	6e1a      	ldr	r2, [r3, #96]	; 0x60
 8003350:	4907      	ldr	r1, [pc, #28]	; (8003370 <LL_APB2_GRP1_EnableClock+0x2c>)
 8003352:	687b      	ldr	r3, [r7, #4]
 8003354:	4313      	orrs	r3, r2
 8003356:	660b      	str	r3, [r1, #96]	; 0x60
  tmpreg = READ_BIT(RCC->APB2ENR, Periphs);
 8003358:	4b05      	ldr	r3, [pc, #20]	; (8003370 <LL_APB2_GRP1_EnableClock+0x2c>)
 800335a:	6e1a      	ldr	r2, [r3, #96]	; 0x60
 800335c:	687b      	ldr	r3, [r7, #4]
 800335e:	4013      	ands	r3, r2
 8003360:	60fb      	str	r3, [r7, #12]
  (void)tmpreg;
 8003362:	68fb      	ldr	r3, [r7, #12]
}
 8003364:	bf00      	nop
 8003366:	3714      	adds	r7, #20
 8003368:	46bd      	mov	sp, r7
 800336a:	f85d 7b04 	ldr.w	r7, [sp], #4
 800336e:	4770      	bx	lr
 8003370:	40021000 	.word	0x40021000

08003374 <LL_TIM_DisableARRPreload>:
  * @rmtoll CR1          ARPE          LL_TIM_DisableARRPreload
  * @param  TIMx Timer instance
  * @retval None
  */
__STATIC_INLINE void LL_TIM_DisableARRPreload(TIM_TypeDef *TIMx)
{
 8003374:	b480      	push	{r7}
 8003376:	b083      	sub	sp, #12
 8003378:	af00      	add	r7, sp, #0
 800337a:	6078      	str	r0, [r7, #4]
  CLEAR_BIT(TIMx->CR1, TIM_CR1_ARPE);
 800337c:	687b      	ldr	r3, [r7, #4]
 800337e:	681b      	ldr	r3, [r3, #0]
 8003380:	f023 0280 	bic.w	r2, r3, #128	; 0x80
 8003384:	687b      	ldr	r3, [r7, #4]
 8003386:	601a      	str	r2, [r3, #0]
}
 8003388:	bf00      	nop
 800338a:	370c      	adds	r7, #12
 800338c:	46bd      	mov	sp, r7
 800338e:	f85d 7b04 	ldr.w	r7, [sp], #4
 8003392:	4770      	bx	lr

08003394 <LL_TIM_OC_DisableFast>:
  *         @arg @ref LL_TIM_CHANNEL_CH5
  *         @arg @ref LL_TIM_CHANNEL_CH6
  * @retval None
  */
__STATIC_INLINE void LL_TIM_OC_DisableFast(TIM_TypeDef *TIMx, uint32_t Channel)
{
 8003394:	b480      	push	{r7}
 8003396:	b085      	sub	sp, #20
 8003398:	af00      	add	r7, sp, #0
 800339a:	6078      	str	r0, [r7, #4]
 800339c:	6039      	str	r1, [r7, #0]
   uint8_t iChannel = TIM_GET_CHANNEL_INDEX(Channel);
 800339e:	683b      	ldr	r3, [r7, #0]
 80033a0:	2b01      	cmp	r3, #1
 80033a2:	d028      	beq.n	80033f6 <LL_TIM_OC_DisableFast+0x62>
 80033a4:	683b      	ldr	r3, [r7, #0]
 80033a6:	2b04      	cmp	r3, #4
 80033a8:	d023      	beq.n	80033f2 <LL_TIM_OC_DisableFast+0x5e>
 80033aa:	683b      	ldr	r3, [r7, #0]
 80033ac:	2b10      	cmp	r3, #16
 80033ae:	d01e      	beq.n	80033ee <LL_TIM_OC_DisableFast+0x5a>
 80033b0:	683b      	ldr	r3, [r7, #0]
 80033b2:	2b40      	cmp	r3, #64	; 0x40
 80033b4:	d019      	beq.n	80033ea <LL_TIM_OC_DisableFast+0x56>
 80033b6:	683b      	ldr	r3, [r7, #0]
 80033b8:	f5b3 7f80 	cmp.w	r3, #256	; 0x100
 80033bc:	d013      	beq.n	80033e6 <LL_TIM_OC_DisableFast+0x52>
 80033be:	683b      	ldr	r3, [r7, #0]
 80033c0:	f5b3 6f80 	cmp.w	r3, #1024	; 0x400
 80033c4:	d00d      	beq.n	80033e2 <LL_TIM_OC_DisableFast+0x4e>
 80033c6:	683b      	ldr	r3, [r7, #0]
 80033c8:	f5b3 5f80 	cmp.w	r3, #4096	; 0x1000
 80033cc:	d007      	beq.n	80033de <LL_TIM_OC_DisableFast+0x4a>
 80033ce:	683b      	ldr	r3, [r7, #0]
 80033d0:	f5b3 3f80 	cmp.w	r3, #65536	; 0x10000
 80033d4:	d101      	bne.n	80033da <LL_TIM_OC_DisableFast+0x46>
 80033d6:	2307      	movs	r3, #7
 80033d8:	e00e      	b.n	80033f8 <LL_TIM_OC_DisableFast+0x64>
 80033da:	2308      	movs	r3, #8
 80033dc:	e00c      	b.n	80033f8 <LL_TIM_OC_DisableFast+0x64>
 80033de:	2306      	movs	r3, #6
 80033e0:	e00a      	b.n	80033f8 <LL_TIM_OC_DisableFast+0x64>
 80033e2:	2305      	movs	r3, #5
 80033e4:	e008      	b.n	80033f8 <LL_TIM_OC_DisableFast+0x64>
 80033e6:	2304      	movs	r3, #4
 80033e8:	e006      	b.n	80033f8 <LL_TIM_OC_DisableFast+0x64>
 80033ea:	2303      	movs	r3, #3
 80033ec:	e004      	b.n	80033f8 <LL_TIM_OC_DisableFast+0x64>
 80033ee:	2302      	movs	r3, #2
 80033f0:	e002      	b.n	80033f8 <LL_TIM_OC_DisableFast+0x64>
 80033f2:	2301      	movs	r3, #1
 80033f4:	e000      	b.n	80033f8 <LL_TIM_OC_DisableFast+0x64>
 80033f6:	2300      	movs	r3, #0
 80033f8:	73fb      	strb	r3, [r7, #15]
   __IO uint32_t *pReg = (__IO uint32_t *)((uint32_t)((uint32_t)(&TIMx->CCMR1) + OFFSET_TAB_CCMRx[iChannel]));
 80033fa:	687b      	ldr	r3, [r7, #4]
 80033fc:	3318      	adds	r3, #24
 80033fe:	4619      	mov	r1, r3
 8003400:	7bfb      	ldrb	r3, [r7, #15]
 8003402:	4a0b      	ldr	r2, [pc, #44]	; (8003430 <LL_TIM_OC_DisableFast+0x9c>)
 8003404:	5cd3      	ldrb	r3, [r2, r3]
 8003406:	440b      	add	r3, r1
 8003408:	60bb      	str	r3, [r7, #8]
  CLEAR_BIT(*pReg, (TIM_CCMR1_OC1FE << SHIFT_TAB_OCxx[iChannel]));
 800340a:	68bb      	ldr	r3, [r7, #8]
 800340c:	681a      	ldr	r2, [r3, #0]
 800340e:	7bfb      	ldrb	r3, [r7, #15]
 8003410:	4908      	ldr	r1, [pc, #32]	; (8003434 <LL_TIM_OC_DisableFast+0xa0>)
 8003412:	5ccb      	ldrb	r3, [r1, r3]
 8003414:	4619      	mov	r1, r3
 8003416:	2304      	movs	r3, #4
 8003418:	408b      	lsls	r3, r1
 800341a:	43db      	mvns	r3, r3
 800341c:	401a      	ands	r2, r3
 800341e:	68bb      	ldr	r3, [r7, #8]
 8003420:	601a      	str	r2, [r3, #0]

}
 8003422:	bf00      	nop
 8003424:	3714      	adds	r7, #20
 8003426:	46bd      	mov	sp, r7
 8003428:	f85d 7b04 	ldr.w	r7, [sp], #4
 800342c:	4770      	bx	lr
 800342e:	bf00      	nop
 8003430:	08007678 	.word	0x08007678
 8003434:	08007684 	.word	0x08007684

08003438 <LL_TIM_OC_EnablePreload>:
  *         @arg @ref LL_TIM_CHANNEL_CH5
  *         @arg @ref LL_TIM_CHANNEL_CH6
  * @retval None
  */
__STATIC_INLINE void LL_TIM_OC_EnablePreload(TIM_TypeDef *TIMx, uint32_t Channel)
{
 8003438:	b480      	push	{r7}
 800343a:	b085      	sub	sp, #20
 800343c:	af00      	add	r7, sp, #0
 800343e:	6078      	str	r0, [r7, #4]
 8003440:	6039      	str	r1, [r7, #0]
   uint8_t iChannel = TIM_GET_CHANNEL_INDEX(Channel);
 8003442:	683b      	ldr	r3, [r7, #0]
 8003444:	2b01      	cmp	r3, #1
 8003446:	d028      	beq.n	800349a <LL_TIM_OC_EnablePreload+0x62>
 8003448:	683b      	ldr	r3, [r7, #0]
 800344a:	2b04      	cmp	r3, #4
 800344c:	d023      	beq.n	8003496 <LL_TIM_OC_EnablePreload+0x5e>
 800344e:	683b      	ldr	r3, [r7, #0]
 8003450:	2b10      	cmp	r3, #16
 8003452:	d01e      	beq.n	8003492 <LL_TIM_OC_EnablePreload+0x5a>
 8003454:	683b      	ldr	r3, [r7, #0]
 8003456:	2b40      	cmp	r3, #64	; 0x40
 8003458:	d019      	beq.n	800348e <LL_TIM_OC_EnablePreload+0x56>
 800345a:	683b      	ldr	r3, [r7, #0]
 800345c:	f5b3 7f80 	cmp.w	r3, #256	; 0x100
 8003460:	d013      	beq.n	800348a <LL_TIM_OC_EnablePreload+0x52>
 8003462:	683b      	ldr	r3, [r7, #0]
 8003464:	f5b3 6f80 	cmp.w	r3, #1024	; 0x400
 8003468:	d00d      	beq.n	8003486 <LL_TIM_OC_EnablePreload+0x4e>
 800346a:	683b      	ldr	r3, [r7, #0]
 800346c:	f5b3 5f80 	cmp.w	r3, #4096	; 0x1000
 8003470:	d007      	beq.n	8003482 <LL_TIM_OC_EnablePreload+0x4a>
 8003472:	683b      	ldr	r3, [r7, #0]
 8003474:	f5b3 3f80 	cmp.w	r3, #65536	; 0x10000
 8003478:	d101      	bne.n	800347e <LL_TIM_OC_EnablePreload+0x46>
 800347a:	2307      	movs	r3, #7
 800347c:	e00e      	b.n	800349c <LL_TIM_OC_EnablePreload+0x64>
 800347e:	2308      	movs	r3, #8
 8003480:	e00c      	b.n	800349c <LL_TIM_OC_EnablePreload+0x64>
 8003482:	2306      	movs	r3, #6
 8003484:	e00a      	b.n	800349c <LL_TIM_OC_EnablePreload+0x64>
 8003486:	2305      	movs	r3, #5
 8003488:	e008      	b.n	800349c <LL_TIM_OC_EnablePreload+0x64>
 800348a:	2304      	movs	r3, #4
 800348c:	e006      	b.n	800349c <LL_TIM_OC_EnablePreload+0x64>
 800348e:	2303      	movs	r3, #3
 8003490:	e004      	b.n	800349c <LL_TIM_OC_EnablePreload+0x64>
 8003492:	2302      	movs	r3, #2
 8003494:	e002      	b.n	800349c <LL_TIM_OC_EnablePreload+0x64>
 8003496:	2301      	movs	r3, #1
 8003498:	e000      	b.n	800349c <LL_TIM_OC_EnablePreload+0x64>
 800349a:	2300      	movs	r3, #0
 800349c:	73fb      	strb	r3, [r7, #15]
   __IO uint32_t *pReg = (__IO uint32_t *)((uint32_t)((uint32_t)(&TIMx->CCMR1) + OFFSET_TAB_CCMRx[iChannel]));
 800349e:	687b      	ldr	r3, [r7, #4]
 80034a0:	3318      	adds	r3, #24
 80034a2:	4619      	mov	r1, r3
 80034a4:	7bfb      	ldrb	r3, [r7, #15]
 80034a6:	4a0a      	ldr	r2, [pc, #40]	; (80034d0 <LL_TIM_OC_EnablePreload+0x98>)
 80034a8:	5cd3      	ldrb	r3, [r2, r3]
 80034aa:	440b      	add	r3, r1
 80034ac:	60bb      	str	r3, [r7, #8]
  SET_BIT(*pReg, (TIM_CCMR1_OC1PE << SHIFT_TAB_OCxx[iChannel]));
 80034ae:	68bb      	ldr	r3, [r7, #8]
 80034b0:	681a      	ldr	r2, [r3, #0]
 80034b2:	7bfb      	ldrb	r3, [r7, #15]
 80034b4:	4907      	ldr	r1, [pc, #28]	; (80034d4 <LL_TIM_OC_EnablePreload+0x9c>)
 80034b6:	5ccb      	ldrb	r3, [r1, r3]
 80034b8:	4619      	mov	r1, r3
 80034ba:	2308      	movs	r3, #8
 80034bc:	408b      	lsls	r3, r1
 80034be:	431a      	orrs	r2, r3
 80034c0:	68bb      	ldr	r3, [r7, #8]
 80034c2:	601a      	str	r2, [r3, #0]
}
 80034c4:	bf00      	nop
 80034c6:	3714      	adds	r7, #20
 80034c8:	46bd      	mov	sp, r7
 80034ca:	f85d 7b04 	ldr.w	r7, [sp], #4
 80034ce:	4770      	bx	lr
 80034d0:	08007678 	.word	0x08007678
 80034d4:	08007684 	.word	0x08007684

080034d8 <LL_TIM_DisableExternalClock>:
  * @rmtoll SMCR         ECE           LL_TIM_DisableExternalClock
  * @param  TIMx Timer instance
  * @retval None
  */
__STATIC_INLINE void LL_TIM_DisableExternalClock(TIM_TypeDef *TIMx)
{
 80034d8:	b480      	push	{r7}
 80034da:	b083      	sub	sp, #12
 80034dc:	af00      	add	r7, sp, #0
 80034de:	6078      	str	r0, [r7, #4]
  CLEAR_BIT(TIMx->SMCR, TIM_SMCR_ECE);
 80034e0:	687b      	ldr	r3, [r7, #4]
 80034e2:	689b      	ldr	r3, [r3, #8]
 80034e4:	f423 4280 	bic.w	r2, r3, #16384	; 0x4000
 80034e8:	687b      	ldr	r3, [r7, #4]
 80034ea:	609a      	str	r2, [r3, #8]
}
 80034ec:	bf00      	nop
 80034ee:	370c      	adds	r7, #12
 80034f0:	46bd      	mov	sp, r7
 80034f2:	f85d 7b04 	ldr.w	r7, [sp], #4
 80034f6:	4770      	bx	lr

080034f8 <LL_TIM_SetClockSource>:
  *         @arg @ref LL_TIM_CLOCKSOURCE_EXT_MODE1
  *         @arg @ref LL_TIM_CLOCKSOURCE_EXT_MODE2
  * @retval None
  */
__STATIC_INLINE void LL_TIM_SetClockSource(TIM_TypeDef *TIMx, uint32_t ClockSource)
{
 80034f8:	b480      	push	{r7}
 80034fa:	b083      	sub	sp, #12
 80034fc:	af00      	add	r7, sp, #0
 80034fe:	6078      	str	r0, [r7, #4]
 8003500:	6039      	str	r1, [r7, #0]
  MODIFY_REG(TIMx->SMCR, TIM_SMCR_SMS | TIM_SMCR_ECE, ClockSource);
 8003502:	687b      	ldr	r3, [r7, #4]
 8003504:	689b      	ldr	r3, [r3, #8]
 8003506:	f423 33a0 	bic.w	r3, r3, #81920	; 0x14000
 800350a:	f023 0307 	bic.w	r3, r3, #7
 800350e:	683a      	ldr	r2, [r7, #0]
 8003510:	431a      	orrs	r2, r3
 8003512:	687b      	ldr	r3, [r7, #4]
 8003514:	609a      	str	r2, [r3, #8]
}
 8003516:	bf00      	nop
 8003518:	370c      	adds	r7, #12
 800351a:	46bd      	mov	sp, r7
 800351c:	f85d 7b04 	ldr.w	r7, [sp], #4
 8003520:	4770      	bx	lr

08003522 <LL_TIM_SetTriggerOutput>:
  *         @arg @ref LL_TIM_TRGO_OC3REF
  *         @arg @ref LL_TIM_TRGO_OC4REF
  * @retval None
  */
__STATIC_INLINE void LL_TIM_SetTriggerOutput(TIM_TypeDef *TIMx, uint32_t TimerSynchronization)
{
 8003522:	b480      	push	{r7}
 8003524:	b083      	sub	sp, #12
 8003526:	af00      	add	r7, sp, #0
 8003528:	6078      	str	r0, [r7, #4]
 800352a:	6039      	str	r1, [r7, #0]
  MODIFY_REG(TIMx->CR2, TIM_CR2_MMS, TimerSynchronization);
 800352c:	687b      	ldr	r3, [r7, #4]
 800352e:	685b      	ldr	r3, [r3, #4]
 8003530:	f023 0270 	bic.w	r2, r3, #112	; 0x70
 8003534:	683b      	ldr	r3, [r7, #0]
 8003536:	431a      	orrs	r2, r3
 8003538:	687b      	ldr	r3, [r7, #4]
 800353a:	605a      	str	r2, [r3, #4]
}
 800353c:	bf00      	nop
 800353e:	370c      	adds	r7, #12
 8003540:	46bd      	mov	sp, r7
 8003542:	f85d 7b04 	ldr.w	r7, [sp], #4
 8003546:	4770      	bx	lr

08003548 <LL_TIM_SetTriggerOutput2>:
  *         @arg @ref LL_TIM_TRGO2_OC5_RISING_OC6_RISING
  *         @arg @ref LL_TIM_TRGO2_OC5_RISING_OC6_FALLING
  * @retval None
  */
__STATIC_INLINE void LL_TIM_SetTriggerOutput2(TIM_TypeDef *TIMx, uint32_t ADCSynchronization)
{
 8003548:	b480      	push	{r7}
 800354a:	b083      	sub	sp, #12
 800354c:	af00      	add	r7, sp, #0
 800354e:	6078      	str	r0, [r7, #4]
 8003550:	6039      	str	r1, [r7, #0]
  MODIFY_REG(TIMx->CR2, TIM_CR2_MMS2, ADCSynchronization);
 8003552:	687b      	ldr	r3, [r7, #4]
 8003554:	685b      	ldr	r3, [r3, #4]
 8003556:	f423 0270 	bic.w	r2, r3, #15728640	; 0xf00000
 800355a:	683b      	ldr	r3, [r7, #0]
 800355c:	431a      	orrs	r2, r3
 800355e:	687b      	ldr	r3, [r7, #4]
 8003560:	605a      	str	r2, [r3, #4]
}
 8003562:	bf00      	nop
 8003564:	370c      	adds	r7, #12
 8003566:	46bd      	mov	sp, r7
 8003568:	f85d 7b04 	ldr.w	r7, [sp], #4
 800356c:	4770      	bx	lr

0800356e <LL_TIM_DisableMasterSlaveMode>:
  * @rmtoll SMCR         MSM           LL_TIM_DisableMasterSlaveMode
  * @param  TIMx Timer instance
  * @retval None
  */
__STATIC_INLINE void LL_TIM_DisableMasterSlaveMode(TIM_TypeDef *TIMx)
{
 800356e:	b480      	push	{r7}
 8003570:	b083      	sub	sp, #12
 8003572:	af00      	add	r7, sp, #0
 8003574:	6078      	str	r0, [r7, #4]
  CLEAR_BIT(TIMx->SMCR, TIM_SMCR_MSM);
 8003576:	687b      	ldr	r3, [r7, #4]
 8003578:	689b      	ldr	r3, [r3, #8]
 800357a:	f023 0280 	bic.w	r2, r3, #128	; 0x80
 800357e:	687b      	ldr	r3, [r7, #4]
 8003580:	609a      	str	r2, [r3, #8]
}
 8003582:	bf00      	nop
 8003584:	370c      	adds	r7, #12
 8003586:	46bd      	mov	sp, r7
 8003588:	f85d 7b04 	ldr.w	r7, [sp], #4
 800358c:	4770      	bx	lr

0800358e <LL_TIM_ConfigETR>:
  *         @arg @ref LL_TIM_ETR_FILTER_FDIV32_N8
  * @retval None
  */
__STATIC_INLINE void LL_TIM_ConfigETR(TIM_TypeDef *TIMx, uint32_t ETRPolarity, uint32_t ETRPrescaler,
                                      uint32_t ETRFilter)
{
 800358e:	b480      	push	{r7}
 8003590:	b085      	sub	sp, #20
 8003592:	af00      	add	r7, sp, #0
 8003594:	60f8      	str	r0, [r7, #12]
 8003596:	60b9      	str	r1, [r7, #8]
 8003598:	607a      	str	r2, [r7, #4]
 800359a:	603b      	str	r3, [r7, #0]
  MODIFY_REG(TIMx->SMCR, TIM_SMCR_ETP | TIM_SMCR_ETPS | TIM_SMCR_ETF, ETRPolarity | ETRPrescaler | ETRFilter);
 800359c:	68fb      	ldr	r3, [r7, #12]
 800359e:	689b      	ldr	r3, [r3, #8]
 80035a0:	f423 423f 	bic.w	r2, r3, #48896	; 0xbf00
 80035a4:	68b9      	ldr	r1, [r7, #8]
 80035a6:	687b      	ldr	r3, [r7, #4]
 80035a8:	4319      	orrs	r1, r3
 80035aa:	683b      	ldr	r3, [r7, #0]
 80035ac:	430b      	orrs	r3, r1
 80035ae:	431a      	orrs	r2, r3
 80035b0:	68fb      	ldr	r3, [r7, #12]
 80035b2:	609a      	str	r2, [r3, #8]
}
 80035b4:	bf00      	nop
 80035b6:	3714      	adds	r7, #20
 80035b8:	46bd      	mov	sp, r7
 80035ba:	f85d 7b04 	ldr.w	r7, [sp], #4
 80035be:	4770      	bx	lr

080035c0 <LL_TIM_SetOCRefClearInputSource>:
  *         @arg @ref LL_TIM_OCREF_CLR_INT_NC
  *         @arg @ref LL_TIM_OCREF_CLR_INT_ETR
  * @retval None
  */
__STATIC_INLINE void LL_TIM_SetOCRefClearInputSource(TIM_TypeDef *TIMx, uint32_t OCRefClearInputSource)
{
 80035c0:	b480      	push	{r7}
 80035c2:	b083      	sub	sp, #12
 80035c4:	af00      	add	r7, sp, #0
 80035c6:	6078      	str	r0, [r7, #4]
 80035c8:	6039      	str	r1, [r7, #0]
  MODIFY_REG(TIMx->SMCR, TIM_SMCR_OCCS, OCRefClearInputSource);
 80035ca:	687b      	ldr	r3, [r7, #4]
 80035cc:	689b      	ldr	r3, [r3, #8]
 80035ce:	f023 0208 	bic.w	r2, r3, #8
 80035d2:	683b      	ldr	r3, [r7, #0]
 80035d4:	431a      	orrs	r2, r3
 80035d6:	687b      	ldr	r3, [r7, #4]
 80035d8:	609a      	str	r2, [r3, #8]
}
 80035da:	bf00      	nop
 80035dc:	370c      	adds	r7, #12
 80035de:	46bd      	mov	sp, r7
 80035e0:	f85d 7b04 	ldr.w	r7, [sp], #4
 80035e4:	4770      	bx	lr
	...

080035e8 <MX_TIM1_Init>:

/* USER CODE END 0 */

/* TIM1 init function */
void MX_TIM1_Init(void)
{
 80035e8:	b580      	push	{r7, lr}
 80035ea:	b086      	sub	sp, #24
 80035ec:	af00      	add	r7, sp, #0
  LL_TIM_InitTypeDef TIM_InitStruct = {0};
 80035ee:	1d3b      	adds	r3, r7, #4
 80035f0:	2200      	movs	r2, #0
 80035f2:	601a      	str	r2, [r3, #0]
 80035f4:	605a      	str	r2, [r3, #4]
 80035f6:	609a      	str	r2, [r3, #8]
 80035f8:	60da      	str	r2, [r3, #12]
 80035fa:	611a      	str	r2, [r3, #16]

  /* Peripheral clock enable */
  LL_APB2_GRP1_EnableClock(LL_APB2_GRP1_PERIPH_TIM1);
 80035fc:	f44f 6000 	mov.w	r0, #2048	; 0x800
 8003600:	f7ff fea0 	bl	8003344 <LL_APB2_GRP1_EnableClock>

  TIM_InitStruct.Prescaler = 15;
 8003604:	230f      	movs	r3, #15
 8003606:	80bb      	strh	r3, [r7, #4]
  TIM_InitStruct.CounterMode = LL_TIM_COUNTERMODE_UP;
 8003608:	2300      	movs	r3, #0
 800360a:	60bb      	str	r3, [r7, #8]
  TIM_InitStruct.Autoreload = 400;
 800360c:	f44f 73c8 	mov.w	r3, #400	; 0x190
 8003610:	60fb      	str	r3, [r7, #12]
  TIM_InitStruct.ClockDivision = LL_TIM_CLOCKDIVISION_DIV1;
 8003612:	2300      	movs	r3, #0
 8003614:	613b      	str	r3, [r7, #16]
  TIM_InitStruct.RepetitionCounter = 0;
 8003616:	2300      	movs	r3, #0
 8003618:	617b      	str	r3, [r7, #20]
  LL_TIM_Init(TIM1, &TIM_InitStruct);
 800361a:	1d3b      	adds	r3, r7, #4
 800361c:	4619      	mov	r1, r3
 800361e:	480c      	ldr	r0, [pc, #48]	; (8003650 <MX_TIM1_Init+0x68>)
 8003620:	f001 fc08 	bl	8004e34 <LL_TIM_Init>
  LL_TIM_DisableARRPreload(TIM1);
 8003624:	480a      	ldr	r0, [pc, #40]	; (8003650 <MX_TIM1_Init+0x68>)
 8003626:	f7ff fea5 	bl	8003374 <LL_TIM_DisableARRPreload>
  LL_TIM_SetClockSource(TIM1, LL_TIM_CLOCKSOURCE_INTERNAL);
 800362a:	2100      	movs	r1, #0
 800362c:	4808      	ldr	r0, [pc, #32]	; (8003650 <MX_TIM1_Init+0x68>)
 800362e:	f7ff ff63 	bl	80034f8 <LL_TIM_SetClockSource>
  LL_TIM_SetTriggerOutput(TIM1, LL_TIM_TRGO_RESET);
 8003632:	2100      	movs	r1, #0
 8003634:	4806      	ldr	r0, [pc, #24]	; (8003650 <MX_TIM1_Init+0x68>)
 8003636:	f7ff ff74 	bl	8003522 <LL_TIM_SetTriggerOutput>
  LL_TIM_SetTriggerOutput2(TIM1, LL_TIM_TRGO2_RESET);
 800363a:	2100      	movs	r1, #0
 800363c:	4804      	ldr	r0, [pc, #16]	; (8003650 <MX_TIM1_Init+0x68>)
 800363e:	f7ff ff83 	bl	8003548 <LL_TIM_SetTriggerOutput2>
  LL_TIM_DisableMasterSlaveMode(TIM1);
 8003642:	4803      	ldr	r0, [pc, #12]	; (8003650 <MX_TIM1_Init+0x68>)
 8003644:	f7ff ff93 	bl	800356e <LL_TIM_DisableMasterSlaveMode>

}
 8003648:	bf00      	nop
 800364a:	3718      	adds	r7, #24
 800364c:	46bd      	mov	sp, r7
 800364e:	bd80      	pop	{r7, pc}
 8003650:	40012c00 	.word	0x40012c00

08003654 <MX_TIM3_Init>:
/* TIM3 init function */
void MX_TIM3_Init(void)
{
 8003654:	b580      	push	{r7, lr}
 8003656:	b094      	sub	sp, #80	; 0x50
 8003658:	af00      	add	r7, sp, #0
  LL_TIM_InitTypeDef TIM_InitStruct = {0};
 800365a:	f107 033c 	add.w	r3, r7, #60	; 0x3c
 800365e:	2200      	movs	r2, #0
 8003660:	601a      	str	r2, [r3, #0]
 8003662:	605a      	str	r2, [r3, #4]
 8003664:	609a      	str	r2, [r3, #8]
 8003666:	60da      	str	r2, [r3, #12]
 8003668:	611a      	str	r2, [r3, #16]
  LL_TIM_OC_InitTypeDef TIM_OC_InitStruct = {0};
 800366a:	f107 031c 	add.w	r3, r7, #28
 800366e:	2220      	movs	r2, #32
 8003670:	2100      	movs	r1, #0
 8003672:	4618      	mov	r0, r3
 8003674:	f002 f8f0 	bl	8005858 <memset>

  LL_GPIO_InitTypeDef GPIO_InitStruct = {0};
 8003678:	1d3b      	adds	r3, r7, #4
 800367a:	2200      	movs	r2, #0
 800367c:	601a      	str	r2, [r3, #0]
 800367e:	605a      	str	r2, [r3, #4]
 8003680:	609a      	str	r2, [r3, #8]
 8003682:	60da      	str	r2, [r3, #12]
 8003684:	611a      	str	r2, [r3, #16]
 8003686:	615a      	str	r2, [r3, #20]
  /* Peripheral clock enable */
  LL_APB1_GRP1_EnableClock(LL_APB1_GRP1_PERIPH_TIM3);
 8003688:	2002      	movs	r0, #2
 800368a:	f7ff fe43 	bl	8003314 <LL_APB1_GRP1_EnableClock>

  TIM_InitStruct.Prescaler = 19;
 800368e:	2313      	movs	r3, #19
 8003690:	87bb      	strh	r3, [r7, #60]	; 0x3c
  TIM_InitStruct.CounterMode = LL_TIM_COUNTERMODE_UP;
 8003692:	2300      	movs	r3, #0
 8003694:	643b      	str	r3, [r7, #64]	; 0x40
  TIM_InitStruct.Autoreload = 63999;
 8003696:	f64f 13ff 	movw	r3, #63999	; 0xf9ff
 800369a:	647b      	str	r3, [r7, #68]	; 0x44
  TIM_InitStruct.ClockDivision = LL_TIM_CLOCKDIVISION_DIV1;
 800369c:	2300      	movs	r3, #0
 800369e:	64bb      	str	r3, [r7, #72]	; 0x48
  LL_TIM_Init(TIM3, &TIM_InitStruct);
 80036a0:	f107 033c 	add.w	r3, r7, #60	; 0x3c
 80036a4:	4619      	mov	r1, r3
 80036a6:	4847      	ldr	r0, [pc, #284]	; (80037c4 <MX_TIM3_Init+0x170>)
 80036a8:	f001 fbc4 	bl	8004e34 <LL_TIM_Init>
  LL_TIM_DisableARRPreload(TIM3);
 80036ac:	4845      	ldr	r0, [pc, #276]	; (80037c4 <MX_TIM3_Init+0x170>)
 80036ae:	f7ff fe61 	bl	8003374 <LL_TIM_DisableARRPreload>
  LL_TIM_SetClockSource(TIM3, LL_TIM_CLOCKSOURCE_INTERNAL);
 80036b2:	2100      	movs	r1, #0
 80036b4:	4843      	ldr	r0, [pc, #268]	; (80037c4 <MX_TIM3_Init+0x170>)
 80036b6:	f7ff ff1f 	bl	80034f8 <LL_TIM_SetClockSource>
  LL_TIM_OC_EnablePreload(TIM3, LL_TIM_CHANNEL_CH1);
 80036ba:	2101      	movs	r1, #1
 80036bc:	4841      	ldr	r0, [pc, #260]	; (80037c4 <MX_TIM3_Init+0x170>)
 80036be:	f7ff febb 	bl	8003438 <LL_TIM_OC_EnablePreload>
  TIM_OC_InitStruct.OCMode = LL_TIM_OCMODE_PWM1;
 80036c2:	2360      	movs	r3, #96	; 0x60
 80036c4:	61fb      	str	r3, [r7, #28]
  TIM_OC_InitStruct.OCState = LL_TIM_OCSTATE_DISABLE;
 80036c6:	2300      	movs	r3, #0
 80036c8:	623b      	str	r3, [r7, #32]
  TIM_OC_InitStruct.OCNState = LL_TIM_OCSTATE_DISABLE;
 80036ca:	2300      	movs	r3, #0
 80036cc:	627b      	str	r3, [r7, #36]	; 0x24
  TIM_OC_InitStruct.CompareValue = 4799;
 80036ce:	f241 23bf 	movw	r3, #4799	; 0x12bf
 80036d2:	62bb      	str	r3, [r7, #40]	; 0x28
  TIM_OC_InitStruct.OCPolarity = LL_TIM_OCPOLARITY_HIGH;
 80036d4:	2300      	movs	r3, #0
 80036d6:	62fb      	str	r3, [r7, #44]	; 0x2c
  LL_TIM_OC_Init(TIM3, LL_TIM_CHANNEL_CH1, &TIM_OC_InitStruct);
 80036d8:	f107 031c 	add.w	r3, r7, #28
 80036dc:	461a      	mov	r2, r3
 80036de:	2101      	movs	r1, #1
 80036e0:	4838      	ldr	r0, [pc, #224]	; (80037c4 <MX_TIM3_Init+0x170>)
 80036e2:	f001 fc3b 	bl	8004f5c <LL_TIM_OC_Init>
  LL_TIM_OC_DisableFast(TIM3, LL_TIM_CHANNEL_CH1);
 80036e6:	2101      	movs	r1, #1
 80036e8:	4836      	ldr	r0, [pc, #216]	; (80037c4 <MX_TIM3_Init+0x170>)
 80036ea:	f7ff fe53 	bl	8003394 <LL_TIM_OC_DisableFast>
  LL_TIM_OC_EnablePreload(TIM3, LL_TIM_CHANNEL_CH2);
 80036ee:	2110      	movs	r1, #16
 80036f0:	4834      	ldr	r0, [pc, #208]	; (80037c4 <MX_TIM3_Init+0x170>)
 80036f2:	f7ff fea1 	bl	8003438 <LL_TIM_OC_EnablePreload>
  TIM_OC_InitStruct.OCState = LL_TIM_OCSTATE_DISABLE;
 80036f6:	2300      	movs	r3, #0
 80036f8:	623b      	str	r3, [r7, #32]
  TIM_OC_InitStruct.OCNState = LL_TIM_OCSTATE_DISABLE;
 80036fa:	2300      	movs	r3, #0
 80036fc:	627b      	str	r3, [r7, #36]	; 0x24
  LL_TIM_OC_Init(TIM3, LL_TIM_CHANNEL_CH2, &TIM_OC_InitStruct);
 80036fe:	f107 031c 	add.w	r3, r7, #28
 8003702:	461a      	mov	r2, r3
 8003704:	2110      	movs	r1, #16
 8003706:	482f      	ldr	r0, [pc, #188]	; (80037c4 <MX_TIM3_Init+0x170>)
 8003708:	f001 fc28 	bl	8004f5c <LL_TIM_OC_Init>
  LL_TIM_OC_DisableFast(TIM3, LL_TIM_CHANNEL_CH2);
 800370c:	2110      	movs	r1, #16
 800370e:	482d      	ldr	r0, [pc, #180]	; (80037c4 <MX_TIM3_Init+0x170>)
 8003710:	f7ff fe40 	bl	8003394 <LL_TIM_OC_DisableFast>
  LL_TIM_OC_EnablePreload(TIM3, LL_TIM_CHANNEL_CH4);
 8003714:	f44f 5180 	mov.w	r1, #4096	; 0x1000
 8003718:	482a      	ldr	r0, [pc, #168]	; (80037c4 <MX_TIM3_Init+0x170>)
 800371a:	f7ff fe8d 	bl	8003438 <LL_TIM_OC_EnablePreload>
  TIM_OC_InitStruct.OCState = LL_TIM_OCSTATE_DISABLE;
 800371e:	2300      	movs	r3, #0
 8003720:	623b      	str	r3, [r7, #32]
  TIM_OC_InitStruct.OCNState = LL_TIM_OCSTATE_DISABLE;
 8003722:	2300      	movs	r3, #0
 8003724:	627b      	str	r3, [r7, #36]	; 0x24
  LL_TIM_OC_Init(TIM3, LL_TIM_CHANNEL_CH4, &TIM_OC_InitStruct);
 8003726:	f107 031c 	add.w	r3, r7, #28
 800372a:	461a      	mov	r2, r3
 800372c:	f44f 5180 	mov.w	r1, #4096	; 0x1000
 8003730:	4824      	ldr	r0, [pc, #144]	; (80037c4 <MX_TIM3_Init+0x170>)
 8003732:	f001 fc13 	bl	8004f5c <LL_TIM_OC_Init>
  LL_TIM_OC_DisableFast(TIM3, LL_TIM_CHANNEL_CH4);
 8003736:	f44f 5180 	mov.w	r1, #4096	; 0x1000
 800373a:	4822      	ldr	r0, [pc, #136]	; (80037c4 <MX_TIM3_Init+0x170>)
 800373c:	f7ff fe2a 	bl	8003394 <LL_TIM_OC_DisableFast>
  LL_TIM_SetOCRefClearInputSource(TIM3, LL_TIM_OCREF_CLR_INT_NC);
 8003740:	2100      	movs	r1, #0
 8003742:	4820      	ldr	r0, [pc, #128]	; (80037c4 <MX_TIM3_Init+0x170>)
 8003744:	f7ff ff3c 	bl	80035c0 <LL_TIM_SetOCRefClearInputSource>
  LL_TIM_DisableExternalClock(TIM3);
 8003748:	481e      	ldr	r0, [pc, #120]	; (80037c4 <MX_TIM3_Init+0x170>)
 800374a:	f7ff fec5 	bl	80034d8 <LL_TIM_DisableExternalClock>
  LL_TIM_ConfigETR(TIM3, LL_TIM_ETR_POLARITY_NONINVERTED, LL_TIM_ETR_PRESCALER_DIV1, LL_TIM_ETR_FILTER_FDIV1);
 800374e:	2300      	movs	r3, #0
 8003750:	2200      	movs	r2, #0
 8003752:	2100      	movs	r1, #0
 8003754:	481b      	ldr	r0, [pc, #108]	; (80037c4 <MX_TIM3_Init+0x170>)
 8003756:	f7ff ff1a 	bl	800358e <LL_TIM_ConfigETR>
  LL_TIM_SetTriggerOutput(TIM3, LL_TIM_TRGO_RESET);
 800375a:	2100      	movs	r1, #0
 800375c:	4819      	ldr	r0, [pc, #100]	; (80037c4 <MX_TIM3_Init+0x170>)
 800375e:	f7ff fee0 	bl	8003522 <LL_TIM_SetTriggerOutput>
  LL_TIM_DisableMasterSlaveMode(TIM3);
 8003762:	4818      	ldr	r0, [pc, #96]	; (80037c4 <MX_TIM3_Init+0x170>)
 8003764:	f7ff ff03 	bl	800356e <LL_TIM_DisableMasterSlaveMode>
  LL_AHB2_GRP1_EnableClock(LL_AHB2_GRP1_PERIPH_GPIOA);
 8003768:	2001      	movs	r0, #1
 800376a:	f7ff fdbb 	bl	80032e4 <LL_AHB2_GRP1_EnableClock>
  LL_AHB2_GRP1_EnableClock(LL_AHB2_GRP1_PERIPH_GPIOB);
 800376e:	2002      	movs	r0, #2
 8003770:	f7ff fdb8 	bl	80032e4 <LL_AHB2_GRP1_EnableClock>
    /**TIM3 GPIO Configuration
    PA6     ------> TIM3_CH1
    PA7     ------> TIM3_CH2
    PB1     ------> TIM3_CH4
    */
  GPIO_InitStruct.Pin = LL_GPIO_PIN_6|LL_GPIO_PIN_7;
 8003774:	23c0      	movs	r3, #192	; 0xc0
 8003776:	607b      	str	r3, [r7, #4]
  GPIO_InitStruct.Mode = LL_GPIO_MODE_ALTERNATE;
 8003778:	2302      	movs	r3, #2
 800377a:	60bb      	str	r3, [r7, #8]
  GPIO_InitStruct.Speed = LL_GPIO_SPEED_FREQ_LOW;
 800377c:	2300      	movs	r3, #0
 800377e:	60fb      	str	r3, [r7, #12]
  GPIO_InitStruct.OutputType = LL_GPIO_OUTPUT_PUSHPULL;
 8003780:	2300      	movs	r3, #0
 8003782:	613b      	str	r3, [r7, #16]
  GPIO_InitStruct.Pull = LL_GPIO_PULL_NO;
 8003784:	2300      	movs	r3, #0
 8003786:	617b      	str	r3, [r7, #20]
  GPIO_InitStruct.Alternate = LL_GPIO_AF_2;
 8003788:	2302      	movs	r3, #2
 800378a:	61bb      	str	r3, [r7, #24]
  LL_GPIO_Init(GPIOA, &GPIO_InitStruct);
 800378c:	1d3b      	adds	r3, r7, #4
 800378e:	4619      	mov	r1, r3
 8003790:	f04f 4090 	mov.w	r0, #1207959552	; 0x48000000
 8003794:	f000 fe21 	bl	80043da <LL_GPIO_Init>

  GPIO_InitStruct.Pin = LL_GPIO_PIN_1;
 8003798:	2302      	movs	r3, #2
 800379a:	607b      	str	r3, [r7, #4]
  GPIO_InitStruct.Mode = LL_GPIO_MODE_ALTERNATE;
 800379c:	2302      	movs	r3, #2
 800379e:	60bb      	str	r3, [r7, #8]
  GPIO_InitStruct.Speed = LL_GPIO_SPEED_FREQ_LOW;
 80037a0:	2300      	movs	r3, #0
 80037a2:	60fb      	str	r3, [r7, #12]
  GPIO_InitStruct.OutputType = LL_GPIO_OUTPUT_PUSHPULL;
 80037a4:	2300      	movs	r3, #0
 80037a6:	613b      	str	r3, [r7, #16]
  GPIO_InitStruct.Pull = LL_GPIO_PULL_NO;
 80037a8:	2300      	movs	r3, #0
 80037aa:	617b      	str	r3, [r7, #20]
  GPIO_InitStruct.Alternate = LL_GPIO_AF_2;
 80037ac:	2302      	movs	r3, #2
 80037ae:	61bb      	str	r3, [r7, #24]
  LL_GPIO_Init(GPIOB, &GPIO_InitStruct);
 80037b0:	1d3b      	adds	r3, r7, #4
 80037b2:	4619      	mov	r1, r3
 80037b4:	4804      	ldr	r0, [pc, #16]	; (80037c8 <MX_TIM3_Init+0x174>)
 80037b6:	f000 fe10 	bl	80043da <LL_GPIO_Init>

}
 80037ba:	bf00      	nop
 80037bc:	3750      	adds	r7, #80	; 0x50
 80037be:	46bd      	mov	sp, r7
 80037c0:	bd80      	pop	{r7, pc}
 80037c2:	bf00      	nop
 80037c4:	40000400 	.word	0x40000400
 80037c8:	48000400 	.word	0x48000400

080037cc <MX_TIM4_Init>:
/* TIM4 init function */
void MX_TIM4_Init(void)
{
 80037cc:	b580      	push	{r7, lr}
 80037ce:	b086      	sub	sp, #24
 80037d0:	af00      	add	r7, sp, #0
  LL_TIM_InitTypeDef TIM_InitStruct = {0};
 80037d2:	1d3b      	adds	r3, r7, #4
 80037d4:	2200      	movs	r2, #0
 80037d6:	601a      	str	r2, [r3, #0]
 80037d8:	605a      	str	r2, [r3, #4]
 80037da:	609a      	str	r2, [r3, #8]
 80037dc:	60da      	str	r2, [r3, #12]
 80037de:	611a      	str	r2, [r3, #16]

  /* Peripheral clock enable */
  LL_APB1_GRP1_EnableClock(LL_APB1_GRP1_PERIPH_TIM4);
 80037e0:	2004      	movs	r0, #4
 80037e2:	f7ff fd97 	bl	8003314 <LL_APB1_GRP1_EnableClock>

  TIM_InitStruct.Prescaler = 63999;
 80037e6:	f64f 13ff 	movw	r3, #63999	; 0xf9ff
 80037ea:	80bb      	strh	r3, [r7, #4]
  TIM_InitStruct.CounterMode = LL_TIM_COUNTERMODE_UP;
 80037ec:	2300      	movs	r3, #0
 80037ee:	60bb      	str	r3, [r7, #8]
  TIM_InitStruct.Autoreload = 65535;
 80037f0:	f64f 73ff 	movw	r3, #65535	; 0xffff
 80037f4:	60fb      	str	r3, [r7, #12]
  TIM_InitStruct.ClockDivision = LL_TIM_CLOCKDIVISION_DIV1;
 80037f6:	2300      	movs	r3, #0
 80037f8:	613b      	str	r3, [r7, #16]
  LL_TIM_Init(TIM4, &TIM_InitStruct);
 80037fa:	1d3b      	adds	r3, r7, #4
 80037fc:	4619      	mov	r1, r3
 80037fe:	480a      	ldr	r0, [pc, #40]	; (8003828 <MX_TIM4_Init+0x5c>)
 8003800:	f001 fb18 	bl	8004e34 <LL_TIM_Init>
  LL_TIM_DisableARRPreload(TIM4);
 8003804:	4808      	ldr	r0, [pc, #32]	; (8003828 <MX_TIM4_Init+0x5c>)
 8003806:	f7ff fdb5 	bl	8003374 <LL_TIM_DisableARRPreload>
  LL_TIM_SetClockSource(TIM4, LL_TIM_CLOCKSOURCE_INTERNAL);
 800380a:	2100      	movs	r1, #0
 800380c:	4806      	ldr	r0, [pc, #24]	; (8003828 <MX_TIM4_Init+0x5c>)
 800380e:	f7ff fe73 	bl	80034f8 <LL_TIM_SetClockSource>
  LL_TIM_SetTriggerOutput(TIM4, LL_TIM_TRGO_RESET);
 8003812:	2100      	movs	r1, #0
 8003814:	4804      	ldr	r0, [pc, #16]	; (8003828 <MX_TIM4_Init+0x5c>)
 8003816:	f7ff fe84 	bl	8003522 <LL_TIM_SetTriggerOutput>
  LL_TIM_DisableMasterSlaveMode(TIM4);
 800381a:	4803      	ldr	r0, [pc, #12]	; (8003828 <MX_TIM4_Init+0x5c>)
 800381c:	f7ff fea7 	bl	800356e <LL_TIM_DisableMasterSlaveMode>

}
 8003820:	bf00      	nop
 8003822:	3718      	adds	r7, #24
 8003824:	46bd      	mov	sp, r7
 8003826:	bd80      	pop	{r7, pc}
 8003828:	40000800 	.word	0x40000800

0800382c <__NVIC_GetPriorityGrouping>:
{
 800382c:	b480      	push	{r7}
 800382e:	af00      	add	r7, sp, #0
  return ((uint32_t)((SCB->AIRCR & SCB_AIRCR_PRIGROUP_Msk) >> SCB_AIRCR_PRIGROUP_Pos));
 8003830:	4b04      	ldr	r3, [pc, #16]	; (8003844 <__NVIC_GetPriorityGrouping+0x18>)
 8003832:	68db      	ldr	r3, [r3, #12]
 8003834:	0a1b      	lsrs	r3, r3, #8
 8003836:	f003 0307 	and.w	r3, r3, #7
}
 800383a:	4618      	mov	r0, r3
 800383c:	46bd      	mov	sp, r7
 800383e:	f85d 7b04 	ldr.w	r7, [sp], #4
 8003842:	4770      	bx	lr
 8003844:	e000ed00 	.word	0xe000ed00

08003848 <__NVIC_EnableIRQ>:
{
 8003848:	b480      	push	{r7}
 800384a:	b083      	sub	sp, #12
 800384c:	af00      	add	r7, sp, #0
 800384e:	4603      	mov	r3, r0
 8003850:	71fb      	strb	r3, [r7, #7]
  if ((int32_t)(IRQn) >= 0)
 8003852:	f997 3007 	ldrsb.w	r3, [r7, #7]
 8003856:	2b00      	cmp	r3, #0
 8003858:	db0b      	blt.n	8003872 <__NVIC_EnableIRQ+0x2a>
    NVIC->ISER[(((uint32_t)IRQn) >> 5UL)] = (uint32_t)(1UL << (((uint32_t)IRQn) & 0x1FUL));
 800385a:	79fb      	ldrb	r3, [r7, #7]
 800385c:	f003 021f 	and.w	r2, r3, #31
 8003860:	4907      	ldr	r1, [pc, #28]	; (8003880 <__NVIC_EnableIRQ+0x38>)
 8003862:	f997 3007 	ldrsb.w	r3, [r7, #7]
 8003866:	095b      	lsrs	r3, r3, #5
 8003868:	2001      	movs	r0, #1
 800386a:	fa00 f202 	lsl.w	r2, r0, r2
 800386e:	f841 2023 	str.w	r2, [r1, r3, lsl #2]
}
 8003872:	bf00      	nop
 8003874:	370c      	adds	r7, #12
 8003876:	46bd      	mov	sp, r7
 8003878:	f85d 7b04 	ldr.w	r7, [sp], #4
 800387c:	4770      	bx	lr
 800387e:	bf00      	nop
 8003880:	e000e100 	.word	0xe000e100

08003884 <__NVIC_SetPriority>:
{
 8003884:	b480      	push	{r7}
 8003886:	b083      	sub	sp, #12
 8003888:	af00      	add	r7, sp, #0
 800388a:	4603      	mov	r3, r0
 800388c:	6039      	str	r1, [r7, #0]
 800388e:	71fb      	strb	r3, [r7, #7]
  if ((int32_t)(IRQn) >= 0)
 8003890:	f997 3007 	ldrsb.w	r3, [r7, #7]
 8003894:	2b00      	cmp	r3, #0
 8003896:	db0a      	blt.n	80038ae <__NVIC_SetPriority+0x2a>
    NVIC->IP[((uint32_t)IRQn)]               = (uint8_t)((priority << (8U - __NVIC_PRIO_BITS)) & (uint32_t)0xFFUL);
 8003898:	683b      	ldr	r3, [r7, #0]
 800389a:	b2da      	uxtb	r2, r3
 800389c:	490c      	ldr	r1, [pc, #48]	; (80038d0 <__NVIC_SetPriority+0x4c>)
 800389e:	f997 3007 	ldrsb.w	r3, [r7, #7]
 80038a2:	0112      	lsls	r2, r2, #4
 80038a4:	b2d2      	uxtb	r2, r2
 80038a6:	440b      	add	r3, r1
 80038a8:	f883 2300 	strb.w	r2, [r3, #768]	; 0x300
}
 80038ac:	e00a      	b.n	80038c4 <__NVIC_SetPriority+0x40>
    SCB->SHP[(((uint32_t)IRQn) & 0xFUL)-4UL] = (uint8_t)((priority << (8U - __NVIC_PRIO_BITS)) & (uint32_t)0xFFUL);
 80038ae:	683b      	ldr	r3, [r7, #0]
 80038b0:	b2da      	uxtb	r2, r3
 80038b2:	4908      	ldr	r1, [pc, #32]	; (80038d4 <__NVIC_SetPriority+0x50>)
 80038b4:	79fb      	ldrb	r3, [r7, #7]
 80038b6:	f003 030f 	and.w	r3, r3, #15
 80038ba:	3b04      	subs	r3, #4
 80038bc:	0112      	lsls	r2, r2, #4
 80038be:	b2d2      	uxtb	r2, r2
 80038c0:	440b      	add	r3, r1
 80038c2:	761a      	strb	r2, [r3, #24]
}
 80038c4:	bf00      	nop
 80038c6:	370c      	adds	r7, #12
 80038c8:	46bd      	mov	sp, r7
 80038ca:	f85d 7b04 	ldr.w	r7, [sp], #4
 80038ce:	4770      	bx	lr
 80038d0:	e000e100 	.word	0xe000e100
 80038d4:	e000ed00 	.word	0xe000ed00

080038d8 <NVIC_EncodePriority>:
  \param [in]   PreemptPriority  Preemptive priority value (starting from 0).
  \param [in]       SubPriority  Subpriority value (starting from 0).
  \return                        Encoded priority. Value can be used in the function \ref NVIC_SetPriority().
 */
__STATIC_INLINE uint32_t NVIC_EncodePriority (uint32_t PriorityGroup, uint32_t PreemptPriority, uint32_t SubPriority)
{
 80038d8:	b480      	push	{r7}
 80038da:	b089      	sub	sp, #36	; 0x24
 80038dc:	af00      	add	r7, sp, #0
 80038de:	60f8      	str	r0, [r7, #12]
 80038e0:	60b9      	str	r1, [r7, #8]
 80038e2:	607a      	str	r2, [r7, #4]
  uint32_t PriorityGroupTmp = (PriorityGroup & (uint32_t)0x07UL);   /* only values 0..7 are used          */
 80038e4:	68fb      	ldr	r3, [r7, #12]
 80038e6:	f003 0307 	and.w	r3, r3, #7
 80038ea:	61fb      	str	r3, [r7, #28]
  uint32_t PreemptPriorityBits;
  uint32_t SubPriorityBits;

  PreemptPriorityBits = ((7UL - PriorityGroupTmp) > (uint32_t)(__NVIC_PRIO_BITS)) ? (uint32_t)(__NVIC_PRIO_BITS) : (uint32_t)(7UL - PriorityGroupTmp);
 80038ec:	69fb      	ldr	r3, [r7, #28]
 80038ee:	f1c3 0307 	rsb	r3, r3, #7
 80038f2:	2b04      	cmp	r3, #4
 80038f4:	bf28      	it	cs
 80038f6:	2304      	movcs	r3, #4
 80038f8:	61bb      	str	r3, [r7, #24]
  SubPriorityBits     = ((PriorityGroupTmp + (uint32_t)(__NVIC_PRIO_BITS)) < (uint32_t)7UL) ? (uint32_t)0UL : (uint32_t)((PriorityGroupTmp - 7UL) + (uint32_t)(__NVIC_PRIO_BITS));
 80038fa:	69fb      	ldr	r3, [r7, #28]
 80038fc:	3304      	adds	r3, #4
 80038fe:	2b06      	cmp	r3, #6
 8003900:	d902      	bls.n	8003908 <NVIC_EncodePriority+0x30>
 8003902:	69fb      	ldr	r3, [r7, #28]
 8003904:	3b03      	subs	r3, #3
 8003906:	e000      	b.n	800390a <NVIC_EncodePriority+0x32>
 8003908:	2300      	movs	r3, #0
 800390a:	617b      	str	r3, [r7, #20]

  return (
           ((PreemptPriority & (uint32_t)((1UL << (PreemptPriorityBits)) - 1UL)) << SubPriorityBits) |
 800390c:	f04f 32ff 	mov.w	r2, #4294967295
 8003910:	69bb      	ldr	r3, [r7, #24]
 8003912:	fa02 f303 	lsl.w	r3, r2, r3
 8003916:	43da      	mvns	r2, r3
 8003918:	68bb      	ldr	r3, [r7, #8]
 800391a:	401a      	ands	r2, r3
 800391c:	697b      	ldr	r3, [r7, #20]
 800391e:	409a      	lsls	r2, r3
           ((SubPriority     & (uint32_t)((1UL << (SubPriorityBits    )) - 1UL)))
 8003920:	f04f 31ff 	mov.w	r1, #4294967295
 8003924:	697b      	ldr	r3, [r7, #20]
 8003926:	fa01 f303 	lsl.w	r3, r1, r3
 800392a:	43d9      	mvns	r1, r3
 800392c:	687b      	ldr	r3, [r7, #4]
 800392e:	400b      	ands	r3, r1
           ((PreemptPriority & (uint32_t)((1UL << (PreemptPriorityBits)) - 1UL)) << SubPriorityBits) |
 8003930:	4313      	orrs	r3, r2
         );
}
 8003932:	4618      	mov	r0, r3
 8003934:	3724      	adds	r7, #36	; 0x24
 8003936:	46bd      	mov	sp, r7
 8003938:	f85d 7b04 	ldr.w	r7, [sp], #4
 800393c:	4770      	bx	lr
	...

08003940 <LL_AHB1_GRP1_EnableClock>:
{
 8003940:	b480      	push	{r7}
 8003942:	b085      	sub	sp, #20
 8003944:	af00      	add	r7, sp, #0
 8003946:	6078      	str	r0, [r7, #4]
  SET_BIT(RCC->AHB1ENR, Periphs);
 8003948:	4b08      	ldr	r3, [pc, #32]	; (800396c <LL_AHB1_GRP1_EnableClock+0x2c>)
 800394a:	6c9a      	ldr	r2, [r3, #72]	; 0x48
 800394c:	4907      	ldr	r1, [pc, #28]	; (800396c <LL_AHB1_GRP1_EnableClock+0x2c>)
 800394e:	687b      	ldr	r3, [r7, #4]
 8003950:	4313      	orrs	r3, r2
 8003952:	648b      	str	r3, [r1, #72]	; 0x48
  tmpreg = READ_BIT(RCC->AHB1ENR, Periphs);
 8003954:	4b05      	ldr	r3, [pc, #20]	; (800396c <LL_AHB1_GRP1_EnableClock+0x2c>)
 8003956:	6c9a      	ldr	r2, [r3, #72]	; 0x48
 8003958:	687b      	ldr	r3, [r7, #4]
 800395a:	4013      	ands	r3, r2
 800395c:	60fb      	str	r3, [r7, #12]
  (void)tmpreg;
 800395e:	68fb      	ldr	r3, [r7, #12]
}
 8003960:	bf00      	nop
 8003962:	3714      	adds	r7, #20
 8003964:	46bd      	mov	sp, r7
 8003966:	f85d 7b04 	ldr.w	r7, [sp], #4
 800396a:	4770      	bx	lr
 800396c:	40021000 	.word	0x40021000

08003970 <LL_AHB2_GRP1_EnableClock>:
{
 8003970:	b480      	push	{r7}
 8003972:	b085      	sub	sp, #20
 8003974:	af00      	add	r7, sp, #0
 8003976:	6078      	str	r0, [r7, #4]
  SET_BIT(RCC->AHB2ENR, Periphs);
 8003978:	4b08      	ldr	r3, [pc, #32]	; (800399c <LL_AHB2_GRP1_EnableClock+0x2c>)
 800397a:	6cda      	ldr	r2, [r3, #76]	; 0x4c
 800397c:	4907      	ldr	r1, [pc, #28]	; (800399c <LL_AHB2_GRP1_EnableClock+0x2c>)
 800397e:	687b      	ldr	r3, [r7, #4]
 8003980:	4313      	orrs	r3, r2
 8003982:	64cb      	str	r3, [r1, #76]	; 0x4c
  tmpreg = READ_BIT(RCC->AHB2ENR, Periphs);
 8003984:	4b05      	ldr	r3, [pc, #20]	; (800399c <LL_AHB2_GRP1_EnableClock+0x2c>)
 8003986:	6cda      	ldr	r2, [r3, #76]	; 0x4c
 8003988:	687b      	ldr	r3, [r7, #4]
 800398a:	4013      	ands	r3, r2
 800398c:	60fb      	str	r3, [r7, #12]
  (void)tmpreg;
 800398e:	68fb      	ldr	r3, [r7, #12]
}
 8003990:	bf00      	nop
 8003992:	3714      	adds	r7, #20
 8003994:	46bd      	mov	sp, r7
 8003996:	f85d 7b04 	ldr.w	r7, [sp], #4
 800399a:	4770      	bx	lr
 800399c:	40021000 	.word	0x40021000

080039a0 <LL_APB1_GRP1_EnableClock>:
{
 80039a0:	b480      	push	{r7}
 80039a2:	b085      	sub	sp, #20
 80039a4:	af00      	add	r7, sp, #0
 80039a6:	6078      	str	r0, [r7, #4]
  SET_BIT(RCC->APB1ENR1, Periphs);
 80039a8:	4b08      	ldr	r3, [pc, #32]	; (80039cc <LL_APB1_GRP1_EnableClock+0x2c>)
 80039aa:	6d9a      	ldr	r2, [r3, #88]	; 0x58
 80039ac:	4907      	ldr	r1, [pc, #28]	; (80039cc <LL_APB1_GRP1_EnableClock+0x2c>)
 80039ae:	687b      	ldr	r3, [r7, #4]
 80039b0:	4313      	orrs	r3, r2
 80039b2:	658b      	str	r3, [r1, #88]	; 0x58
  tmpreg = READ_BIT(RCC->APB1ENR1, Periphs);
 80039b4:	4b05      	ldr	r3, [pc, #20]	; (80039cc <LL_APB1_GRP1_EnableClock+0x2c>)
 80039b6:	6d9a      	ldr	r2, [r3, #88]	; 0x58
 80039b8:	687b      	ldr	r3, [r7, #4]
 80039ba:	4013      	ands	r3, r2
 80039bc:	60fb      	str	r3, [r7, #12]
  (void)tmpreg;
 80039be:	68fb      	ldr	r3, [r7, #12]
}
 80039c0:	bf00      	nop
 80039c2:	3714      	adds	r7, #20
 80039c4:	46bd      	mov	sp, r7
 80039c6:	f85d 7b04 	ldr.w	r7, [sp], #4
 80039ca:	4770      	bx	lr
 80039cc:	40021000 	.word	0x40021000

080039d0 <LL_USART_Enable>:
  * @rmtoll CR1          UE            LL_USART_Enable
  * @param  USARTx USART Instance
  * @retval None
  */
__STATIC_INLINE void LL_USART_Enable(USART_TypeDef *USARTx)
{
 80039d0:	b480      	push	{r7}
 80039d2:	b083      	sub	sp, #12
 80039d4:	af00      	add	r7, sp, #0
 80039d6:	6078      	str	r0, [r7, #4]
  SET_BIT(USARTx->CR1, USART_CR1_UE);
 80039d8:	687b      	ldr	r3, [r7, #4]
 80039da:	681b      	ldr	r3, [r3, #0]
 80039dc:	f043 0201 	orr.w	r2, r3, #1
 80039e0:	687b      	ldr	r3, [r7, #4]
 80039e2:	601a      	str	r2, [r3, #0]
}
 80039e4:	bf00      	nop
 80039e6:	370c      	adds	r7, #12
 80039e8:	46bd      	mov	sp, r7
 80039ea:	f85d 7b04 	ldr.w	r7, [sp], #4
 80039ee:	4770      	bx	lr

080039f0 <LL_USART_ConfigAsyncMode>:
  *         CR3          HDSEL         LL_USART_ConfigAsyncMode
  * @param  USARTx USART Instance
  * @retval None
  */
__STATIC_INLINE void LL_USART_ConfigAsyncMode(USART_TypeDef *USARTx)
{
 80039f0:	b480      	push	{r7}
 80039f2:	b083      	sub	sp, #12
 80039f4:	af00      	add	r7, sp, #0
 80039f6:	6078      	str	r0, [r7, #4]
  /* In Asynchronous mode, the following bits must be kept cleared:
  - LINEN, CLKEN bits in the USART_CR2 register,
  - SCEN, IREN and HDSEL bits in the USART_CR3 register.*/
  CLEAR_BIT(USARTx->CR2, (USART_CR2_LINEN | USART_CR2_CLKEN));
 80039f8:	687b      	ldr	r3, [r7, #4]
 80039fa:	685b      	ldr	r3, [r3, #4]
 80039fc:	f423 4290 	bic.w	r2, r3, #18432	; 0x4800
 8003a00:	687b      	ldr	r3, [r7, #4]
 8003a02:	605a      	str	r2, [r3, #4]
  CLEAR_BIT(USARTx->CR3, (USART_CR3_SCEN | USART_CR3_IREN | USART_CR3_HDSEL));
 8003a04:	687b      	ldr	r3, [r7, #4]
 8003a06:	689b      	ldr	r3, [r3, #8]
 8003a08:	f023 022a 	bic.w	r2, r3, #42	; 0x2a
 8003a0c:	687b      	ldr	r3, [r7, #4]
 8003a0e:	609a      	str	r2, [r3, #8]
}
 8003a10:	bf00      	nop
 8003a12:	370c      	adds	r7, #12
 8003a14:	46bd      	mov	sp, r7
 8003a16:	f85d 7b04 	ldr.w	r7, [sp], #4
 8003a1a:	4770      	bx	lr

08003a1c <MX_USART2_UART_Init>:
/* USER CODE END 0 */

/* USART2 init function */

void MX_USART2_UART_Init(void)
{
 8003a1c:	b580      	push	{r7, lr}
 8003a1e:	b08e      	sub	sp, #56	; 0x38
 8003a20:	af00      	add	r7, sp, #0
  LL_USART_InitTypeDef USART_InitStruct = {0};
 8003a22:	f107 031c 	add.w	r3, r7, #28
 8003a26:	2200      	movs	r2, #0
 8003a28:	601a      	str	r2, [r3, #0]
 8003a2a:	605a      	str	r2, [r3, #4]
 8003a2c:	609a      	str	r2, [r3, #8]
 8003a2e:	60da      	str	r2, [r3, #12]
 8003a30:	611a      	str	r2, [r3, #16]
 8003a32:	615a      	str	r2, [r3, #20]
 8003a34:	619a      	str	r2, [r3, #24]

  LL_GPIO_InitTypeDef GPIO_InitStruct = {0};
 8003a36:	1d3b      	adds	r3, r7, #4
 8003a38:	2200      	movs	r2, #0
 8003a3a:	601a      	str	r2, [r3, #0]
 8003a3c:	605a      	str	r2, [r3, #4]
 8003a3e:	609a      	str	r2, [r3, #8]
 8003a40:	60da      	str	r2, [r3, #12]
 8003a42:	611a      	str	r2, [r3, #16]
 8003a44:	615a      	str	r2, [r3, #20]

  /* Peripheral clock enable */
  LL_APB1_GRP1_EnableClock(LL_APB1_GRP1_PERIPH_USART2);
 8003a46:	f44f 3000 	mov.w	r0, #131072	; 0x20000
 8003a4a:	f7ff ffa9 	bl	80039a0 <LL_APB1_GRP1_EnableClock>

  LL_AHB2_GRP1_EnableClock(LL_AHB2_GRP1_PERIPH_GPIOA);
 8003a4e:	2001      	movs	r0, #1
 8003a50:	f7ff ff8e 	bl	8003970 <LL_AHB2_GRP1_EnableClock>
  /**USART2 GPIO Configuration
  PA2   ------> USART2_TX
  PA3   ------> USART2_RX
  */
  GPIO_InitStruct.Pin = USART_TX_Pin|USART_RX_Pin;
 8003a54:	230c      	movs	r3, #12
 8003a56:	607b      	str	r3, [r7, #4]
  GPIO_InitStruct.Mode = LL_GPIO_MODE_ALTERNATE;
 8003a58:	2302      	movs	r3, #2
 8003a5a:	60bb      	str	r3, [r7, #8]
  GPIO_InitStruct.Speed = LL_GPIO_SPEED_FREQ_VERY_HIGH;
 8003a5c:	2303      	movs	r3, #3
 8003a5e:	60fb      	str	r3, [r7, #12]
  GPIO_InitStruct.OutputType = LL_GPIO_OUTPUT_PUSHPULL;
 8003a60:	2300      	movs	r3, #0
 8003a62:	613b      	str	r3, [r7, #16]
  GPIO_InitStruct.Pull = LL_GPIO_PULL_NO;
 8003a64:	2300      	movs	r3, #0
 8003a66:	617b      	str	r3, [r7, #20]
  GPIO_InitStruct.Alternate = LL_GPIO_AF_7;
 8003a68:	2307      	movs	r3, #7
 8003a6a:	61bb      	str	r3, [r7, #24]
  LL_GPIO_Init(GPIOA, &GPIO_InitStruct);
 8003a6c:	1d3b      	adds	r3, r7, #4
 8003a6e:	4619      	mov	r1, r3
 8003a70:	f04f 4090 	mov.w	r0, #1207959552	; 0x48000000
 8003a74:	f000 fcb1 	bl	80043da <LL_GPIO_Init>

  USART_InitStruct.BaudRate = 921600;
 8003a78:	f44f 2361 	mov.w	r3, #921600	; 0xe1000
 8003a7c:	61fb      	str	r3, [r7, #28]
  USART_InitStruct.DataWidth = LL_USART_DATAWIDTH_8B;
 8003a7e:	2300      	movs	r3, #0
 8003a80:	623b      	str	r3, [r7, #32]
  USART_InitStruct.StopBits = LL_USART_STOPBITS_1;
 8003a82:	2300      	movs	r3, #0
 8003a84:	627b      	str	r3, [r7, #36]	; 0x24
  USART_InitStruct.Parity = LL_USART_PARITY_NONE;
 8003a86:	2300      	movs	r3, #0
 8003a88:	62bb      	str	r3, [r7, #40]	; 0x28
  USART_InitStruct.TransferDirection = LL_USART_DIRECTION_TX_RX;
 8003a8a:	230c      	movs	r3, #12
 8003a8c:	62fb      	str	r3, [r7, #44]	; 0x2c
  USART_InitStruct.HardwareFlowControl = LL_USART_HWCONTROL_NONE;
 8003a8e:	2300      	movs	r3, #0
 8003a90:	633b      	str	r3, [r7, #48]	; 0x30
  USART_InitStruct.OverSampling = LL_USART_OVERSAMPLING_8;
 8003a92:	f44f 4300 	mov.w	r3, #32768	; 0x8000
 8003a96:	637b      	str	r3, [r7, #52]	; 0x34
  LL_USART_Init(USART2, &USART_InitStruct);
 8003a98:	f107 031c 	add.w	r3, r7, #28
 8003a9c:	4619      	mov	r1, r3
 8003a9e:	4806      	ldr	r0, [pc, #24]	; (8003ab8 <MX_USART2_UART_Init+0x9c>)
 8003aa0:	f001 fdd6 	bl	8005650 <LL_USART_Init>
  LL_USART_ConfigAsyncMode(USART2);
 8003aa4:	4804      	ldr	r0, [pc, #16]	; (8003ab8 <MX_USART2_UART_Init+0x9c>)
 8003aa6:	f7ff ffa3 	bl	80039f0 <LL_USART_ConfigAsyncMode>
  LL_USART_Enable(USART2);
 8003aaa:	4803      	ldr	r0, [pc, #12]	; (8003ab8 <MX_USART2_UART_Init+0x9c>)
 8003aac:	f7ff ff90 	bl	80039d0 <LL_USART_Enable>

}
 8003ab0:	bf00      	nop
 8003ab2:	3738      	adds	r7, #56	; 0x38
 8003ab4:	46bd      	mov	sp, r7
 8003ab6:	bd80      	pop	{r7, pc}
 8003ab8:	40004400 	.word	0x40004400

08003abc <__io_putchar>:

/* USER CODE BEGIN 1 */
void __io_putchar(int ch){
 8003abc:	b480      	push	{r7}
 8003abe:	b083      	sub	sp, #12
 8003ac0:	af00      	add	r7, sp, #0
 8003ac2:	6078      	str	r0, [r7, #4]
#if DEBUG_TO_CONSOLE
	// Wait until all data have been transmitted
	while(!(READ_BIT(USART2->ISR, USART_ISR_TXE)));
 8003ac4:	bf00      	nop
 8003ac6:	4b0b      	ldr	r3, [pc, #44]	; (8003af4 <__io_putchar+0x38>)
 8003ac8:	69db      	ldr	r3, [r3, #28]
 8003aca:	f003 0380 	and.w	r3, r3, #128	; 0x80
 8003ace:	2b00      	cmp	r3, #0
 8003ad0:	d0f9      	beq.n	8003ac6 <__io_putchar+0xa>
	// Write data to transmit register
	WRITE_REG(USART2->TDR, ch);
 8003ad2:	4b08      	ldr	r3, [pc, #32]	; (8003af4 <__io_putchar+0x38>)
 8003ad4:	687a      	ldr	r2, [r7, #4]
 8003ad6:	b292      	uxth	r2, r2
 8003ad8:	851a      	strh	r2, [r3, #40]	; 0x28
	// Wait until transmission completed
	while(!(READ_BIT(USART2->ISR, USART_ISR_TC)));
 8003ada:	bf00      	nop
 8003adc:	4b05      	ldr	r3, [pc, #20]	; (8003af4 <__io_putchar+0x38>)
 8003ade:	69db      	ldr	r3, [r3, #28]
 8003ae0:	f003 0340 	and.w	r3, r3, #64	; 0x40
 8003ae4:	2b00      	cmp	r3, #0
 8003ae6:	d0f9      	beq.n	8003adc <__io_putchar+0x20>
#endif
}
 8003ae8:	bf00      	nop
 8003aea:	370c      	adds	r7, #12
 8003aec:	46bd      	mov	sp, r7
 8003aee:	f85d 7b04 	ldr.w	r7, [sp], #4
 8003af2:	4770      	bx	lr
 8003af4:	40004400 	.word	0x40004400

08003af8 <__io_getchar>:

void __io_getchar(void){
 8003af8:	b480      	push	{r7}
 8003afa:	af00      	add	r7, sp, #0
	// NOT IMPLEMENTED
}
 8003afc:	bf00      	nop
 8003afe:	46bd      	mov	sp, r7
 8003b00:	f85d 7b04 	ldr.w	r7, [sp], #4
 8003b04:	4770      	bx	lr
	...

08003b08 <startupPrint>:

void startupPrint(void){
 8003b08:	b580      	push	{r7, lr}
 8003b0a:	af00      	add	r7, sp, #0
	printf("\r\n");
 8003b0c:	480b      	ldr	r0, [pc, #44]	; (8003b3c <startupPrint+0x34>)
 8003b0e:	f001 ff1f 	bl	8005950 <puts>
	printf("+==============================================================+\r\n");
 8003b12:	480b      	ldr	r0, [pc, #44]	; (8003b40 <startupPrint+0x38>)
 8003b14:	f001 ff1c 	bl	8005950 <puts>
	printf("|%62.62s|\r\n", DESCRIPTION);
 8003b18:	490a      	ldr	r1, [pc, #40]	; (8003b44 <startupPrint+0x3c>)
 8003b1a:	480b      	ldr	r0, [pc, #44]	; (8003b48 <startupPrint+0x40>)
 8003b1c:	f001 fea4 	bl	8005868 <iprintf>
	printf("+--------------------+--------------------+--------------------+\r\n");
 8003b20:	480a      	ldr	r0, [pc, #40]	; (8003b4c <startupPrint+0x44>)
 8003b22:	f001 ff15 	bl	8005950 <puts>
	printf("+ %18.18s | HW: %14.14s | VER.%14.14s |\r\n", "Rafael de la Rosa", HW, FIRM_VERSION);
 8003b26:	4b0a      	ldr	r3, [pc, #40]	; (8003b50 <startupPrint+0x48>)
 8003b28:	4a0a      	ldr	r2, [pc, #40]	; (8003b54 <startupPrint+0x4c>)
 8003b2a:	490b      	ldr	r1, [pc, #44]	; (8003b58 <startupPrint+0x50>)
 8003b2c:	480b      	ldr	r0, [pc, #44]	; (8003b5c <startupPrint+0x54>)
 8003b2e:	f001 fe9b 	bl	8005868 <iprintf>
	printf("+==============================================================+\r\n\r\n");
 8003b32:	480b      	ldr	r0, [pc, #44]	; (8003b60 <startupPrint+0x58>)
 8003b34:	f001 ff0c 	bl	8005950 <puts>
}
 8003b38:	bf00      	nop
 8003b3a:	bd80      	pop	{r7, pc}
 8003b3c:	08006998 	.word	0x08006998
 8003b40:	0800699c 	.word	0x0800699c
 8003b44:	080069e0 	.word	0x080069e0
 8003b48:	08006a08 	.word	0x08006a08
 8003b4c:	08006a14 	.word	0x08006a14
 8003b50:	08006a58 	.word	0x08006a58
 8003b54:	08006a5c 	.word	0x08006a5c
 8003b58:	08006a68 	.word	0x08006a68
 8003b5c:	08006a7c 	.word	0x08006a7c
 8003b60:	08006aa8 	.word	0x08006aa8

08003b64 <configureDMA_USART_TX>:

void configureDMA_USART_TX(USART_TypeDef* USARTx, WordLenghtDMA_t wordLength, PriorityDMA_t priority){
 8003b64:	b580      	push	{r7, lr}
 8003b66:	b086      	sub	sp, #24
 8003b68:	af00      	add	r7, sp, #0
 8003b6a:	6078      	str	r0, [r7, #4]
 8003b6c:	460b      	mov	r3, r1
 8003b6e:	70fb      	strb	r3, [r7, #3]
 8003b70:	4613      	mov	r3, r2
 8003b72:	70bb      	strb	r3, [r7, #2]

	__IO uint32_t temp = 0;
 8003b74:	2300      	movs	r3, #0
 8003b76:	60fb      	str	r3, [r7, #12]
	uint32_t mSize, pSize;

	priority = priority << DMA_CCR_PL_Pos;
 8003b78:	2300      	movs	r3, #0
 8003b7a:	70bb      	strb	r3, [r7, #2]
	mSize = wordLength << DMA_CCR_MSIZE_Pos;
 8003b7c:	78fb      	ldrb	r3, [r7, #3]
 8003b7e:	029b      	lsls	r3, r3, #10
 8003b80:	617b      	str	r3, [r7, #20]
	pSize = wordLength << DMA_CCR_PSIZE_Pos;
 8003b82:	78fb      	ldrb	r3, [r7, #3]
 8003b84:	021b      	lsls	r3, r3, #8
 8003b86:	613b      	str	r3, [r7, #16]

	// DMAx channel configuration
	if(USARTx == USART2){
 8003b88:	687b      	ldr	r3, [r7, #4]
 8003b8a:	4a1d      	ldr	r2, [pc, #116]	; (8003c00 <configureDMA_USART_TX+0x9c>)
 8003b8c:	4293      	cmp	r3, r2
 8003b8e:	d132      	bne.n	8003bf6 <configureDMA_USART_TX+0x92>
		/* Enable clock for DMA1 controller */
		LL_AHB1_GRP1_EnableClock(LL_AHB1_GRP1_PERIPH_DMA1);
 8003b90:	2001      	movs	r0, #1
 8003b92:	f7ff fed5 	bl	8003940 <LL_AHB1_GRP1_EnableClock>

		/* Configure DMA mode transmission in USART_CR3*/
		SET_BIT(USARTx->CR3, USART_CR3_DMAT);
 8003b96:	687b      	ldr	r3, [r7, #4]
 8003b98:	689b      	ldr	r3, [r3, #8]
 8003b9a:	f043 0280 	orr.w	r2, r3, #128	; 0x80
 8003b9e:	687b      	ldr	r3, [r7, #4]
 8003ba0:	609a      	str	r2, [r3, #8]

		/* Configure the channel 7 which corresponds to USART2 peripheral */
		SET_BIT(DMA1_CSELR->CSELR, DMA_USART2_TX_REQ);
 8003ba2:	4b18      	ldr	r3, [pc, #96]	; (8003c04 <configureDMA_USART_TX+0xa0>)
 8003ba4:	681b      	ldr	r3, [r3, #0]
 8003ba6:	4a17      	ldr	r2, [pc, #92]	; (8003c04 <configureDMA_USART_TX+0xa0>)
 8003ba8:	f043 7300 	orr.w	r3, r3, #33554432	; 0x2000000
 8003bac:	6013      	str	r3, [r2, #0]

		/* Clear pending interrupts */
		SET_BIT(DMA1->IFCR, (DMA_IFCR_CGIF7 | DMA_IFCR_CHTIF7 | DMA_IFCR_CTCIF7 | DMA_IFCR_CTEIF7));
 8003bae:	4b16      	ldr	r3, [pc, #88]	; (8003c08 <configureDMA_USART_TX+0xa4>)
 8003bb0:	685b      	ldr	r3, [r3, #4]
 8003bb2:	4a15      	ldr	r2, [pc, #84]	; (8003c08 <configureDMA_USART_TX+0xa4>)
 8003bb4:	f043 6370 	orr.w	r3, r3, #251658240	; 0xf000000
 8003bb8:	6053      	str	r3, [r2, #4]

		/* Configure DMA transference */
		DMA1_Channel7->CPAR =(__IO uint32_t) &(USART2->TDR);
 8003bba:	4b14      	ldr	r3, [pc, #80]	; (8003c0c <configureDMA_USART_TX+0xa8>)
 8003bbc:	4a14      	ldr	r2, [pc, #80]	; (8003c10 <configureDMA_USART_TX+0xac>)
 8003bbe:	609a      	str	r2, [r3, #8]
		temp = priority | mSize | pSize | DMA_CCR_MINC | DMA_CCR_DIR | DMA_CCR_TCIE | DMA_CCR_TEIE;
 8003bc0:	78ba      	ldrb	r2, [r7, #2]
 8003bc2:	697b      	ldr	r3, [r7, #20]
 8003bc4:	431a      	orrs	r2, r3
 8003bc6:	693b      	ldr	r3, [r7, #16]
 8003bc8:	4313      	orrs	r3, r2
 8003bca:	f043 039a 	orr.w	r3, r3, #154	; 0x9a
 8003bce:	60fb      	str	r3, [r7, #12]
		DMA1_Channel7->CCR = temp;
 8003bd0:	4a0e      	ldr	r2, [pc, #56]	; (8003c0c <configureDMA_USART_TX+0xa8>)
 8003bd2:	68fb      	ldr	r3, [r7, #12]
 8003bd4:	6013      	str	r3, [r2, #0]

		NVIC_SetPriority(DMA1_Channel7_IRQn, NVIC_EncodePriority(NVIC_GetPriorityGrouping(),0, 0));
 8003bd6:	f7ff fe29 	bl	800382c <__NVIC_GetPriorityGrouping>
 8003bda:	4603      	mov	r3, r0
 8003bdc:	2200      	movs	r2, #0
 8003bde:	2100      	movs	r1, #0
 8003be0:	4618      	mov	r0, r3
 8003be2:	f7ff fe79 	bl	80038d8 <NVIC_EncodePriority>
 8003be6:	4603      	mov	r3, r0
 8003be8:	4619      	mov	r1, r3
 8003bea:	2011      	movs	r0, #17
 8003bec:	f7ff fe4a 	bl	8003884 <__NVIC_SetPriority>
		NVIC_EnableIRQ(DMA1_Channel7_IRQn);
 8003bf0:	2011      	movs	r0, #17
 8003bf2:	f7ff fe29 	bl	8003848 <__NVIC_EnableIRQ>
	}
}
 8003bf6:	bf00      	nop
 8003bf8:	3718      	adds	r7, #24
 8003bfa:	46bd      	mov	sp, r7
 8003bfc:	bd80      	pop	{r7, pc}
 8003bfe:	bf00      	nop
 8003c00:	40004400 	.word	0x40004400
 8003c04:	400200a8 	.word	0x400200a8
 8003c08:	40020000 	.word	0x40020000
 8003c0c:	40020080 	.word	0x40020080
 8003c10:	40004428 	.word	0x40004428

08003c14 <configure_IRQ_USART_RX>:

void configure_IRQ_USART_RX(){
 8003c14:	b580      	push	{r7, lr}
 8003c16:	af00      	add	r7, sp, #0
	// Set RXNEIE to enable the RX interrupt
	SET_BIT(USART2->CR1, USART_CR1_RXNEIE);
 8003c18:	4b0b      	ldr	r3, [pc, #44]	; (8003c48 <configure_IRQ_USART_RX+0x34>)
 8003c1a:	681b      	ldr	r3, [r3, #0]
 8003c1c:	4a0a      	ldr	r2, [pc, #40]	; (8003c48 <configure_IRQ_USART_RX+0x34>)
 8003c1e:	f043 0320 	orr.w	r3, r3, #32
 8003c22:	6013      	str	r3, [r2, #0]

	// Enable global interrupt for UART2
	NVIC_SetPriority(USART2_IRQn, NVIC_EncodePriority(NVIC_GetPriorityGrouping(), 0, 0));
 8003c24:	f7ff fe02 	bl	800382c <__NVIC_GetPriorityGrouping>
 8003c28:	4603      	mov	r3, r0
 8003c2a:	2200      	movs	r2, #0
 8003c2c:	2100      	movs	r1, #0
 8003c2e:	4618      	mov	r0, r3
 8003c30:	f7ff fe52 	bl	80038d8 <NVIC_EncodePriority>
 8003c34:	4603      	mov	r3, r0
 8003c36:	4619      	mov	r1, r3
 8003c38:	2026      	movs	r0, #38	; 0x26
 8003c3a:	f7ff fe23 	bl	8003884 <__NVIC_SetPriority>
	NVIC_EnableIRQ(USART2_IRQn);
 8003c3e:	2026      	movs	r0, #38	; 0x26
 8003c40:	f7ff fe02 	bl	8003848 <__NVIC_EnableIRQ>
}
 8003c44:	bf00      	nop
 8003c46:	bd80      	pop	{r7, pc}
 8003c48:	40004400 	.word	0x40004400

08003c4c <DMA1_Channel7_IRQHandler>:

void DMA1_Channel7_IRQHandler(void){
 8003c4c:	b480      	push	{r7}
 8003c4e:	af00      	add	r7, sp, #0
	/* Check the interrupt source*/
	if(READ_BIT(DMA1->ISR, DMA_ISR_TEIF7)){
 8003c50:	4b17      	ldr	r3, [pc, #92]	; (8003cb0 <DMA1_Channel7_IRQHandler+0x64>)
 8003c52:	681b      	ldr	r3, [r3, #0]
 8003c54:	f003 6300 	and.w	r3, r3, #134217728	; 0x8000000
 8003c58:	2b00      	cmp	r3, #0
 8003c5a:	d006      	beq.n	8003c6a <DMA1_Channel7_IRQHandler+0x1e>
		SET_BIT(DMA1->IFCR, DMA_IFCR_CTEIF7);
 8003c5c:	4b14      	ldr	r3, [pc, #80]	; (8003cb0 <DMA1_Channel7_IRQHandler+0x64>)
 8003c5e:	685b      	ldr	r3, [r3, #4]
 8003c60:	4a13      	ldr	r2, [pc, #76]	; (8003cb0 <DMA1_Channel7_IRQHandler+0x64>)
 8003c62:	f043 6300 	orr.w	r3, r3, #134217728	; 0x8000000
 8003c66:	6053      	str	r3, [r2, #4]
		while(1);
 8003c68:	e7fe      	b.n	8003c68 <DMA1_Channel7_IRQHandler+0x1c>
	}
	if(READ_BIT(DMA1->ISR, DMA_ISR_TCIF7)){
 8003c6a:	4b11      	ldr	r3, [pc, #68]	; (8003cb0 <DMA1_Channel7_IRQHandler+0x64>)
 8003c6c:	681b      	ldr	r3, [r3, #0]
 8003c6e:	f003 7300 	and.w	r3, r3, #33554432	; 0x2000000
 8003c72:	2b00      	cmp	r3, #0
 8003c74:	d00b      	beq.n	8003c8e <DMA1_Channel7_IRQHandler+0x42>
		SET_BIT(DMA1->IFCR, DMA_IFCR_CTCIF7);
 8003c76:	4b0e      	ldr	r3, [pc, #56]	; (8003cb0 <DMA1_Channel7_IRQHandler+0x64>)
 8003c78:	685b      	ldr	r3, [r3, #4]
 8003c7a:	4a0d      	ldr	r2, [pc, #52]	; (8003cb0 <DMA1_Channel7_IRQHandler+0x64>)
 8003c7c:	f043 7300 	orr.w	r3, r3, #33554432	; 0x2000000
 8003c80:	6053      	str	r3, [r2, #4]
		CLEAR_BIT(DMA1_Channel7->CCR, DMA_CCR_EN);
 8003c82:	4b0c      	ldr	r3, [pc, #48]	; (8003cb4 <DMA1_Channel7_IRQHandler+0x68>)
 8003c84:	681b      	ldr	r3, [r3, #0]
 8003c86:	4a0b      	ldr	r2, [pc, #44]	; (8003cb4 <DMA1_Channel7_IRQHandler+0x68>)
 8003c88:	f023 0301 	bic.w	r3, r3, #1
 8003c8c:	6013      	str	r3, [r2, #0]
	}
	/* Clear Global interrupt status bit */
	if(READ_BIT(DMA1->ISR, DMA_ISR_GIF7)){
 8003c8e:	4b08      	ldr	r3, [pc, #32]	; (8003cb0 <DMA1_Channel7_IRQHandler+0x64>)
 8003c90:	681b      	ldr	r3, [r3, #0]
 8003c92:	f003 7380 	and.w	r3, r3, #16777216	; 0x1000000
 8003c96:	2b00      	cmp	r3, #0
 8003c98:	d005      	beq.n	8003ca6 <DMA1_Channel7_IRQHandler+0x5a>
		SET_BIT(DMA1->IFCR, DMA_IFCR_CGIF7);
 8003c9a:	4b05      	ldr	r3, [pc, #20]	; (8003cb0 <DMA1_Channel7_IRQHandler+0x64>)
 8003c9c:	685b      	ldr	r3, [r3, #4]
 8003c9e:	4a04      	ldr	r2, [pc, #16]	; (8003cb0 <DMA1_Channel7_IRQHandler+0x64>)
 8003ca0:	f043 7380 	orr.w	r3, r3, #16777216	; 0x1000000
 8003ca4:	6053      	str	r3, [r2, #4]
	}
}
 8003ca6:	bf00      	nop
 8003ca8:	46bd      	mov	sp, r7
 8003caa:	f85d 7b04 	ldr.w	r7, [sp], #4
 8003cae:	4770      	bx	lr
 8003cb0:	40020000 	.word	0x40020000
 8003cb4:	40020080 	.word	0x40020080

08003cb8 <Reset_Handler>:

    .section	.text.Reset_Handler
	.weak	Reset_Handler
	.type	Reset_Handler, %function
Reset_Handler:
  ldr   sp, =_estack    /* Set stack pointer */
 8003cb8:	f8df d034 	ldr.w	sp, [pc, #52]	; 8003cf0 <LoopForever+0x2>

/* Call the clock system initialization function.*/
    bl  SystemInit
 8003cbc:	f7ff fadc 	bl	8003278 <SystemInit>

/* Copy the data segment initializers from flash to SRAM */
  movs	r1, #0
 8003cc0:	2100      	movs	r1, #0
  b	LoopCopyDataInit
 8003cc2:	e003      	b.n	8003ccc <LoopCopyDataInit>

08003cc4 <CopyDataInit>:

CopyDataInit:
	ldr	r3, =_sidata
 8003cc4:	4b0b      	ldr	r3, [pc, #44]	; (8003cf4 <LoopForever+0x6>)
	ldr	r3, [r3, r1]
 8003cc6:	585b      	ldr	r3, [r3, r1]
	str	r3, [r0, r1]
 8003cc8:	5043      	str	r3, [r0, r1]
	adds	r1, r1, #4
 8003cca:	3104      	adds	r1, #4

08003ccc <LoopCopyDataInit>:

LoopCopyDataInit:
	ldr	r0, =_sdata
 8003ccc:	480a      	ldr	r0, [pc, #40]	; (8003cf8 <LoopForever+0xa>)
	ldr	r3, =_edata
 8003cce:	4b0b      	ldr	r3, [pc, #44]	; (8003cfc <LoopForever+0xe>)
	adds	r2, r0, r1
 8003cd0:	1842      	adds	r2, r0, r1
	cmp	r2, r3
 8003cd2:	429a      	cmp	r2, r3
	bcc	CopyDataInit
 8003cd4:	d3f6      	bcc.n	8003cc4 <CopyDataInit>
	ldr	r2, =_sbss
 8003cd6:	4a0a      	ldr	r2, [pc, #40]	; (8003d00 <LoopForever+0x12>)
	b	LoopFillZerobss
 8003cd8:	e002      	b.n	8003ce0 <LoopFillZerobss>

08003cda <FillZerobss>:
/* Zero fill the bss segment. */
FillZerobss:
	movs	r3, #0
 8003cda:	2300      	movs	r3, #0
	str	r3, [r2], #4
 8003cdc:	f842 3b04 	str.w	r3, [r2], #4

08003ce0 <LoopFillZerobss>:

LoopFillZerobss:
	ldr	r3, = _ebss
 8003ce0:	4b08      	ldr	r3, [pc, #32]	; (8003d04 <LoopForever+0x16>)
	cmp	r2, r3
 8003ce2:	429a      	cmp	r2, r3
	bcc	FillZerobss
 8003ce4:	d3f9      	bcc.n	8003cda <FillZerobss>

/* Call static constructors */
    bl __libc_init_array
 8003ce6:	f001 fd93 	bl	8005810 <__libc_init_array>
/* Call the application's entry point.*/
	bl	main
 8003cea:	f7fe fde9 	bl	80028c0 <main>

08003cee <LoopForever>:

LoopForever:
    b LoopForever
 8003cee:	e7fe      	b.n	8003cee <LoopForever>
  ldr   sp, =_estack    /* Set stack pointer */
 8003cf0:	20018000 	.word	0x20018000
	ldr	r3, =_sidata
 8003cf4:	08007738 	.word	0x08007738
	ldr	r0, =_sdata
 8003cf8:	20000000 	.word	0x20000000
	ldr	r3, =_edata
 8003cfc:	200005c4 	.word	0x200005c4
	ldr	r2, =_sbss
 8003d00:	200005c8 	.word	0x200005c8
	ldr	r3, = _ebss
 8003d04:	20000698 	.word	0x20000698

08003d08 <ADC1_2_IRQHandler>:
 * @retval : None
*/
    .section	.text.Default_Handler,"ax",%progbits
Default_Handler:
Infinite_Loop:
	b	Infinite_Loop
 8003d08:	e7fe      	b.n	8003d08 <ADC1_2_IRQHandler>
	...

08003d0c <LL_EXTI_EnableIT_0_31>:
  *         @arg @ref LL_EXTI_LINE_ALL_0_31
  * @note   Please check each device line mapping for EXTI Line availability
  * @retval None
  */
__STATIC_INLINE void LL_EXTI_EnableIT_0_31(uint32_t ExtiLine)
{
 8003d0c:	b480      	push	{r7}
 8003d0e:	b083      	sub	sp, #12
 8003d10:	af00      	add	r7, sp, #0
 8003d12:	6078      	str	r0, [r7, #4]
  SET_BIT(EXTI->IMR1, ExtiLine);
 8003d14:	4b05      	ldr	r3, [pc, #20]	; (8003d2c <LL_EXTI_EnableIT_0_31+0x20>)
 8003d16:	681a      	ldr	r2, [r3, #0]
 8003d18:	4904      	ldr	r1, [pc, #16]	; (8003d2c <LL_EXTI_EnableIT_0_31+0x20>)
 8003d1a:	687b      	ldr	r3, [r7, #4]
 8003d1c:	4313      	orrs	r3, r2
 8003d1e:	600b      	str	r3, [r1, #0]
}
 8003d20:	bf00      	nop
 8003d22:	370c      	adds	r7, #12
 8003d24:	46bd      	mov	sp, r7
 8003d26:	f85d 7b04 	ldr.w	r7, [sp], #4
 8003d2a:	4770      	bx	lr
 8003d2c:	40010400 	.word	0x40010400

08003d30 <LL_EXTI_EnableIT_32_63>:
  *         @arg @ref LL_EXTI_LINE_ALL_32_63
  * @note   (*): Available in some devices
  * @retval None
  */
__STATIC_INLINE void LL_EXTI_EnableIT_32_63(uint32_t ExtiLine)
{
 8003d30:	b480      	push	{r7}
 8003d32:	b083      	sub	sp, #12
 8003d34:	af00      	add	r7, sp, #0
 8003d36:	6078      	str	r0, [r7, #4]
  SET_BIT(EXTI->IMR2, ExtiLine);
 8003d38:	4b05      	ldr	r3, [pc, #20]	; (8003d50 <LL_EXTI_EnableIT_32_63+0x20>)
 8003d3a:	6a1a      	ldr	r2, [r3, #32]
 8003d3c:	4904      	ldr	r1, [pc, #16]	; (8003d50 <LL_EXTI_EnableIT_32_63+0x20>)
 8003d3e:	687b      	ldr	r3, [r7, #4]
 8003d40:	4313      	orrs	r3, r2
 8003d42:	620b      	str	r3, [r1, #32]
}
 8003d44:	bf00      	nop
 8003d46:	370c      	adds	r7, #12
 8003d48:	46bd      	mov	sp, r7
 8003d4a:	f85d 7b04 	ldr.w	r7, [sp], #4
 8003d4e:	4770      	bx	lr
 8003d50:	40010400 	.word	0x40010400

08003d54 <LL_EXTI_DisableIT_0_31>:
  *         @arg @ref LL_EXTI_LINE_ALL_0_31
  * @note   Please check each device line mapping for EXTI Line availability
  * @retval None
  */
__STATIC_INLINE void LL_EXTI_DisableIT_0_31(uint32_t ExtiLine)
{
 8003d54:	b480      	push	{r7}
 8003d56:	b083      	sub	sp, #12
 8003d58:	af00      	add	r7, sp, #0
 8003d5a:	6078      	str	r0, [r7, #4]
  CLEAR_BIT(EXTI->IMR1, ExtiLine);
 8003d5c:	4b06      	ldr	r3, [pc, #24]	; (8003d78 <LL_EXTI_DisableIT_0_31+0x24>)
 8003d5e:	681a      	ldr	r2, [r3, #0]
 8003d60:	687b      	ldr	r3, [r7, #4]
 8003d62:	43db      	mvns	r3, r3
 8003d64:	4904      	ldr	r1, [pc, #16]	; (8003d78 <LL_EXTI_DisableIT_0_31+0x24>)
 8003d66:	4013      	ands	r3, r2
 8003d68:	600b      	str	r3, [r1, #0]
}
 8003d6a:	bf00      	nop
 8003d6c:	370c      	adds	r7, #12
 8003d6e:	46bd      	mov	sp, r7
 8003d70:	f85d 7b04 	ldr.w	r7, [sp], #4
 8003d74:	4770      	bx	lr
 8003d76:	bf00      	nop
 8003d78:	40010400 	.word	0x40010400

08003d7c <LL_EXTI_DisableIT_32_63>:
  *         @arg @ref LL_EXTI_LINE_ALL_32_63
  * @note   (*): Available in some devices
  * @retval None
  */
__STATIC_INLINE void LL_EXTI_DisableIT_32_63(uint32_t ExtiLine)
{
 8003d7c:	b480      	push	{r7}
 8003d7e:	b083      	sub	sp, #12
 8003d80:	af00      	add	r7, sp, #0
 8003d82:	6078      	str	r0, [r7, #4]
  CLEAR_BIT(EXTI->IMR2, ExtiLine);
 8003d84:	4b06      	ldr	r3, [pc, #24]	; (8003da0 <LL_EXTI_DisableIT_32_63+0x24>)
 8003d86:	6a1a      	ldr	r2, [r3, #32]
 8003d88:	687b      	ldr	r3, [r7, #4]
 8003d8a:	43db      	mvns	r3, r3
 8003d8c:	4904      	ldr	r1, [pc, #16]	; (8003da0 <LL_EXTI_DisableIT_32_63+0x24>)
 8003d8e:	4013      	ands	r3, r2
 8003d90:	620b      	str	r3, [r1, #32]
}
 8003d92:	bf00      	nop
 8003d94:	370c      	adds	r7, #12
 8003d96:	46bd      	mov	sp, r7
 8003d98:	f85d 7b04 	ldr.w	r7, [sp], #4
 8003d9c:	4770      	bx	lr
 8003d9e:	bf00      	nop
 8003da0:	40010400 	.word	0x40010400

08003da4 <LL_EXTI_EnableEvent_0_31>:
  *         @arg @ref LL_EXTI_LINE_ALL_0_31
  * @note   Please check each device line mapping for EXTI Line availability
  * @retval None
  */
__STATIC_INLINE void LL_EXTI_EnableEvent_0_31(uint32_t ExtiLine)
{
 8003da4:	b480      	push	{r7}
 8003da6:	b083      	sub	sp, #12
 8003da8:	af00      	add	r7, sp, #0
 8003daa:	6078      	str	r0, [r7, #4]
  SET_BIT(EXTI->EMR1, ExtiLine);
 8003dac:	4b05      	ldr	r3, [pc, #20]	; (8003dc4 <LL_EXTI_EnableEvent_0_31+0x20>)
 8003dae:	685a      	ldr	r2, [r3, #4]
 8003db0:	4904      	ldr	r1, [pc, #16]	; (8003dc4 <LL_EXTI_EnableEvent_0_31+0x20>)
 8003db2:	687b      	ldr	r3, [r7, #4]
 8003db4:	4313      	orrs	r3, r2
 8003db6:	604b      	str	r3, [r1, #4]

}
 8003db8:	bf00      	nop
 8003dba:	370c      	adds	r7, #12
 8003dbc:	46bd      	mov	sp, r7
 8003dbe:	f85d 7b04 	ldr.w	r7, [sp], #4
 8003dc2:	4770      	bx	lr
 8003dc4:	40010400 	.word	0x40010400

08003dc8 <LL_EXTI_EnableEvent_32_63>:
  *         @arg @ref LL_EXTI_LINE_ALL_32_63
  * @note   (*): Available in some devices
  * @retval None
  */
__STATIC_INLINE void LL_EXTI_EnableEvent_32_63(uint32_t ExtiLine)
{
 8003dc8:	b480      	push	{r7}
 8003dca:	b083      	sub	sp, #12
 8003dcc:	af00      	add	r7, sp, #0
 8003dce:	6078      	str	r0, [r7, #4]
  SET_BIT(EXTI->EMR2, ExtiLine);
 8003dd0:	4b05      	ldr	r3, [pc, #20]	; (8003de8 <LL_EXTI_EnableEvent_32_63+0x20>)
 8003dd2:	6a5a      	ldr	r2, [r3, #36]	; 0x24
 8003dd4:	4904      	ldr	r1, [pc, #16]	; (8003de8 <LL_EXTI_EnableEvent_32_63+0x20>)
 8003dd6:	687b      	ldr	r3, [r7, #4]
 8003dd8:	4313      	orrs	r3, r2
 8003dda:	624b      	str	r3, [r1, #36]	; 0x24
}
 8003ddc:	bf00      	nop
 8003dde:	370c      	adds	r7, #12
 8003de0:	46bd      	mov	sp, r7
 8003de2:	f85d 7b04 	ldr.w	r7, [sp], #4
 8003de6:	4770      	bx	lr
 8003de8:	40010400 	.word	0x40010400

08003dec <LL_EXTI_DisableEvent_0_31>:
  *         @arg @ref LL_EXTI_LINE_ALL_0_31
  * @note   Please check each device line mapping for EXTI Line availability
  * @retval None
  */
__STATIC_INLINE void LL_EXTI_DisableEvent_0_31(uint32_t ExtiLine)
{
 8003dec:	b480      	push	{r7}
 8003dee:	b083      	sub	sp, #12
 8003df0:	af00      	add	r7, sp, #0
 8003df2:	6078      	str	r0, [r7, #4]
  CLEAR_BIT(EXTI->EMR1, ExtiLine);
 8003df4:	4b06      	ldr	r3, [pc, #24]	; (8003e10 <LL_EXTI_DisableEvent_0_31+0x24>)
 8003df6:	685a      	ldr	r2, [r3, #4]
 8003df8:	687b      	ldr	r3, [r7, #4]
 8003dfa:	43db      	mvns	r3, r3
 8003dfc:	4904      	ldr	r1, [pc, #16]	; (8003e10 <LL_EXTI_DisableEvent_0_31+0x24>)
 8003dfe:	4013      	ands	r3, r2
 8003e00:	604b      	str	r3, [r1, #4]
}
 8003e02:	bf00      	nop
 8003e04:	370c      	adds	r7, #12
 8003e06:	46bd      	mov	sp, r7
 8003e08:	f85d 7b04 	ldr.w	r7, [sp], #4
 8003e0c:	4770      	bx	lr
 8003e0e:	bf00      	nop
 8003e10:	40010400 	.word	0x40010400

08003e14 <LL_EXTI_DisableEvent_32_63>:
  *         @arg @ref LL_EXTI_LINE_ALL_32_63
  * @note   (*): Available in some devices
  * @retval None
  */
__STATIC_INLINE void LL_EXTI_DisableEvent_32_63(uint32_t ExtiLine)
{
 8003e14:	b480      	push	{r7}
 8003e16:	b083      	sub	sp, #12
 8003e18:	af00      	add	r7, sp, #0
 8003e1a:	6078      	str	r0, [r7, #4]
  CLEAR_BIT(EXTI->EMR2, ExtiLine);
 8003e1c:	4b06      	ldr	r3, [pc, #24]	; (8003e38 <LL_EXTI_DisableEvent_32_63+0x24>)
 8003e1e:	6a5a      	ldr	r2, [r3, #36]	; 0x24
 8003e20:	687b      	ldr	r3, [r7, #4]
 8003e22:	43db      	mvns	r3, r3
 8003e24:	4904      	ldr	r1, [pc, #16]	; (8003e38 <LL_EXTI_DisableEvent_32_63+0x24>)
 8003e26:	4013      	ands	r3, r2
 8003e28:	624b      	str	r3, [r1, #36]	; 0x24
}
 8003e2a:	bf00      	nop
 8003e2c:	370c      	adds	r7, #12
 8003e2e:	46bd      	mov	sp, r7
 8003e30:	f85d 7b04 	ldr.w	r7, [sp], #4
 8003e34:	4770      	bx	lr
 8003e36:	bf00      	nop
 8003e38:	40010400 	.word	0x40010400

08003e3c <LL_EXTI_EnableRisingTrig_0_31>:
  *         @arg @ref LL_EXTI_LINE_31
  * @note   Please check each device line mapping for EXTI Line availability
  * @retval None
  */
__STATIC_INLINE void LL_EXTI_EnableRisingTrig_0_31(uint32_t ExtiLine)
{
 8003e3c:	b480      	push	{r7}
 8003e3e:	b083      	sub	sp, #12
 8003e40:	af00      	add	r7, sp, #0
 8003e42:	6078      	str	r0, [r7, #4]
  SET_BIT(EXTI->RTSR1, ExtiLine);
 8003e44:	4b05      	ldr	r3, [pc, #20]	; (8003e5c <LL_EXTI_EnableRisingTrig_0_31+0x20>)
 8003e46:	689a      	ldr	r2, [r3, #8]
 8003e48:	4904      	ldr	r1, [pc, #16]	; (8003e5c <LL_EXTI_EnableRisingTrig_0_31+0x20>)
 8003e4a:	687b      	ldr	r3, [r7, #4]
 8003e4c:	4313      	orrs	r3, r2
 8003e4e:	608b      	str	r3, [r1, #8]

}
 8003e50:	bf00      	nop
 8003e52:	370c      	adds	r7, #12
 8003e54:	46bd      	mov	sp, r7
 8003e56:	f85d 7b04 	ldr.w	r7, [sp], #4
 8003e5a:	4770      	bx	lr
 8003e5c:	40010400 	.word	0x40010400

08003e60 <LL_EXTI_EnableRisingTrig_32_63>:
  *         @arg @ref LL_EXTI_LINE_37
  *         @arg @ref LL_EXTI_LINE_38
  * @retval None
  */
__STATIC_INLINE void LL_EXTI_EnableRisingTrig_32_63(uint32_t ExtiLine)
{
 8003e60:	b480      	push	{r7}
 8003e62:	b083      	sub	sp, #12
 8003e64:	af00      	add	r7, sp, #0
 8003e66:	6078      	str	r0, [r7, #4]
  SET_BIT(EXTI->RTSR2, ExtiLine);
 8003e68:	4b05      	ldr	r3, [pc, #20]	; (8003e80 <LL_EXTI_EnableRisingTrig_32_63+0x20>)
 8003e6a:	6a9a      	ldr	r2, [r3, #40]	; 0x28
 8003e6c:	4904      	ldr	r1, [pc, #16]	; (8003e80 <LL_EXTI_EnableRisingTrig_32_63+0x20>)
 8003e6e:	687b      	ldr	r3, [r7, #4]
 8003e70:	4313      	orrs	r3, r2
 8003e72:	628b      	str	r3, [r1, #40]	; 0x28
}
 8003e74:	bf00      	nop
 8003e76:	370c      	adds	r7, #12
 8003e78:	46bd      	mov	sp, r7
 8003e7a:	f85d 7b04 	ldr.w	r7, [sp], #4
 8003e7e:	4770      	bx	lr
 8003e80:	40010400 	.word	0x40010400

08003e84 <LL_EXTI_DisableRisingTrig_0_31>:
  *         @arg @ref LL_EXTI_LINE_31
  * @note   Please check each device line mapping for EXTI Line availability
  * @retval None
  */
__STATIC_INLINE void LL_EXTI_DisableRisingTrig_0_31(uint32_t ExtiLine)
{
 8003e84:	b480      	push	{r7}
 8003e86:	b083      	sub	sp, #12
 8003e88:	af00      	add	r7, sp, #0
 8003e8a:	6078      	str	r0, [r7, #4]
  CLEAR_BIT(EXTI->RTSR1, ExtiLine);
 8003e8c:	4b06      	ldr	r3, [pc, #24]	; (8003ea8 <LL_EXTI_DisableRisingTrig_0_31+0x24>)
 8003e8e:	689a      	ldr	r2, [r3, #8]
 8003e90:	687b      	ldr	r3, [r7, #4]
 8003e92:	43db      	mvns	r3, r3
 8003e94:	4904      	ldr	r1, [pc, #16]	; (8003ea8 <LL_EXTI_DisableRisingTrig_0_31+0x24>)
 8003e96:	4013      	ands	r3, r2
 8003e98:	608b      	str	r3, [r1, #8]

}
 8003e9a:	bf00      	nop
 8003e9c:	370c      	adds	r7, #12
 8003e9e:	46bd      	mov	sp, r7
 8003ea0:	f85d 7b04 	ldr.w	r7, [sp], #4
 8003ea4:	4770      	bx	lr
 8003ea6:	bf00      	nop
 8003ea8:	40010400 	.word	0x40010400

08003eac <LL_EXTI_DisableRisingTrig_32_63>:
  *         @arg @ref LL_EXTI_LINE_37
  *         @arg @ref LL_EXTI_LINE_38
  * @retval None
  */
__STATIC_INLINE void LL_EXTI_DisableRisingTrig_32_63(uint32_t ExtiLine)
{
 8003eac:	b480      	push	{r7}
 8003eae:	b083      	sub	sp, #12
 8003eb0:	af00      	add	r7, sp, #0
 8003eb2:	6078      	str	r0, [r7, #4]
  CLEAR_BIT(EXTI->RTSR2, ExtiLine);
 8003eb4:	4b06      	ldr	r3, [pc, #24]	; (8003ed0 <LL_EXTI_DisableRisingTrig_32_63+0x24>)
 8003eb6:	6a9a      	ldr	r2, [r3, #40]	; 0x28
 8003eb8:	687b      	ldr	r3, [r7, #4]
 8003eba:	43db      	mvns	r3, r3
 8003ebc:	4904      	ldr	r1, [pc, #16]	; (8003ed0 <LL_EXTI_DisableRisingTrig_32_63+0x24>)
 8003ebe:	4013      	ands	r3, r2
 8003ec0:	628b      	str	r3, [r1, #40]	; 0x28
}
 8003ec2:	bf00      	nop
 8003ec4:	370c      	adds	r7, #12
 8003ec6:	46bd      	mov	sp, r7
 8003ec8:	f85d 7b04 	ldr.w	r7, [sp], #4
 8003ecc:	4770      	bx	lr
 8003ece:	bf00      	nop
 8003ed0:	40010400 	.word	0x40010400

08003ed4 <LL_EXTI_EnableFallingTrig_0_31>:
  *         @arg @ref LL_EXTI_LINE_31
  * @note   Please check each device line mapping for EXTI Line availability
  * @retval None
  */
__STATIC_INLINE void LL_EXTI_EnableFallingTrig_0_31(uint32_t ExtiLine)
{
 8003ed4:	b480      	push	{r7}
 8003ed6:	b083      	sub	sp, #12
 8003ed8:	af00      	add	r7, sp, #0
 8003eda:	6078      	str	r0, [r7, #4]
  SET_BIT(EXTI->FTSR1, ExtiLine);
 8003edc:	4b05      	ldr	r3, [pc, #20]	; (8003ef4 <LL_EXTI_EnableFallingTrig_0_31+0x20>)
 8003ede:	68da      	ldr	r2, [r3, #12]
 8003ee0:	4904      	ldr	r1, [pc, #16]	; (8003ef4 <LL_EXTI_EnableFallingTrig_0_31+0x20>)
 8003ee2:	687b      	ldr	r3, [r7, #4]
 8003ee4:	4313      	orrs	r3, r2
 8003ee6:	60cb      	str	r3, [r1, #12]
}
 8003ee8:	bf00      	nop
 8003eea:	370c      	adds	r7, #12
 8003eec:	46bd      	mov	sp, r7
 8003eee:	f85d 7b04 	ldr.w	r7, [sp], #4
 8003ef2:	4770      	bx	lr
 8003ef4:	40010400 	.word	0x40010400

08003ef8 <LL_EXTI_EnableFallingTrig_32_63>:
  *         @arg @ref LL_EXTI_LINE_37
  *         @arg @ref LL_EXTI_LINE_38
  * @retval None
  */
__STATIC_INLINE void LL_EXTI_EnableFallingTrig_32_63(uint32_t ExtiLine)
{
 8003ef8:	b480      	push	{r7}
 8003efa:	b083      	sub	sp, #12
 8003efc:	af00      	add	r7, sp, #0
 8003efe:	6078      	str	r0, [r7, #4]
  SET_BIT(EXTI->FTSR2, ExtiLine);
 8003f00:	4b05      	ldr	r3, [pc, #20]	; (8003f18 <LL_EXTI_EnableFallingTrig_32_63+0x20>)
 8003f02:	6ada      	ldr	r2, [r3, #44]	; 0x2c
 8003f04:	4904      	ldr	r1, [pc, #16]	; (8003f18 <LL_EXTI_EnableFallingTrig_32_63+0x20>)
 8003f06:	687b      	ldr	r3, [r7, #4]
 8003f08:	4313      	orrs	r3, r2
 8003f0a:	62cb      	str	r3, [r1, #44]	; 0x2c
}
 8003f0c:	bf00      	nop
 8003f0e:	370c      	adds	r7, #12
 8003f10:	46bd      	mov	sp, r7
 8003f12:	f85d 7b04 	ldr.w	r7, [sp], #4
 8003f16:	4770      	bx	lr
 8003f18:	40010400 	.word	0x40010400

08003f1c <LL_EXTI_DisableFallingTrig_0_31>:
  *         @arg @ref LL_EXTI_LINE_31
  * @note   Please check each device line mapping for EXTI Line availability
  * @retval None
  */
__STATIC_INLINE void LL_EXTI_DisableFallingTrig_0_31(uint32_t ExtiLine)
{
 8003f1c:	b480      	push	{r7}
 8003f1e:	b083      	sub	sp, #12
 8003f20:	af00      	add	r7, sp, #0
 8003f22:	6078      	str	r0, [r7, #4]
  CLEAR_BIT(EXTI->FTSR1, ExtiLine);
 8003f24:	4b06      	ldr	r3, [pc, #24]	; (8003f40 <LL_EXTI_DisableFallingTrig_0_31+0x24>)
 8003f26:	68da      	ldr	r2, [r3, #12]
 8003f28:	687b      	ldr	r3, [r7, #4]
 8003f2a:	43db      	mvns	r3, r3
 8003f2c:	4904      	ldr	r1, [pc, #16]	; (8003f40 <LL_EXTI_DisableFallingTrig_0_31+0x24>)
 8003f2e:	4013      	ands	r3, r2
 8003f30:	60cb      	str	r3, [r1, #12]
}
 8003f32:	bf00      	nop
 8003f34:	370c      	adds	r7, #12
 8003f36:	46bd      	mov	sp, r7
 8003f38:	f85d 7b04 	ldr.w	r7, [sp], #4
 8003f3c:	4770      	bx	lr
 8003f3e:	bf00      	nop
 8003f40:	40010400 	.word	0x40010400

08003f44 <LL_EXTI_DisableFallingTrig_32_63>:
  *         @arg @ref LL_EXTI_LINE_37
  *         @arg @ref LL_EXTI_LINE_38
  * @retval None
  */
__STATIC_INLINE void LL_EXTI_DisableFallingTrig_32_63(uint32_t ExtiLine)
{
 8003f44:	b480      	push	{r7}
 8003f46:	b083      	sub	sp, #12
 8003f48:	af00      	add	r7, sp, #0
 8003f4a:	6078      	str	r0, [r7, #4]
  CLEAR_BIT(EXTI->FTSR2, ExtiLine);
 8003f4c:	4b06      	ldr	r3, [pc, #24]	; (8003f68 <LL_EXTI_DisableFallingTrig_32_63+0x24>)
 8003f4e:	6ada      	ldr	r2, [r3, #44]	; 0x2c
 8003f50:	687b      	ldr	r3, [r7, #4]
 8003f52:	43db      	mvns	r3, r3
 8003f54:	4904      	ldr	r1, [pc, #16]	; (8003f68 <LL_EXTI_DisableFallingTrig_32_63+0x24>)
 8003f56:	4013      	ands	r3, r2
 8003f58:	62cb      	str	r3, [r1, #44]	; 0x2c
}
 8003f5a:	bf00      	nop
 8003f5c:	370c      	adds	r7, #12
 8003f5e:	46bd      	mov	sp, r7
 8003f60:	f85d 7b04 	ldr.w	r7, [sp], #4
 8003f64:	4770      	bx	lr
 8003f66:	bf00      	nop
 8003f68:	40010400 	.word	0x40010400

08003f6c <LL_EXTI_Init>:
  * @retval An ErrorStatus enumeration value:
  *          - 0x00: EXTI registers are initialized
  *          - any other calue : wrong configuration
  */
uint32_t LL_EXTI_Init(LL_EXTI_InitTypeDef *EXTI_InitStruct)
{
 8003f6c:	b580      	push	{r7, lr}
 8003f6e:	b084      	sub	sp, #16
 8003f70:	af00      	add	r7, sp, #0
 8003f72:	6078      	str	r0, [r7, #4]
  uint32_t status = 0x00u;
 8003f74:	2300      	movs	r3, #0
 8003f76:	60fb      	str	r3, [r7, #12]
  assert_param(IS_LL_EXTI_LINE_32_63(EXTI_InitStruct->Line_32_63));
  assert_param(IS_FUNCTIONAL_STATE(EXTI_InitStruct->LineCommand));
  assert_param(IS_LL_EXTI_MODE(EXTI_InitStruct->Mode));

  /* ENABLE LineCommand */
  if (EXTI_InitStruct->LineCommand != DISABLE)
 8003f78:	687b      	ldr	r3, [r7, #4]
 8003f7a:	7a1b      	ldrb	r3, [r3, #8]
 8003f7c:	2b00      	cmp	r3, #0
 8003f7e:	f000 80c6 	beq.w	800410e <LL_EXTI_Init+0x1a2>
  {
    assert_param(IS_LL_EXTI_TRIGGER(EXTI_InitStruct->Trigger));

    /* Configure EXTI Lines in range from 0 to 31 */
    if (EXTI_InitStruct->Line_0_31 != LL_EXTI_LINE_NONE)
 8003f82:	687b      	ldr	r3, [r7, #4]
 8003f84:	681b      	ldr	r3, [r3, #0]
 8003f86:	2b00      	cmp	r3, #0
 8003f88:	d05d      	beq.n	8004046 <LL_EXTI_Init+0xda>
    {
      switch (EXTI_InitStruct->Mode)
 8003f8a:	687b      	ldr	r3, [r7, #4]
 8003f8c:	7a5b      	ldrb	r3, [r3, #9]
 8003f8e:	2b01      	cmp	r3, #1
 8003f90:	d00e      	beq.n	8003fb0 <LL_EXTI_Init+0x44>
 8003f92:	2b02      	cmp	r3, #2
 8003f94:	d017      	beq.n	8003fc6 <LL_EXTI_Init+0x5a>
 8003f96:	2b00      	cmp	r3, #0
 8003f98:	d120      	bne.n	8003fdc <LL_EXTI_Init+0x70>
      {
        case LL_EXTI_MODE_IT:
          /* First Disable Event on provided Lines */
          LL_EXTI_DisableEvent_0_31(EXTI_InitStruct->Line_0_31);
 8003f9a:	687b      	ldr	r3, [r7, #4]
 8003f9c:	681b      	ldr	r3, [r3, #0]
 8003f9e:	4618      	mov	r0, r3
 8003fa0:	f7ff ff24 	bl	8003dec <LL_EXTI_DisableEvent_0_31>
          /* Then Enable IT on provided Lines */
          LL_EXTI_EnableIT_0_31(EXTI_InitStruct->Line_0_31);
 8003fa4:	687b      	ldr	r3, [r7, #4]
 8003fa6:	681b      	ldr	r3, [r3, #0]
 8003fa8:	4618      	mov	r0, r3
 8003faa:	f7ff feaf 	bl	8003d0c <LL_EXTI_EnableIT_0_31>
          break;
 8003fae:	e018      	b.n	8003fe2 <LL_EXTI_Init+0x76>
        case LL_EXTI_MODE_EVENT:
          /* First Disable IT on provided Lines */
          LL_EXTI_DisableIT_0_31(EXTI_InitStruct->Line_0_31);
 8003fb0:	687b      	ldr	r3, [r7, #4]
 8003fb2:	681b      	ldr	r3, [r3, #0]
 8003fb4:	4618      	mov	r0, r3
 8003fb6:	f7ff fecd 	bl	8003d54 <LL_EXTI_DisableIT_0_31>
          /* Then Enable Event on provided Lines */
          LL_EXTI_EnableEvent_0_31(EXTI_InitStruct->Line_0_31);
 8003fba:	687b      	ldr	r3, [r7, #4]
 8003fbc:	681b      	ldr	r3, [r3, #0]
 8003fbe:	4618      	mov	r0, r3
 8003fc0:	f7ff fef0 	bl	8003da4 <LL_EXTI_EnableEvent_0_31>
          break;
 8003fc4:	e00d      	b.n	8003fe2 <LL_EXTI_Init+0x76>
        case LL_EXTI_MODE_IT_EVENT:
          /* Directly Enable IT & Event on provided Lines */
          LL_EXTI_EnableIT_0_31(EXTI_InitStruct->Line_0_31);
 8003fc6:	687b      	ldr	r3, [r7, #4]
 8003fc8:	681b      	ldr	r3, [r3, #0]
 8003fca:	4618      	mov	r0, r3
 8003fcc:	f7ff fe9e 	bl	8003d0c <LL_EXTI_EnableIT_0_31>
          LL_EXTI_EnableEvent_0_31(EXTI_InitStruct->Line_0_31);
 8003fd0:	687b      	ldr	r3, [r7, #4]
 8003fd2:	681b      	ldr	r3, [r3, #0]
 8003fd4:	4618      	mov	r0, r3
 8003fd6:	f7ff fee5 	bl	8003da4 <LL_EXTI_EnableEvent_0_31>
          break;
 8003fda:	e002      	b.n	8003fe2 <LL_EXTI_Init+0x76>
        default:
          status = 0x01u;
 8003fdc:	2301      	movs	r3, #1
 8003fde:	60fb      	str	r3, [r7, #12]
          break;
 8003fe0:	bf00      	nop
      }
      if (EXTI_InitStruct->Trigger != LL_EXTI_TRIGGER_NONE)
 8003fe2:	687b      	ldr	r3, [r7, #4]
 8003fe4:	7a9b      	ldrb	r3, [r3, #10]
 8003fe6:	2b00      	cmp	r3, #0
 8003fe8:	d02d      	beq.n	8004046 <LL_EXTI_Init+0xda>
      {
        switch (EXTI_InitStruct->Trigger)
 8003fea:	687b      	ldr	r3, [r7, #4]
 8003fec:	7a9b      	ldrb	r3, [r3, #10]
 8003fee:	2b02      	cmp	r3, #2
 8003ff0:	d00e      	beq.n	8004010 <LL_EXTI_Init+0xa4>
 8003ff2:	2b03      	cmp	r3, #3
 8003ff4:	d017      	beq.n	8004026 <LL_EXTI_Init+0xba>
 8003ff6:	2b01      	cmp	r3, #1
 8003ff8:	d120      	bne.n	800403c <LL_EXTI_Init+0xd0>
        {
          case LL_EXTI_TRIGGER_RISING:
            /* First Disable Falling Trigger on provided Lines */
            LL_EXTI_DisableFallingTrig_0_31(EXTI_InitStruct->Line_0_31);
 8003ffa:	687b      	ldr	r3, [r7, #4]
 8003ffc:	681b      	ldr	r3, [r3, #0]
 8003ffe:	4618      	mov	r0, r3
 8004000:	f7ff ff8c 	bl	8003f1c <LL_EXTI_DisableFallingTrig_0_31>
            /* Then Enable Rising Trigger on provided Lines */
            LL_EXTI_EnableRisingTrig_0_31(EXTI_InitStruct->Line_0_31);
 8004004:	687b      	ldr	r3, [r7, #4]
 8004006:	681b      	ldr	r3, [r3, #0]
 8004008:	4618      	mov	r0, r3
 800400a:	f7ff ff17 	bl	8003e3c <LL_EXTI_EnableRisingTrig_0_31>
            break;
 800400e:	e01b      	b.n	8004048 <LL_EXTI_Init+0xdc>
          case LL_EXTI_TRIGGER_FALLING:
            /* First Disable Rising Trigger on provided Lines */
            LL_EXTI_DisableRisingTrig_0_31(EXTI_InitStruct->Line_0_31);
 8004010:	687b      	ldr	r3, [r7, #4]
 8004012:	681b      	ldr	r3, [r3, #0]
 8004014:	4618      	mov	r0, r3
 8004016:	f7ff ff35 	bl	8003e84 <LL_EXTI_DisableRisingTrig_0_31>
            /* Then Enable Falling Trigger on provided Lines */
            LL_EXTI_EnableFallingTrig_0_31(EXTI_InitStruct->Line_0_31);
 800401a:	687b      	ldr	r3, [r7, #4]
 800401c:	681b      	ldr	r3, [r3, #0]
 800401e:	4618      	mov	r0, r3
 8004020:	f7ff ff58 	bl	8003ed4 <LL_EXTI_EnableFallingTrig_0_31>
            break;
 8004024:	e010      	b.n	8004048 <LL_EXTI_Init+0xdc>
          case LL_EXTI_TRIGGER_RISING_FALLING:
            LL_EXTI_EnableRisingTrig_0_31(EXTI_InitStruct->Line_0_31);
 8004026:	687b      	ldr	r3, [r7, #4]
 8004028:	681b      	ldr	r3, [r3, #0]
 800402a:	4618      	mov	r0, r3
 800402c:	f7ff ff06 	bl	8003e3c <LL_EXTI_EnableRisingTrig_0_31>
            LL_EXTI_EnableFallingTrig_0_31(EXTI_InitStruct->Line_0_31);
 8004030:	687b      	ldr	r3, [r7, #4]
 8004032:	681b      	ldr	r3, [r3, #0]
 8004034:	4618      	mov	r0, r3
 8004036:	f7ff ff4d 	bl	8003ed4 <LL_EXTI_EnableFallingTrig_0_31>
            break;
 800403a:	e005      	b.n	8004048 <LL_EXTI_Init+0xdc>
          default:
            status |= 0x02u;
 800403c:	68fb      	ldr	r3, [r7, #12]
 800403e:	f043 0302 	orr.w	r3, r3, #2
 8004042:	60fb      	str	r3, [r7, #12]
            break;
 8004044:	e000      	b.n	8004048 <LL_EXTI_Init+0xdc>
        }
      }
 8004046:	bf00      	nop
    }
    /* Configure EXTI Lines in range from 32 to 63 */
    if (EXTI_InitStruct->Line_32_63 != LL_EXTI_LINE_NONE)
 8004048:	687b      	ldr	r3, [r7, #4]
 800404a:	685b      	ldr	r3, [r3, #4]
 800404c:	2b00      	cmp	r3, #0
 800404e:	d073      	beq.n	8004138 <LL_EXTI_Init+0x1cc>
    {
      switch (EXTI_InitStruct->Mode)
 8004050:	687b      	ldr	r3, [r7, #4]
 8004052:	7a5b      	ldrb	r3, [r3, #9]
 8004054:	2b01      	cmp	r3, #1
 8004056:	d00e      	beq.n	8004076 <LL_EXTI_Init+0x10a>
 8004058:	2b02      	cmp	r3, #2
 800405a:	d017      	beq.n	800408c <LL_EXTI_Init+0x120>
 800405c:	2b00      	cmp	r3, #0
 800405e:	d120      	bne.n	80040a2 <LL_EXTI_Init+0x136>
      {
        case LL_EXTI_MODE_IT:
          /* First Disable Event on provided Lines */
          LL_EXTI_DisableEvent_32_63(EXTI_InitStruct->Line_32_63);
 8004060:	687b      	ldr	r3, [r7, #4]
 8004062:	685b      	ldr	r3, [r3, #4]
 8004064:	4618      	mov	r0, r3
 8004066:	f7ff fed5 	bl	8003e14 <LL_EXTI_DisableEvent_32_63>
          /* Then Enable IT on provided Lines */
          LL_EXTI_EnableIT_32_63(EXTI_InitStruct->Line_32_63);
 800406a:	687b      	ldr	r3, [r7, #4]
 800406c:	685b      	ldr	r3, [r3, #4]
 800406e:	4618      	mov	r0, r3
 8004070:	f7ff fe5e 	bl	8003d30 <LL_EXTI_EnableIT_32_63>
          break;
 8004074:	e01a      	b.n	80040ac <LL_EXTI_Init+0x140>
        case LL_EXTI_MODE_EVENT:
          /* First Disable IT on provided Lines */
          LL_EXTI_DisableIT_32_63(EXTI_InitStruct->Line_32_63);
 8004076:	687b      	ldr	r3, [r7, #4]
 8004078:	685b      	ldr	r3, [r3, #4]
 800407a:	4618      	mov	r0, r3
 800407c:	f7ff fe7e 	bl	8003d7c <LL_EXTI_DisableIT_32_63>
          /* Then Enable Event on provided Lines */
          LL_EXTI_EnableEvent_32_63(EXTI_InitStruct->Line_32_63);
 8004080:	687b      	ldr	r3, [r7, #4]
 8004082:	685b      	ldr	r3, [r3, #4]
 8004084:	4618      	mov	r0, r3
 8004086:	f7ff fe9f 	bl	8003dc8 <LL_EXTI_EnableEvent_32_63>
          break;
 800408a:	e00f      	b.n	80040ac <LL_EXTI_Init+0x140>
        case LL_EXTI_MODE_IT_EVENT:
          /* Directly Enable IT & Event on provided Lines */
          LL_EXTI_EnableIT_32_63(EXTI_InitStruct->Line_32_63);
 800408c:	687b      	ldr	r3, [r7, #4]
 800408e:	685b      	ldr	r3, [r3, #4]
 8004090:	4618      	mov	r0, r3
 8004092:	f7ff fe4d 	bl	8003d30 <LL_EXTI_EnableIT_32_63>
          LL_EXTI_EnableEvent_32_63(EXTI_InitStruct->Line_32_63);
 8004096:	687b      	ldr	r3, [r7, #4]
 8004098:	685b      	ldr	r3, [r3, #4]
 800409a:	4618      	mov	r0, r3
 800409c:	f7ff fe94 	bl	8003dc8 <LL_EXTI_EnableEvent_32_63>
          break;
 80040a0:	e004      	b.n	80040ac <LL_EXTI_Init+0x140>
        default:
          status |= 0x04u;
 80040a2:	68fb      	ldr	r3, [r7, #12]
 80040a4:	f043 0304 	orr.w	r3, r3, #4
 80040a8:	60fb      	str	r3, [r7, #12]
          break;
 80040aa:	bf00      	nop
      }
      if (EXTI_InitStruct->Trigger != LL_EXTI_TRIGGER_NONE)
 80040ac:	687b      	ldr	r3, [r7, #4]
 80040ae:	7a9b      	ldrb	r3, [r3, #10]
 80040b0:	2b00      	cmp	r3, #0
 80040b2:	d041      	beq.n	8004138 <LL_EXTI_Init+0x1cc>
      {
        switch (EXTI_InitStruct->Trigger)
 80040b4:	687b      	ldr	r3, [r7, #4]
 80040b6:	7a9b      	ldrb	r3, [r3, #10]
 80040b8:	2b02      	cmp	r3, #2
 80040ba:	d00e      	beq.n	80040da <LL_EXTI_Init+0x16e>
 80040bc:	2b03      	cmp	r3, #3
 80040be:	d017      	beq.n	80040f0 <LL_EXTI_Init+0x184>
 80040c0:	2b01      	cmp	r3, #1
 80040c2:	d120      	bne.n	8004106 <LL_EXTI_Init+0x19a>
        {
          case LL_EXTI_TRIGGER_RISING:
            /* First Disable Falling Trigger on provided Lines */
            LL_EXTI_DisableFallingTrig_32_63(EXTI_InitStruct->Line_32_63);
 80040c4:	687b      	ldr	r3, [r7, #4]
 80040c6:	685b      	ldr	r3, [r3, #4]
 80040c8:	4618      	mov	r0, r3
 80040ca:	f7ff ff3b 	bl	8003f44 <LL_EXTI_DisableFallingTrig_32_63>
            /* Then Enable IT on provided Lines */
            LL_EXTI_EnableRisingTrig_32_63(EXTI_InitStruct->Line_32_63);
 80040ce:	687b      	ldr	r3, [r7, #4]
 80040d0:	685b      	ldr	r3, [r3, #4]
 80040d2:	4618      	mov	r0, r3
 80040d4:	f7ff fec4 	bl	8003e60 <LL_EXTI_EnableRisingTrig_32_63>
            break;
 80040d8:	e02f      	b.n	800413a <LL_EXTI_Init+0x1ce>
          case LL_EXTI_TRIGGER_FALLING:
            /* First Disable Rising Trigger on provided Lines */
            LL_EXTI_DisableRisingTrig_32_63(EXTI_InitStruct->Line_32_63);
 80040da:	687b      	ldr	r3, [r7, #4]
 80040dc:	685b      	ldr	r3, [r3, #4]
 80040de:	4618      	mov	r0, r3
 80040e0:	f7ff fee4 	bl	8003eac <LL_EXTI_DisableRisingTrig_32_63>
            /* Then Enable Falling Trigger on provided Lines */
            LL_EXTI_EnableFallingTrig_32_63(EXTI_InitStruct->Line_32_63);
 80040e4:	687b      	ldr	r3, [r7, #4]
 80040e6:	685b      	ldr	r3, [r3, #4]
 80040e8:	4618      	mov	r0, r3
 80040ea:	f7ff ff05 	bl	8003ef8 <LL_EXTI_EnableFallingTrig_32_63>
            break;
 80040ee:	e024      	b.n	800413a <LL_EXTI_Init+0x1ce>
          case LL_EXTI_TRIGGER_RISING_FALLING:
            LL_EXTI_EnableRisingTrig_32_63(EXTI_InitStruct->Line_32_63);
 80040f0:	687b      	ldr	r3, [r7, #4]
 80040f2:	685b      	ldr	r3, [r3, #4]
 80040f4:	4618      	mov	r0, r3
 80040f6:	f7ff feb3 	bl	8003e60 <LL_EXTI_EnableRisingTrig_32_63>
            LL_EXTI_EnableFallingTrig_32_63(EXTI_InitStruct->Line_32_63);
 80040fa:	687b      	ldr	r3, [r7, #4]
 80040fc:	685b      	ldr	r3, [r3, #4]
 80040fe:	4618      	mov	r0, r3
 8004100:	f7ff fefa 	bl	8003ef8 <LL_EXTI_EnableFallingTrig_32_63>
            break;
 8004104:	e019      	b.n	800413a <LL_EXTI_Init+0x1ce>
          default:
            status = ERROR;
 8004106:	2301      	movs	r3, #1
 8004108:	60fb      	str	r3, [r7, #12]
            break;
 800410a:	bf00      	nop
 800410c:	e015      	b.n	800413a <LL_EXTI_Init+0x1ce>
  }
  /* DISABLE LineCommand */
  else
  {
    /* De-configure EXTI Lines in range from 0 to 31 */
    LL_EXTI_DisableIT_0_31(EXTI_InitStruct->Line_0_31);
 800410e:	687b      	ldr	r3, [r7, #4]
 8004110:	681b      	ldr	r3, [r3, #0]
 8004112:	4618      	mov	r0, r3
 8004114:	f7ff fe1e 	bl	8003d54 <LL_EXTI_DisableIT_0_31>
    LL_EXTI_DisableEvent_0_31(EXTI_InitStruct->Line_0_31);
 8004118:	687b      	ldr	r3, [r7, #4]
 800411a:	681b      	ldr	r3, [r3, #0]
 800411c:	4618      	mov	r0, r3
 800411e:	f7ff fe65 	bl	8003dec <LL_EXTI_DisableEvent_0_31>
    /* De-configure EXTI Lines in range from 32 to 63 */
    LL_EXTI_DisableIT_32_63(EXTI_InitStruct->Line_32_63);
 8004122:	687b      	ldr	r3, [r7, #4]
 8004124:	685b      	ldr	r3, [r3, #4]
 8004126:	4618      	mov	r0, r3
 8004128:	f7ff fe28 	bl	8003d7c <LL_EXTI_DisableIT_32_63>
    LL_EXTI_DisableEvent_32_63(EXTI_InitStruct->Line_32_63);
 800412c:	687b      	ldr	r3, [r7, #4]
 800412e:	685b      	ldr	r3, [r3, #4]
 8004130:	4618      	mov	r0, r3
 8004132:	f7ff fe6f 	bl	8003e14 <LL_EXTI_DisableEvent_32_63>
 8004136:	e000      	b.n	800413a <LL_EXTI_Init+0x1ce>
      }
 8004138:	bf00      	nop
  }

  return status;
 800413a:	68fb      	ldr	r3, [r7, #12]
}
 800413c:	4618      	mov	r0, r3
 800413e:	3710      	adds	r7, #16
 8004140:	46bd      	mov	sp, r7
 8004142:	bd80      	pop	{r7, pc}

08004144 <LL_GPIO_SetPinMode>:
{
 8004144:	b480      	push	{r7}
 8004146:	b08b      	sub	sp, #44	; 0x2c
 8004148:	af00      	add	r7, sp, #0
 800414a:	60f8      	str	r0, [r7, #12]
 800414c:	60b9      	str	r1, [r7, #8]
 800414e:	607a      	str	r2, [r7, #4]
  MODIFY_REG(GPIOx->MODER, (GPIO_MODER_MODE0 << (POSITION_VAL(Pin) * 2U)), (Mode << (POSITION_VAL(Pin) * 2U)));
 8004150:	68fb      	ldr	r3, [r7, #12]
 8004152:	681a      	ldr	r2, [r3, #0]
 8004154:	68bb      	ldr	r3, [r7, #8]
 8004156:	617b      	str	r3, [r7, #20]
   __ASM volatile ("rbit %0, %1" : "=r" (result) : "r" (value) );
 8004158:	697b      	ldr	r3, [r7, #20]
 800415a:	fa93 f3a3 	rbit	r3, r3
 800415e:	613b      	str	r3, [r7, #16]
  return result;
 8004160:	693b      	ldr	r3, [r7, #16]
 8004162:	61bb      	str	r3, [r7, #24]
  if (value == 0U)
 8004164:	69bb      	ldr	r3, [r7, #24]
 8004166:	2b00      	cmp	r3, #0
 8004168:	d101      	bne.n	800416e <LL_GPIO_SetPinMode+0x2a>
    return 32U;
 800416a:	2320      	movs	r3, #32
 800416c:	e003      	b.n	8004176 <LL_GPIO_SetPinMode+0x32>
  return __builtin_clz(value);
 800416e:	69bb      	ldr	r3, [r7, #24]
 8004170:	fab3 f383 	clz	r3, r3
 8004174:	b2db      	uxtb	r3, r3
 8004176:	005b      	lsls	r3, r3, #1
 8004178:	2103      	movs	r1, #3
 800417a:	fa01 f303 	lsl.w	r3, r1, r3
 800417e:	43db      	mvns	r3, r3
 8004180:	401a      	ands	r2, r3
 8004182:	68bb      	ldr	r3, [r7, #8]
 8004184:	623b      	str	r3, [r7, #32]
   __ASM volatile ("rbit %0, %1" : "=r" (result) : "r" (value) );
 8004186:	6a3b      	ldr	r3, [r7, #32]
 8004188:	fa93 f3a3 	rbit	r3, r3
 800418c:	61fb      	str	r3, [r7, #28]
  return result;
 800418e:	69fb      	ldr	r3, [r7, #28]
 8004190:	627b      	str	r3, [r7, #36]	; 0x24
  if (value == 0U)
 8004192:	6a7b      	ldr	r3, [r7, #36]	; 0x24
 8004194:	2b00      	cmp	r3, #0
 8004196:	d101      	bne.n	800419c <LL_GPIO_SetPinMode+0x58>
    return 32U;
 8004198:	2320      	movs	r3, #32
 800419a:	e003      	b.n	80041a4 <LL_GPIO_SetPinMode+0x60>
  return __builtin_clz(value);
 800419c:	6a7b      	ldr	r3, [r7, #36]	; 0x24
 800419e:	fab3 f383 	clz	r3, r3
 80041a2:	b2db      	uxtb	r3, r3
 80041a4:	005b      	lsls	r3, r3, #1
 80041a6:	6879      	ldr	r1, [r7, #4]
 80041a8:	fa01 f303 	lsl.w	r3, r1, r3
 80041ac:	431a      	orrs	r2, r3
 80041ae:	68fb      	ldr	r3, [r7, #12]
 80041b0:	601a      	str	r2, [r3, #0]
}
 80041b2:	bf00      	nop
 80041b4:	372c      	adds	r7, #44	; 0x2c
 80041b6:	46bd      	mov	sp, r7
 80041b8:	f85d 7b04 	ldr.w	r7, [sp], #4
 80041bc:	4770      	bx	lr

080041be <LL_GPIO_SetPinOutputType>:
{
 80041be:	b480      	push	{r7}
 80041c0:	b085      	sub	sp, #20
 80041c2:	af00      	add	r7, sp, #0
 80041c4:	60f8      	str	r0, [r7, #12]
 80041c6:	60b9      	str	r1, [r7, #8]
 80041c8:	607a      	str	r2, [r7, #4]
  MODIFY_REG(GPIOx->OTYPER, PinMask, (PinMask * OutputType));
 80041ca:	68fb      	ldr	r3, [r7, #12]
 80041cc:	685a      	ldr	r2, [r3, #4]
 80041ce:	68bb      	ldr	r3, [r7, #8]
 80041d0:	43db      	mvns	r3, r3
 80041d2:	401a      	ands	r2, r3
 80041d4:	68bb      	ldr	r3, [r7, #8]
 80041d6:	6879      	ldr	r1, [r7, #4]
 80041d8:	fb01 f303 	mul.w	r3, r1, r3
 80041dc:	431a      	orrs	r2, r3
 80041de:	68fb      	ldr	r3, [r7, #12]
 80041e0:	605a      	str	r2, [r3, #4]
}
 80041e2:	bf00      	nop
 80041e4:	3714      	adds	r7, #20
 80041e6:	46bd      	mov	sp, r7
 80041e8:	f85d 7b04 	ldr.w	r7, [sp], #4
 80041ec:	4770      	bx	lr

080041ee <LL_GPIO_SetPinSpeed>:
{
 80041ee:	b480      	push	{r7}
 80041f0:	b08b      	sub	sp, #44	; 0x2c
 80041f2:	af00      	add	r7, sp, #0
 80041f4:	60f8      	str	r0, [r7, #12]
 80041f6:	60b9      	str	r1, [r7, #8]
 80041f8:	607a      	str	r2, [r7, #4]
  MODIFY_REG(GPIOx->OSPEEDR, (GPIO_OSPEEDR_OSPEED0 << (POSITION_VAL(Pin) * 2U)),
 80041fa:	68fb      	ldr	r3, [r7, #12]
 80041fc:	689a      	ldr	r2, [r3, #8]
 80041fe:	68bb      	ldr	r3, [r7, #8]
 8004200:	617b      	str	r3, [r7, #20]
   __ASM volatile ("rbit %0, %1" : "=r" (result) : "r" (value) );
 8004202:	697b      	ldr	r3, [r7, #20]
 8004204:	fa93 f3a3 	rbit	r3, r3
 8004208:	613b      	str	r3, [r7, #16]
  return result;
 800420a:	693b      	ldr	r3, [r7, #16]
 800420c:	61bb      	str	r3, [r7, #24]
  if (value == 0U)
 800420e:	69bb      	ldr	r3, [r7, #24]
 8004210:	2b00      	cmp	r3, #0
 8004212:	d101      	bne.n	8004218 <LL_GPIO_SetPinSpeed+0x2a>
    return 32U;
 8004214:	2320      	movs	r3, #32
 8004216:	e003      	b.n	8004220 <LL_GPIO_SetPinSpeed+0x32>
  return __builtin_clz(value);
 8004218:	69bb      	ldr	r3, [r7, #24]
 800421a:	fab3 f383 	clz	r3, r3
 800421e:	b2db      	uxtb	r3, r3
 8004220:	005b      	lsls	r3, r3, #1
 8004222:	2103      	movs	r1, #3
 8004224:	fa01 f303 	lsl.w	r3, r1, r3
 8004228:	43db      	mvns	r3, r3
 800422a:	401a      	ands	r2, r3
 800422c:	68bb      	ldr	r3, [r7, #8]
 800422e:	623b      	str	r3, [r7, #32]
   __ASM volatile ("rbit %0, %1" : "=r" (result) : "r" (value) );
 8004230:	6a3b      	ldr	r3, [r7, #32]
 8004232:	fa93 f3a3 	rbit	r3, r3
 8004236:	61fb      	str	r3, [r7, #28]
  return result;
 8004238:	69fb      	ldr	r3, [r7, #28]
 800423a:	627b      	str	r3, [r7, #36]	; 0x24
  if (value == 0U)
 800423c:	6a7b      	ldr	r3, [r7, #36]	; 0x24
 800423e:	2b00      	cmp	r3, #0
 8004240:	d101      	bne.n	8004246 <LL_GPIO_SetPinSpeed+0x58>
    return 32U;
 8004242:	2320      	movs	r3, #32
 8004244:	e003      	b.n	800424e <LL_GPIO_SetPinSpeed+0x60>
  return __builtin_clz(value);
 8004246:	6a7b      	ldr	r3, [r7, #36]	; 0x24
 8004248:	fab3 f383 	clz	r3, r3
 800424c:	b2db      	uxtb	r3, r3
 800424e:	005b      	lsls	r3, r3, #1
 8004250:	6879      	ldr	r1, [r7, #4]
 8004252:	fa01 f303 	lsl.w	r3, r1, r3
 8004256:	431a      	orrs	r2, r3
 8004258:	68fb      	ldr	r3, [r7, #12]
 800425a:	609a      	str	r2, [r3, #8]
}
 800425c:	bf00      	nop
 800425e:	372c      	adds	r7, #44	; 0x2c
 8004260:	46bd      	mov	sp, r7
 8004262:	f85d 7b04 	ldr.w	r7, [sp], #4
 8004266:	4770      	bx	lr

08004268 <LL_GPIO_SetPinPull>:
{
 8004268:	b480      	push	{r7}
 800426a:	b08b      	sub	sp, #44	; 0x2c
 800426c:	af00      	add	r7, sp, #0
 800426e:	60f8      	str	r0, [r7, #12]
 8004270:	60b9      	str	r1, [r7, #8]
 8004272:	607a      	str	r2, [r7, #4]
  MODIFY_REG(GPIOx->PUPDR, (GPIO_PUPDR_PUPD0 << (POSITION_VAL(Pin) * 2U)), (Pull << (POSITION_VAL(Pin) * 2U)));
 8004274:	68fb      	ldr	r3, [r7, #12]
 8004276:	68da      	ldr	r2, [r3, #12]
 8004278:	68bb      	ldr	r3, [r7, #8]
 800427a:	617b      	str	r3, [r7, #20]
   __ASM volatile ("rbit %0, %1" : "=r" (result) : "r" (value) );
 800427c:	697b      	ldr	r3, [r7, #20]
 800427e:	fa93 f3a3 	rbit	r3, r3
 8004282:	613b      	str	r3, [r7, #16]
  return result;
 8004284:	693b      	ldr	r3, [r7, #16]
 8004286:	61bb      	str	r3, [r7, #24]
  if (value == 0U)
 8004288:	69bb      	ldr	r3, [r7, #24]
 800428a:	2b00      	cmp	r3, #0
 800428c:	d101      	bne.n	8004292 <LL_GPIO_SetPinPull+0x2a>
    return 32U;
 800428e:	2320      	movs	r3, #32
 8004290:	e003      	b.n	800429a <LL_GPIO_SetPinPull+0x32>
  return __builtin_clz(value);
 8004292:	69bb      	ldr	r3, [r7, #24]
 8004294:	fab3 f383 	clz	r3, r3
 8004298:	b2db      	uxtb	r3, r3
 800429a:	005b      	lsls	r3, r3, #1
 800429c:	2103      	movs	r1, #3
 800429e:	fa01 f303 	lsl.w	r3, r1, r3
 80042a2:	43db      	mvns	r3, r3
 80042a4:	401a      	ands	r2, r3
 80042a6:	68bb      	ldr	r3, [r7, #8]
 80042a8:	623b      	str	r3, [r7, #32]
   __ASM volatile ("rbit %0, %1" : "=r" (result) : "r" (value) );
 80042aa:	6a3b      	ldr	r3, [r7, #32]
 80042ac:	fa93 f3a3 	rbit	r3, r3
 80042b0:	61fb      	str	r3, [r7, #28]
  return result;
 80042b2:	69fb      	ldr	r3, [r7, #28]
 80042b4:	627b      	str	r3, [r7, #36]	; 0x24
  if (value == 0U)
 80042b6:	6a7b      	ldr	r3, [r7, #36]	; 0x24
 80042b8:	2b00      	cmp	r3, #0
 80042ba:	d101      	bne.n	80042c0 <LL_GPIO_SetPinPull+0x58>
    return 32U;
 80042bc:	2320      	movs	r3, #32
 80042be:	e003      	b.n	80042c8 <LL_GPIO_SetPinPull+0x60>
  return __builtin_clz(value);
 80042c0:	6a7b      	ldr	r3, [r7, #36]	; 0x24
 80042c2:	fab3 f383 	clz	r3, r3
 80042c6:	b2db      	uxtb	r3, r3
 80042c8:	005b      	lsls	r3, r3, #1
 80042ca:	6879      	ldr	r1, [r7, #4]
 80042cc:	fa01 f303 	lsl.w	r3, r1, r3
 80042d0:	431a      	orrs	r2, r3
 80042d2:	68fb      	ldr	r3, [r7, #12]
 80042d4:	60da      	str	r2, [r3, #12]
}
 80042d6:	bf00      	nop
 80042d8:	372c      	adds	r7, #44	; 0x2c
 80042da:	46bd      	mov	sp, r7
 80042dc:	f85d 7b04 	ldr.w	r7, [sp], #4
 80042e0:	4770      	bx	lr

080042e2 <LL_GPIO_SetAFPin_0_7>:
{
 80042e2:	b480      	push	{r7}
 80042e4:	b08b      	sub	sp, #44	; 0x2c
 80042e6:	af00      	add	r7, sp, #0
 80042e8:	60f8      	str	r0, [r7, #12]
 80042ea:	60b9      	str	r1, [r7, #8]
 80042ec:	607a      	str	r2, [r7, #4]
  MODIFY_REG(GPIOx->AFR[0], (GPIO_AFRL_AFSEL0 << (POSITION_VAL(Pin) * 4U)),
 80042ee:	68fb      	ldr	r3, [r7, #12]
 80042f0:	6a1a      	ldr	r2, [r3, #32]
 80042f2:	68bb      	ldr	r3, [r7, #8]
 80042f4:	617b      	str	r3, [r7, #20]
   __ASM volatile ("rbit %0, %1" : "=r" (result) : "r" (value) );
 80042f6:	697b      	ldr	r3, [r7, #20]
 80042f8:	fa93 f3a3 	rbit	r3, r3
 80042fc:	613b      	str	r3, [r7, #16]
  return result;
 80042fe:	693b      	ldr	r3, [r7, #16]
 8004300:	61bb      	str	r3, [r7, #24]
  if (value == 0U)
 8004302:	69bb      	ldr	r3, [r7, #24]
 8004304:	2b00      	cmp	r3, #0
 8004306:	d101      	bne.n	800430c <LL_GPIO_SetAFPin_0_7+0x2a>
    return 32U;
 8004308:	2320      	movs	r3, #32
 800430a:	e003      	b.n	8004314 <LL_GPIO_SetAFPin_0_7+0x32>
  return __builtin_clz(value);
 800430c:	69bb      	ldr	r3, [r7, #24]
 800430e:	fab3 f383 	clz	r3, r3
 8004312:	b2db      	uxtb	r3, r3
 8004314:	009b      	lsls	r3, r3, #2
 8004316:	210f      	movs	r1, #15
 8004318:	fa01 f303 	lsl.w	r3, r1, r3
 800431c:	43db      	mvns	r3, r3
 800431e:	401a      	ands	r2, r3
 8004320:	68bb      	ldr	r3, [r7, #8]
 8004322:	623b      	str	r3, [r7, #32]
   __ASM volatile ("rbit %0, %1" : "=r" (result) : "r" (value) );
 8004324:	6a3b      	ldr	r3, [r7, #32]
 8004326:	fa93 f3a3 	rbit	r3, r3
 800432a:	61fb      	str	r3, [r7, #28]
  return result;
 800432c:	69fb      	ldr	r3, [r7, #28]
 800432e:	627b      	str	r3, [r7, #36]	; 0x24
  if (value == 0U)
 8004330:	6a7b      	ldr	r3, [r7, #36]	; 0x24
 8004332:	2b00      	cmp	r3, #0
 8004334:	d101      	bne.n	800433a <LL_GPIO_SetAFPin_0_7+0x58>
    return 32U;
 8004336:	2320      	movs	r3, #32
 8004338:	e003      	b.n	8004342 <LL_GPIO_SetAFPin_0_7+0x60>
  return __builtin_clz(value);
 800433a:	6a7b      	ldr	r3, [r7, #36]	; 0x24
 800433c:	fab3 f383 	clz	r3, r3
 8004340:	b2db      	uxtb	r3, r3
 8004342:	009b      	lsls	r3, r3, #2
 8004344:	6879      	ldr	r1, [r7, #4]
 8004346:	fa01 f303 	lsl.w	r3, r1, r3
 800434a:	431a      	orrs	r2, r3
 800434c:	68fb      	ldr	r3, [r7, #12]
 800434e:	621a      	str	r2, [r3, #32]
}
 8004350:	bf00      	nop
 8004352:	372c      	adds	r7, #44	; 0x2c
 8004354:	46bd      	mov	sp, r7
 8004356:	f85d 7b04 	ldr.w	r7, [sp], #4
 800435a:	4770      	bx	lr

0800435c <LL_GPIO_SetAFPin_8_15>:
{
 800435c:	b480      	push	{r7}
 800435e:	b08b      	sub	sp, #44	; 0x2c
 8004360:	af00      	add	r7, sp, #0
 8004362:	60f8      	str	r0, [r7, #12]
 8004364:	60b9      	str	r1, [r7, #8]
 8004366:	607a      	str	r2, [r7, #4]
  MODIFY_REG(GPIOx->AFR[1], (GPIO_AFRH_AFSEL8 << (POSITION_VAL(Pin >> 8U) * 4U)),
 8004368:	68fb      	ldr	r3, [r7, #12]
 800436a:	6a5a      	ldr	r2, [r3, #36]	; 0x24
 800436c:	68bb      	ldr	r3, [r7, #8]
 800436e:	0a1b      	lsrs	r3, r3, #8
 8004370:	617b      	str	r3, [r7, #20]
   __ASM volatile ("rbit %0, %1" : "=r" (result) : "r" (value) );
 8004372:	697b      	ldr	r3, [r7, #20]
 8004374:	fa93 f3a3 	rbit	r3, r3
 8004378:	613b      	str	r3, [r7, #16]
  return result;
 800437a:	693b      	ldr	r3, [r7, #16]
 800437c:	61bb      	str	r3, [r7, #24]
  if (value == 0U)
 800437e:	69bb      	ldr	r3, [r7, #24]
 8004380:	2b00      	cmp	r3, #0
 8004382:	d101      	bne.n	8004388 <LL_GPIO_SetAFPin_8_15+0x2c>
    return 32U;
 8004384:	2320      	movs	r3, #32
 8004386:	e003      	b.n	8004390 <LL_GPIO_SetAFPin_8_15+0x34>
  return __builtin_clz(value);
 8004388:	69bb      	ldr	r3, [r7, #24]
 800438a:	fab3 f383 	clz	r3, r3
 800438e:	b2db      	uxtb	r3, r3
 8004390:	009b      	lsls	r3, r3, #2
 8004392:	210f      	movs	r1, #15
 8004394:	fa01 f303 	lsl.w	r3, r1, r3
 8004398:	43db      	mvns	r3, r3
 800439a:	401a      	ands	r2, r3
 800439c:	68bb      	ldr	r3, [r7, #8]
 800439e:	0a1b      	lsrs	r3, r3, #8
 80043a0:	623b      	str	r3, [r7, #32]
   __ASM volatile ("rbit %0, %1" : "=r" (result) : "r" (value) );
 80043a2:	6a3b      	ldr	r3, [r7, #32]
 80043a4:	fa93 f3a3 	rbit	r3, r3
 80043a8:	61fb      	str	r3, [r7, #28]
  return result;
 80043aa:	69fb      	ldr	r3, [r7, #28]
 80043ac:	627b      	str	r3, [r7, #36]	; 0x24
  if (value == 0U)
 80043ae:	6a7b      	ldr	r3, [r7, #36]	; 0x24
 80043b0:	2b00      	cmp	r3, #0
 80043b2:	d101      	bne.n	80043b8 <LL_GPIO_SetAFPin_8_15+0x5c>
    return 32U;
 80043b4:	2320      	movs	r3, #32
 80043b6:	e003      	b.n	80043c0 <LL_GPIO_SetAFPin_8_15+0x64>
  return __builtin_clz(value);
 80043b8:	6a7b      	ldr	r3, [r7, #36]	; 0x24
 80043ba:	fab3 f383 	clz	r3, r3
 80043be:	b2db      	uxtb	r3, r3
 80043c0:	009b      	lsls	r3, r3, #2
 80043c2:	6879      	ldr	r1, [r7, #4]
 80043c4:	fa01 f303 	lsl.w	r3, r1, r3
 80043c8:	431a      	orrs	r2, r3
 80043ca:	68fb      	ldr	r3, [r7, #12]
 80043cc:	625a      	str	r2, [r3, #36]	; 0x24
}
 80043ce:	bf00      	nop
 80043d0:	372c      	adds	r7, #44	; 0x2c
 80043d2:	46bd      	mov	sp, r7
 80043d4:	f85d 7b04 	ldr.w	r7, [sp], #4
 80043d8:	4770      	bx	lr

080043da <LL_GPIO_Init>:
  * @retval An ErrorStatus enumeration value:
  *          - SUCCESS: GPIO registers are initialized according to GPIO_InitStruct content
  *          - ERROR:   Not applicable
  */
ErrorStatus LL_GPIO_Init(GPIO_TypeDef *GPIOx, LL_GPIO_InitTypeDef *GPIO_InitStruct)
{
 80043da:	b580      	push	{r7, lr}
 80043dc:	b088      	sub	sp, #32
 80043de:	af00      	add	r7, sp, #0
 80043e0:	6078      	str	r0, [r7, #4]
 80043e2:	6039      	str	r1, [r7, #0]
  assert_param(IS_LL_GPIO_MODE(GPIO_InitStruct->Mode));
  assert_param(IS_LL_GPIO_PULL(GPIO_InitStruct->Pull));

  /* ------------------------- Configure the port pins ---------------- */
  /* Initialize  pinpos on first pin set */
  pinpos = POSITION_VAL(GPIO_InitStruct->Pin);
 80043e4:	683b      	ldr	r3, [r7, #0]
 80043e6:	681b      	ldr	r3, [r3, #0]
 80043e8:	613b      	str	r3, [r7, #16]
   __ASM volatile ("rbit %0, %1" : "=r" (result) : "r" (value) );
 80043ea:	693b      	ldr	r3, [r7, #16]
 80043ec:	fa93 f3a3 	rbit	r3, r3
 80043f0:	60fb      	str	r3, [r7, #12]
  return result;
 80043f2:	68fb      	ldr	r3, [r7, #12]
 80043f4:	617b      	str	r3, [r7, #20]
  if (value == 0U)
 80043f6:	697b      	ldr	r3, [r7, #20]
 80043f8:	2b00      	cmp	r3, #0
 80043fa:	d101      	bne.n	8004400 <LL_GPIO_Init+0x26>
    return 32U;
 80043fc:	2320      	movs	r3, #32
 80043fe:	e003      	b.n	8004408 <LL_GPIO_Init+0x2e>
  return __builtin_clz(value);
 8004400:	697b      	ldr	r3, [r7, #20]
 8004402:	fab3 f383 	clz	r3, r3
 8004406:	b2db      	uxtb	r3, r3
 8004408:	61fb      	str	r3, [r7, #28]

  /* Configure the port pins */
  while (((GPIO_InitStruct->Pin) >> pinpos) != 0x00u)
 800440a:	e040      	b.n	800448e <LL_GPIO_Init+0xb4>
  {
    /* Get current io position */
    currentpin = (GPIO_InitStruct->Pin) & (0x00000001uL << pinpos);
 800440c:	683b      	ldr	r3, [r7, #0]
 800440e:	681a      	ldr	r2, [r3, #0]
 8004410:	2101      	movs	r1, #1
 8004412:	69fb      	ldr	r3, [r7, #28]
 8004414:	fa01 f303 	lsl.w	r3, r1, r3
 8004418:	4013      	ands	r3, r2
 800441a:	61bb      	str	r3, [r7, #24]

    if (currentpin != 0x00u)
 800441c:	69bb      	ldr	r3, [r7, #24]
 800441e:	2b00      	cmp	r3, #0
 8004420:	d032      	beq.n	8004488 <LL_GPIO_Init+0xae>
    {
      /* Pin Mode configuration */
      LL_GPIO_SetPinMode(GPIOx, currentpin, GPIO_InitStruct->Mode);
 8004422:	683b      	ldr	r3, [r7, #0]
 8004424:	685b      	ldr	r3, [r3, #4]
 8004426:	461a      	mov	r2, r3
 8004428:	69b9      	ldr	r1, [r7, #24]
 800442a:	6878      	ldr	r0, [r7, #4]
 800442c:	f7ff fe8a 	bl	8004144 <LL_GPIO_SetPinMode>

      if ((GPIO_InitStruct->Mode == LL_GPIO_MODE_OUTPUT) || (GPIO_InitStruct->Mode == LL_GPIO_MODE_ALTERNATE))
 8004430:	683b      	ldr	r3, [r7, #0]
 8004432:	685b      	ldr	r3, [r3, #4]
 8004434:	2b01      	cmp	r3, #1
 8004436:	d003      	beq.n	8004440 <LL_GPIO_Init+0x66>
 8004438:	683b      	ldr	r3, [r7, #0]
 800443a:	685b      	ldr	r3, [r3, #4]
 800443c:	2b02      	cmp	r3, #2
 800443e:	d106      	bne.n	800444e <LL_GPIO_Init+0x74>
      {
        /* Check Speed mode parameters */
        assert_param(IS_LL_GPIO_SPEED(GPIO_InitStruct->Speed));

        /* Speed mode configuration */
        LL_GPIO_SetPinSpeed(GPIOx, currentpin, GPIO_InitStruct->Speed);
 8004440:	683b      	ldr	r3, [r7, #0]
 8004442:	689b      	ldr	r3, [r3, #8]
 8004444:	461a      	mov	r2, r3
 8004446:	69b9      	ldr	r1, [r7, #24]
 8004448:	6878      	ldr	r0, [r7, #4]
 800444a:	f7ff fed0 	bl	80041ee <LL_GPIO_SetPinSpeed>
      }

      /* Pull-up Pull down resistor configuration*/
      LL_GPIO_SetPinPull(GPIOx, currentpin, GPIO_InitStruct->Pull);
 800444e:	683b      	ldr	r3, [r7, #0]
 8004450:	691b      	ldr	r3, [r3, #16]
 8004452:	461a      	mov	r2, r3
 8004454:	69b9      	ldr	r1, [r7, #24]
 8004456:	6878      	ldr	r0, [r7, #4]
 8004458:	f7ff ff06 	bl	8004268 <LL_GPIO_SetPinPull>

      if (GPIO_InitStruct->Mode == LL_GPIO_MODE_ALTERNATE)
 800445c:	683b      	ldr	r3, [r7, #0]
 800445e:	685b      	ldr	r3, [r3, #4]
 8004460:	2b02      	cmp	r3, #2
 8004462:	d111      	bne.n	8004488 <LL_GPIO_Init+0xae>
      {
        /* Check Alternate parameter */
        assert_param(IS_LL_GPIO_ALTERNATE(GPIO_InitStruct->Alternate));

        /* Speed mode configuration */
        if (currentpin < LL_GPIO_PIN_8)
 8004464:	69bb      	ldr	r3, [r7, #24]
 8004466:	2bff      	cmp	r3, #255	; 0xff
 8004468:	d807      	bhi.n	800447a <LL_GPIO_Init+0xa0>
        {
          LL_GPIO_SetAFPin_0_7(GPIOx, currentpin, GPIO_InitStruct->Alternate);
 800446a:	683b      	ldr	r3, [r7, #0]
 800446c:	695b      	ldr	r3, [r3, #20]
 800446e:	461a      	mov	r2, r3
 8004470:	69b9      	ldr	r1, [r7, #24]
 8004472:	6878      	ldr	r0, [r7, #4]
 8004474:	f7ff ff35 	bl	80042e2 <LL_GPIO_SetAFPin_0_7>
 8004478:	e006      	b.n	8004488 <LL_GPIO_Init+0xae>
        }
        else
        {
          LL_GPIO_SetAFPin_8_15(GPIOx, currentpin, GPIO_InitStruct->Alternate);
 800447a:	683b      	ldr	r3, [r7, #0]
 800447c:	695b      	ldr	r3, [r3, #20]
 800447e:	461a      	mov	r2, r3
 8004480:	69b9      	ldr	r1, [r7, #24]
 8004482:	6878      	ldr	r0, [r7, #4]
 8004484:	f7ff ff6a 	bl	800435c <LL_GPIO_SetAFPin_8_15>
        }
      }
    }
    pinpos++;
 8004488:	69fb      	ldr	r3, [r7, #28]
 800448a:	3301      	adds	r3, #1
 800448c:	61fb      	str	r3, [r7, #28]
  while (((GPIO_InitStruct->Pin) >> pinpos) != 0x00u)
 800448e:	683b      	ldr	r3, [r7, #0]
 8004490:	681a      	ldr	r2, [r3, #0]
 8004492:	69fb      	ldr	r3, [r7, #28]
 8004494:	fa22 f303 	lsr.w	r3, r2, r3
 8004498:	2b00      	cmp	r3, #0
 800449a:	d1b7      	bne.n	800440c <LL_GPIO_Init+0x32>
  }

  if ((GPIO_InitStruct->Mode == LL_GPIO_MODE_OUTPUT) || (GPIO_InitStruct->Mode == LL_GPIO_MODE_ALTERNATE))
 800449c:	683b      	ldr	r3, [r7, #0]
 800449e:	685b      	ldr	r3, [r3, #4]
 80044a0:	2b01      	cmp	r3, #1
 80044a2:	d003      	beq.n	80044ac <LL_GPIO_Init+0xd2>
 80044a4:	683b      	ldr	r3, [r7, #0]
 80044a6:	685b      	ldr	r3, [r3, #4]
 80044a8:	2b02      	cmp	r3, #2
 80044aa:	d107      	bne.n	80044bc <LL_GPIO_Init+0xe2>
  {
    /* Check Output mode parameters */
    assert_param(IS_LL_GPIO_OUTPUT_TYPE(GPIO_InitStruct->OutputType));

    /* Output mode configuration*/
    LL_GPIO_SetPinOutputType(GPIOx, GPIO_InitStruct->Pin, GPIO_InitStruct->OutputType);
 80044ac:	683b      	ldr	r3, [r7, #0]
 80044ae:	6819      	ldr	r1, [r3, #0]
 80044b0:	683b      	ldr	r3, [r7, #0]
 80044b2:	68db      	ldr	r3, [r3, #12]
 80044b4:	461a      	mov	r2, r3
 80044b6:	6878      	ldr	r0, [r7, #4]
 80044b8:	f7ff fe81 	bl	80041be <LL_GPIO_SetPinOutputType>

  }
  return (SUCCESS);
 80044bc:	2300      	movs	r3, #0
}
 80044be:	4618      	mov	r0, r3
 80044c0:	3720      	adds	r7, #32
 80044c2:	46bd      	mov	sp, r7
 80044c4:	bd80      	pop	{r7, pc}
	...

080044c8 <LL_RCC_HSI_IsReady>:
{
 80044c8:	b480      	push	{r7}
 80044ca:	af00      	add	r7, sp, #0
  return ((READ_BIT(RCC->CR, RCC_CR_HSIRDY) == RCC_CR_HSIRDY) ? 1UL : 0UL);
 80044cc:	4b07      	ldr	r3, [pc, #28]	; (80044ec <LL_RCC_HSI_IsReady+0x24>)
 80044ce:	681b      	ldr	r3, [r3, #0]
 80044d0:	f403 6380 	and.w	r3, r3, #1024	; 0x400
 80044d4:	f5b3 6f80 	cmp.w	r3, #1024	; 0x400
 80044d8:	d101      	bne.n	80044de <LL_RCC_HSI_IsReady+0x16>
 80044da:	2301      	movs	r3, #1
 80044dc:	e000      	b.n	80044e0 <LL_RCC_HSI_IsReady+0x18>
 80044de:	2300      	movs	r3, #0
}
 80044e0:	4618      	mov	r0, r3
 80044e2:	46bd      	mov	sp, r7
 80044e4:	f85d 7b04 	ldr.w	r7, [sp], #4
 80044e8:	4770      	bx	lr
 80044ea:	bf00      	nop
 80044ec:	40021000 	.word	0x40021000

080044f0 <LL_RCC_LSE_IsReady>:
{
 80044f0:	b480      	push	{r7}
 80044f2:	af00      	add	r7, sp, #0
  return ((READ_BIT(RCC->BDCR, RCC_BDCR_LSERDY) == RCC_BDCR_LSERDY) ? 1UL : 0UL);
 80044f4:	4b07      	ldr	r3, [pc, #28]	; (8004514 <LL_RCC_LSE_IsReady+0x24>)
 80044f6:	f8d3 3090 	ldr.w	r3, [r3, #144]	; 0x90
 80044fa:	f003 0302 	and.w	r3, r3, #2
 80044fe:	2b02      	cmp	r3, #2
 8004500:	d101      	bne.n	8004506 <LL_RCC_LSE_IsReady+0x16>
 8004502:	2301      	movs	r3, #1
 8004504:	e000      	b.n	8004508 <LL_RCC_LSE_IsReady+0x18>
 8004506:	2300      	movs	r3, #0
}
 8004508:	4618      	mov	r0, r3
 800450a:	46bd      	mov	sp, r7
 800450c:	f85d 7b04 	ldr.w	r7, [sp], #4
 8004510:	4770      	bx	lr
 8004512:	bf00      	nop
 8004514:	40021000 	.word	0x40021000

08004518 <LL_RCC_MSI_IsEnabledRangeSelect>:
{
 8004518:	b480      	push	{r7}
 800451a:	af00      	add	r7, sp, #0
  return ((READ_BIT(RCC->CR, RCC_CR_MSIRGSEL) == RCC_CR_MSIRGSEL) ? 1UL : 0UL);
 800451c:	4b06      	ldr	r3, [pc, #24]	; (8004538 <LL_RCC_MSI_IsEnabledRangeSelect+0x20>)
 800451e:	681b      	ldr	r3, [r3, #0]
 8004520:	f003 0308 	and.w	r3, r3, #8
 8004524:	2b08      	cmp	r3, #8
 8004526:	d101      	bne.n	800452c <LL_RCC_MSI_IsEnabledRangeSelect+0x14>
 8004528:	2301      	movs	r3, #1
 800452a:	e000      	b.n	800452e <LL_RCC_MSI_IsEnabledRangeSelect+0x16>
 800452c:	2300      	movs	r3, #0
}
 800452e:	4618      	mov	r0, r3
 8004530:	46bd      	mov	sp, r7
 8004532:	f85d 7b04 	ldr.w	r7, [sp], #4
 8004536:	4770      	bx	lr
 8004538:	40021000 	.word	0x40021000

0800453c <LL_RCC_MSI_GetRange>:
{
 800453c:	b480      	push	{r7}
 800453e:	af00      	add	r7, sp, #0
  return (uint32_t)(READ_BIT(RCC->CR, RCC_CR_MSIRANGE));
 8004540:	4b04      	ldr	r3, [pc, #16]	; (8004554 <LL_RCC_MSI_GetRange+0x18>)
 8004542:	681b      	ldr	r3, [r3, #0]
 8004544:	f003 03f0 	and.w	r3, r3, #240	; 0xf0
}
 8004548:	4618      	mov	r0, r3
 800454a:	46bd      	mov	sp, r7
 800454c:	f85d 7b04 	ldr.w	r7, [sp], #4
 8004550:	4770      	bx	lr
 8004552:	bf00      	nop
 8004554:	40021000 	.word	0x40021000

08004558 <LL_RCC_MSI_GetRangeAfterStandby>:
{
 8004558:	b480      	push	{r7}
 800455a:	af00      	add	r7, sp, #0
  return (uint32_t)(READ_BIT(RCC->CSR, RCC_CSR_MSISRANGE));
 800455c:	4b04      	ldr	r3, [pc, #16]	; (8004570 <LL_RCC_MSI_GetRangeAfterStandby+0x18>)
 800455e:	f8d3 3094 	ldr.w	r3, [r3, #148]	; 0x94
 8004562:	f403 6370 	and.w	r3, r3, #3840	; 0xf00
}
 8004566:	4618      	mov	r0, r3
 8004568:	46bd      	mov	sp, r7
 800456a:	f85d 7b04 	ldr.w	r7, [sp], #4
 800456e:	4770      	bx	lr
 8004570:	40021000 	.word	0x40021000

08004574 <LL_RCC_GetSysClkSource>:
{
 8004574:	b480      	push	{r7}
 8004576:	af00      	add	r7, sp, #0
  return (uint32_t)(READ_BIT(RCC->CFGR, RCC_CFGR_SWS));
 8004578:	4b04      	ldr	r3, [pc, #16]	; (800458c <LL_RCC_GetSysClkSource+0x18>)
 800457a:	689b      	ldr	r3, [r3, #8]
 800457c:	f003 030c 	and.w	r3, r3, #12
}
 8004580:	4618      	mov	r0, r3
 8004582:	46bd      	mov	sp, r7
 8004584:	f85d 7b04 	ldr.w	r7, [sp], #4
 8004588:	4770      	bx	lr
 800458a:	bf00      	nop
 800458c:	40021000 	.word	0x40021000

08004590 <LL_RCC_GetAHBPrescaler>:
{
 8004590:	b480      	push	{r7}
 8004592:	af00      	add	r7, sp, #0
  return (uint32_t)(READ_BIT(RCC->CFGR, RCC_CFGR_HPRE));
 8004594:	4b04      	ldr	r3, [pc, #16]	; (80045a8 <LL_RCC_GetAHBPrescaler+0x18>)
 8004596:	689b      	ldr	r3, [r3, #8]
 8004598:	f003 03f0 	and.w	r3, r3, #240	; 0xf0
}
 800459c:	4618      	mov	r0, r3
 800459e:	46bd      	mov	sp, r7
 80045a0:	f85d 7b04 	ldr.w	r7, [sp], #4
 80045a4:	4770      	bx	lr
 80045a6:	bf00      	nop
 80045a8:	40021000 	.word	0x40021000

080045ac <LL_RCC_GetAPB1Prescaler>:
{
 80045ac:	b480      	push	{r7}
 80045ae:	af00      	add	r7, sp, #0
  return (uint32_t)(READ_BIT(RCC->CFGR, RCC_CFGR_PPRE1));
 80045b0:	4b04      	ldr	r3, [pc, #16]	; (80045c4 <LL_RCC_GetAPB1Prescaler+0x18>)
 80045b2:	689b      	ldr	r3, [r3, #8]
 80045b4:	f403 63e0 	and.w	r3, r3, #1792	; 0x700
}
 80045b8:	4618      	mov	r0, r3
 80045ba:	46bd      	mov	sp, r7
 80045bc:	f85d 7b04 	ldr.w	r7, [sp], #4
 80045c0:	4770      	bx	lr
 80045c2:	bf00      	nop
 80045c4:	40021000 	.word	0x40021000

080045c8 <LL_RCC_GetAPB2Prescaler>:
{
 80045c8:	b480      	push	{r7}
 80045ca:	af00      	add	r7, sp, #0
  return (uint32_t)(READ_BIT(RCC->CFGR, RCC_CFGR_PPRE2));
 80045cc:	4b04      	ldr	r3, [pc, #16]	; (80045e0 <LL_RCC_GetAPB2Prescaler+0x18>)
 80045ce:	689b      	ldr	r3, [r3, #8]
 80045d0:	f403 5360 	and.w	r3, r3, #14336	; 0x3800
}
 80045d4:	4618      	mov	r0, r3
 80045d6:	46bd      	mov	sp, r7
 80045d8:	f85d 7b04 	ldr.w	r7, [sp], #4
 80045dc:	4770      	bx	lr
 80045de:	bf00      	nop
 80045e0:	40021000 	.word	0x40021000

080045e4 <LL_RCC_GetUSARTClockSource>:
{
 80045e4:	b480      	push	{r7}
 80045e6:	b083      	sub	sp, #12
 80045e8:	af00      	add	r7, sp, #0
 80045ea:	6078      	str	r0, [r7, #4]
  return (uint32_t)(READ_BIT(RCC->CCIPR, USARTx) | (USARTx << 16U));
 80045ec:	4b06      	ldr	r3, [pc, #24]	; (8004608 <LL_RCC_GetUSARTClockSource+0x24>)
 80045ee:	f8d3 2088 	ldr.w	r2, [r3, #136]	; 0x88
 80045f2:	687b      	ldr	r3, [r7, #4]
 80045f4:	401a      	ands	r2, r3
 80045f6:	687b      	ldr	r3, [r7, #4]
 80045f8:	041b      	lsls	r3, r3, #16
 80045fa:	4313      	orrs	r3, r2
}
 80045fc:	4618      	mov	r0, r3
 80045fe:	370c      	adds	r7, #12
 8004600:	46bd      	mov	sp, r7
 8004602:	f85d 7b04 	ldr.w	r7, [sp], #4
 8004606:	4770      	bx	lr
 8004608:	40021000 	.word	0x40021000

0800460c <LL_RCC_GetUARTClockSource>:
{
 800460c:	b480      	push	{r7}
 800460e:	b083      	sub	sp, #12
 8004610:	af00      	add	r7, sp, #0
 8004612:	6078      	str	r0, [r7, #4]
  return (uint32_t)(READ_BIT(RCC->CCIPR, UARTx) | (UARTx << 16U));
 8004614:	4b06      	ldr	r3, [pc, #24]	; (8004630 <LL_RCC_GetUARTClockSource+0x24>)
 8004616:	f8d3 2088 	ldr.w	r2, [r3, #136]	; 0x88
 800461a:	687b      	ldr	r3, [r7, #4]
 800461c:	401a      	ands	r2, r3
 800461e:	687b      	ldr	r3, [r7, #4]
 8004620:	041b      	lsls	r3, r3, #16
 8004622:	4313      	orrs	r3, r2
}
 8004624:	4618      	mov	r0, r3
 8004626:	370c      	adds	r7, #12
 8004628:	46bd      	mov	sp, r7
 800462a:	f85d 7b04 	ldr.w	r7, [sp], #4
 800462e:	4770      	bx	lr
 8004630:	40021000 	.word	0x40021000

08004634 <LL_RCC_PLL_GetMainSource>:
{
 8004634:	b480      	push	{r7}
 8004636:	af00      	add	r7, sp, #0
  return (uint32_t)(READ_BIT(RCC->PLLCFGR, RCC_PLLCFGR_PLLSRC));
 8004638:	4b04      	ldr	r3, [pc, #16]	; (800464c <LL_RCC_PLL_GetMainSource+0x18>)
 800463a:	68db      	ldr	r3, [r3, #12]
 800463c:	f003 0303 	and.w	r3, r3, #3
}
 8004640:	4618      	mov	r0, r3
 8004642:	46bd      	mov	sp, r7
 8004644:	f85d 7b04 	ldr.w	r7, [sp], #4
 8004648:	4770      	bx	lr
 800464a:	bf00      	nop
 800464c:	40021000 	.word	0x40021000

08004650 <LL_RCC_PLL_GetN>:
{
 8004650:	b480      	push	{r7}
 8004652:	af00      	add	r7, sp, #0
  return (uint32_t)(READ_BIT(RCC->PLLCFGR, RCC_PLLCFGR_PLLN) >>  RCC_PLLCFGR_PLLN_Pos);
 8004654:	4b04      	ldr	r3, [pc, #16]	; (8004668 <LL_RCC_PLL_GetN+0x18>)
 8004656:	68db      	ldr	r3, [r3, #12]
 8004658:	0a1b      	lsrs	r3, r3, #8
 800465a:	f003 037f 	and.w	r3, r3, #127	; 0x7f
}
 800465e:	4618      	mov	r0, r3
 8004660:	46bd      	mov	sp, r7
 8004662:	f85d 7b04 	ldr.w	r7, [sp], #4
 8004666:	4770      	bx	lr
 8004668:	40021000 	.word	0x40021000

0800466c <LL_RCC_PLL_GetR>:
{
 800466c:	b480      	push	{r7}
 800466e:	af00      	add	r7, sp, #0
  return (uint32_t)(READ_BIT(RCC->PLLCFGR, RCC_PLLCFGR_PLLR));
 8004670:	4b04      	ldr	r3, [pc, #16]	; (8004684 <LL_RCC_PLL_GetR+0x18>)
 8004672:	68db      	ldr	r3, [r3, #12]
 8004674:	f003 63c0 	and.w	r3, r3, #100663296	; 0x6000000
}
 8004678:	4618      	mov	r0, r3
 800467a:	46bd      	mov	sp, r7
 800467c:	f85d 7b04 	ldr.w	r7, [sp], #4
 8004680:	4770      	bx	lr
 8004682:	bf00      	nop
 8004684:	40021000 	.word	0x40021000

08004688 <LL_RCC_PLL_GetDivider>:
{
 8004688:	b480      	push	{r7}
 800468a:	af00      	add	r7, sp, #0
  return (uint32_t)(READ_BIT(RCC->PLLCFGR, RCC_PLLCFGR_PLLM));
 800468c:	4b04      	ldr	r3, [pc, #16]	; (80046a0 <LL_RCC_PLL_GetDivider+0x18>)
 800468e:	68db      	ldr	r3, [r3, #12]
 8004690:	f003 0370 	and.w	r3, r3, #112	; 0x70
}
 8004694:	4618      	mov	r0, r3
 8004696:	46bd      	mov	sp, r7
 8004698:	f85d 7b04 	ldr.w	r7, [sp], #4
 800469c:	4770      	bx	lr
 800469e:	bf00      	nop
 80046a0:	40021000 	.word	0x40021000

080046a4 <LL_RCC_GetUSARTClockFreq>:
  *         (*) value not defined in all devices.
  * @retval USART clock frequency (in Hz)
  *         - @ref  LL_RCC_PERIPH_FREQUENCY_NO indicates that oscillator (HSI or LSE) is not ready
  */
uint32_t LL_RCC_GetUSARTClockFreq(uint32_t USARTxSource)
{
 80046a4:	b580      	push	{r7, lr}
 80046a6:	b084      	sub	sp, #16
 80046a8:	af00      	add	r7, sp, #0
 80046aa:	6078      	str	r0, [r7, #4]
  uint32_t usart_frequency = LL_RCC_PERIPH_FREQUENCY_NO;
 80046ac:	2300      	movs	r3, #0
 80046ae:	60fb      	str	r3, [r7, #12]

  /* Check parameter */
  assert_param(IS_LL_RCC_USART_CLKSOURCE(USARTxSource));

  if (USARTxSource == LL_RCC_USART1_CLKSOURCE)
 80046b0:	687b      	ldr	r3, [r7, #4]
 80046b2:	2b03      	cmp	r3, #3
 80046b4:	d137      	bne.n	8004726 <LL_RCC_GetUSARTClockFreq+0x82>
  {
    /* USART1CLK clock frequency */
    switch (LL_RCC_GetUSARTClockSource(USARTxSource))
 80046b6:	6878      	ldr	r0, [r7, #4]
 80046b8:	f7ff ff94 	bl	80045e4 <LL_RCC_GetUSARTClockSource>
 80046bc:	4603      	mov	r3, r0
 80046be:	f5a3 3340 	sub.w	r3, r3, #196608	; 0x30000
 80046c2:	2b03      	cmp	r3, #3
 80046c4:	f200 80b2 	bhi.w	800482c <LL_RCC_GetUSARTClockFreq+0x188>
 80046c8:	a201      	add	r2, pc, #4	; (adr r2, 80046d0 <LL_RCC_GetUSARTClockFreq+0x2c>)
 80046ca:	f852 f023 	ldr.w	pc, [r2, r3, lsl #2]
 80046ce:	bf00      	nop
 80046d0:	0800470f 	.word	0x0800470f
 80046d4:	080046e1 	.word	0x080046e1
 80046d8:	080046e9 	.word	0x080046e9
 80046dc:	080046fb 	.word	0x080046fb
    {
      case LL_RCC_USART1_CLKSOURCE_SYSCLK: /* USART1 Clock is System Clock */
        usart_frequency = RCC_GetSystemClockFreq();
 80046e0:	f000 f952 	bl	8004988 <RCC_GetSystemClockFreq>
 80046e4:	60f8      	str	r0, [r7, #12]
        break;
 80046e6:	e0b2      	b.n	800484e <LL_RCC_GetUSARTClockFreq+0x1aa>

      case LL_RCC_USART1_CLKSOURCE_HSI:    /* USART1 Clock is HSI Osc. */
        if (LL_RCC_HSI_IsReady() != 0U)
 80046e8:	f7ff feee 	bl	80044c8 <LL_RCC_HSI_IsReady>
 80046ec:	4603      	mov	r3, r0
 80046ee:	2b00      	cmp	r3, #0
 80046f0:	f000 809e 	beq.w	8004830 <LL_RCC_GetUSARTClockFreq+0x18c>
        {
          usart_frequency = HSI_VALUE;
 80046f4:	4b58      	ldr	r3, [pc, #352]	; (8004858 <LL_RCC_GetUSARTClockFreq+0x1b4>)
 80046f6:	60fb      	str	r3, [r7, #12]
        }
        break;
 80046f8:	e09a      	b.n	8004830 <LL_RCC_GetUSARTClockFreq+0x18c>

      case LL_RCC_USART1_CLKSOURCE_LSE:    /* USART1 Clock is LSE Osc. */
        if (LL_RCC_LSE_IsReady() != 0U)
 80046fa:	f7ff fef9 	bl	80044f0 <LL_RCC_LSE_IsReady>
 80046fe:	4603      	mov	r3, r0
 8004700:	2b00      	cmp	r3, #0
 8004702:	f000 8097 	beq.w	8004834 <LL_RCC_GetUSARTClockFreq+0x190>
        {
          usart_frequency = LSE_VALUE;
 8004706:	f44f 4300 	mov.w	r3, #32768	; 0x8000
 800470a:	60fb      	str	r3, [r7, #12]
        }
        break;
 800470c:	e092      	b.n	8004834 <LL_RCC_GetUSARTClockFreq+0x190>

      case LL_RCC_USART1_CLKSOURCE_PCLK2:  /* USART1 Clock is PCLK2 */
        usart_frequency = RCC_GetPCLK2ClockFreq(RCC_GetHCLKClockFreq(RCC_GetSystemClockFreq()));
 800470e:	f000 f93b 	bl	8004988 <RCC_GetSystemClockFreq>
 8004712:	4603      	mov	r3, r0
 8004714:	4618      	mov	r0, r3
 8004716:	f000 f9c7 	bl	8004aa8 <RCC_GetHCLKClockFreq>
 800471a:	4603      	mov	r3, r0
 800471c:	4618      	mov	r0, r3
 800471e:	f000 f9ed 	bl	8004afc <RCC_GetPCLK2ClockFreq>
 8004722:	60f8      	str	r0, [r7, #12]
        break;
 8004724:	e093      	b.n	800484e <LL_RCC_GetUSARTClockFreq+0x1aa>

      default:
        break;
    }
  }
  else if (USARTxSource == LL_RCC_USART2_CLKSOURCE)
 8004726:	687b      	ldr	r3, [r7, #4]
 8004728:	2b0c      	cmp	r3, #12
 800472a:	d146      	bne.n	80047ba <LL_RCC_GetUSARTClockFreq+0x116>
  {
    /* USART2CLK clock frequency */
    switch (LL_RCC_GetUSARTClockSource(USARTxSource))
 800472c:	6878      	ldr	r0, [r7, #4]
 800472e:	f7ff ff59 	bl	80045e4 <LL_RCC_GetUSARTClockSource>
 8004732:	4603      	mov	r3, r0
 8004734:	f5a3 2340 	sub.w	r3, r3, #786432	; 0xc0000
 8004738:	2b0c      	cmp	r3, #12
 800473a:	d87d      	bhi.n	8004838 <LL_RCC_GetUSARTClockFreq+0x194>
 800473c:	a201      	add	r2, pc, #4	; (adr r2, 8004744 <LL_RCC_GetUSARTClockFreq+0xa0>)
 800473e:	f852 f023 	ldr.w	pc, [r2, r3, lsl #2]
 8004742:	bf00      	nop
 8004744:	080047a3 	.word	0x080047a3
 8004748:	08004839 	.word	0x08004839
 800474c:	08004839 	.word	0x08004839
 8004750:	08004839 	.word	0x08004839
 8004754:	08004779 	.word	0x08004779
 8004758:	08004839 	.word	0x08004839
 800475c:	08004839 	.word	0x08004839
 8004760:	08004839 	.word	0x08004839
 8004764:	08004781 	.word	0x08004781
 8004768:	08004839 	.word	0x08004839
 800476c:	08004839 	.word	0x08004839
 8004770:	08004839 	.word	0x08004839
 8004774:	08004791 	.word	0x08004791
    {
      case LL_RCC_USART2_CLKSOURCE_SYSCLK: /* USART2 Clock is System Clock */
        usart_frequency = RCC_GetSystemClockFreq();
 8004778:	f000 f906 	bl	8004988 <RCC_GetSystemClockFreq>
 800477c:	60f8      	str	r0, [r7, #12]
        break;
 800477e:	e066      	b.n	800484e <LL_RCC_GetUSARTClockFreq+0x1aa>

      case LL_RCC_USART2_CLKSOURCE_HSI:    /* USART2 Clock is HSI Osc. */
        if (LL_RCC_HSI_IsReady() != 0U)
 8004780:	f7ff fea2 	bl	80044c8 <LL_RCC_HSI_IsReady>
 8004784:	4603      	mov	r3, r0
 8004786:	2b00      	cmp	r3, #0
 8004788:	d058      	beq.n	800483c <LL_RCC_GetUSARTClockFreq+0x198>
        {
          usart_frequency = HSI_VALUE;
 800478a:	4b33      	ldr	r3, [pc, #204]	; (8004858 <LL_RCC_GetUSARTClockFreq+0x1b4>)
 800478c:	60fb      	str	r3, [r7, #12]
        }
        break;
 800478e:	e055      	b.n	800483c <LL_RCC_GetUSARTClockFreq+0x198>

      case LL_RCC_USART2_CLKSOURCE_LSE:    /* USART2 Clock is LSE Osc. */
        if (LL_RCC_LSE_IsReady() != 0U)
 8004790:	f7ff feae 	bl	80044f0 <LL_RCC_LSE_IsReady>
 8004794:	4603      	mov	r3, r0
 8004796:	2b00      	cmp	r3, #0
 8004798:	d052      	beq.n	8004840 <LL_RCC_GetUSARTClockFreq+0x19c>
        {
          usart_frequency = LSE_VALUE;
 800479a:	f44f 4300 	mov.w	r3, #32768	; 0x8000
 800479e:	60fb      	str	r3, [r7, #12]
        }
        break;
 80047a0:	e04e      	b.n	8004840 <LL_RCC_GetUSARTClockFreq+0x19c>

      case LL_RCC_USART2_CLKSOURCE_PCLK1:  /* USART2 Clock is PCLK1 */
        usart_frequency = RCC_GetPCLK1ClockFreq(RCC_GetHCLKClockFreq(RCC_GetSystemClockFreq()));
 80047a2:	f000 f8f1 	bl	8004988 <RCC_GetSystemClockFreq>
 80047a6:	4603      	mov	r3, r0
 80047a8:	4618      	mov	r0, r3
 80047aa:	f000 f97d 	bl	8004aa8 <RCC_GetHCLKClockFreq>
 80047ae:	4603      	mov	r3, r0
 80047b0:	4618      	mov	r0, r3
 80047b2:	f000 f98f 	bl	8004ad4 <RCC_GetPCLK1ClockFreq>
 80047b6:	60f8      	str	r0, [r7, #12]
        break;
 80047b8:	e049      	b.n	800484e <LL_RCC_GetUSARTClockFreq+0x1aa>
    }
  }
  else
  {
#if defined(RCC_CCIPR_USART3SEL)
    if (USARTxSource == LL_RCC_USART3_CLKSOURCE)
 80047ba:	687b      	ldr	r3, [r7, #4]
 80047bc:	2b30      	cmp	r3, #48	; 0x30
 80047be:	d141      	bne.n	8004844 <LL_RCC_GetUSARTClockFreq+0x1a0>
    {
      /* USART3CLK clock frequency */
      switch (LL_RCC_GetUSARTClockSource(USARTxSource))
 80047c0:	6878      	ldr	r0, [r7, #4]
 80047c2:	f7ff ff0f 	bl	80045e4 <LL_RCC_GetUSARTClockSource>
 80047c6:	4603      	mov	r3, r0
 80047c8:	4a24      	ldr	r2, [pc, #144]	; (800485c <LL_RCC_GetUSARTClockFreq+0x1b8>)
 80047ca:	4293      	cmp	r3, r2
 80047cc:	d00d      	beq.n	80047ea <LL_RCC_GetUSARTClockFreq+0x146>
 80047ce:	4a23      	ldr	r2, [pc, #140]	; (800485c <LL_RCC_GetUSARTClockFreq+0x1b8>)
 80047d0:	4293      	cmp	r3, r2
 80047d2:	d803      	bhi.n	80047dc <LL_RCC_GetUSARTClockFreq+0x138>
 80047d4:	f5b3 1f40 	cmp.w	r3, #3145728	; 0x300000
 80047d8:	d01c      	beq.n	8004814 <LL_RCC_GetUSARTClockFreq+0x170>
        case LL_RCC_USART3_CLKSOURCE_PCLK1:  /* USART3 Clock is PCLK1 */
          usart_frequency = RCC_GetPCLK1ClockFreq(RCC_GetHCLKClockFreq(RCC_GetSystemClockFreq()));
          break;

        default:
          break;
 80047da:	e038      	b.n	800484e <LL_RCC_GetUSARTClockFreq+0x1aa>
      switch (LL_RCC_GetUSARTClockSource(USARTxSource))
 80047dc:	4a20      	ldr	r2, [pc, #128]	; (8004860 <LL_RCC_GetUSARTClockFreq+0x1bc>)
 80047de:	4293      	cmp	r3, r2
 80047e0:	d007      	beq.n	80047f2 <LL_RCC_GetUSARTClockFreq+0x14e>
 80047e2:	f1b3 1f30 	cmp.w	r3, #3145776	; 0x300030
 80047e6:	d00c      	beq.n	8004802 <LL_RCC_GetUSARTClockFreq+0x15e>
          break;
 80047e8:	e031      	b.n	800484e <LL_RCC_GetUSARTClockFreq+0x1aa>
          usart_frequency = RCC_GetSystemClockFreq();
 80047ea:	f000 f8cd 	bl	8004988 <RCC_GetSystemClockFreq>
 80047ee:	60f8      	str	r0, [r7, #12]
          break;
 80047f0:	e02d      	b.n	800484e <LL_RCC_GetUSARTClockFreq+0x1aa>
          if (LL_RCC_HSI_IsReady() != 0U)
 80047f2:	f7ff fe69 	bl	80044c8 <LL_RCC_HSI_IsReady>
 80047f6:	4603      	mov	r3, r0
 80047f8:	2b00      	cmp	r3, #0
 80047fa:	d025      	beq.n	8004848 <LL_RCC_GetUSARTClockFreq+0x1a4>
            usart_frequency = HSI_VALUE;
 80047fc:	4b16      	ldr	r3, [pc, #88]	; (8004858 <LL_RCC_GetUSARTClockFreq+0x1b4>)
 80047fe:	60fb      	str	r3, [r7, #12]
          break;
 8004800:	e022      	b.n	8004848 <LL_RCC_GetUSARTClockFreq+0x1a4>
          if (LL_RCC_LSE_IsReady() != 0U)
 8004802:	f7ff fe75 	bl	80044f0 <LL_RCC_LSE_IsReady>
 8004806:	4603      	mov	r3, r0
 8004808:	2b00      	cmp	r3, #0
 800480a:	d01f      	beq.n	800484c <LL_RCC_GetUSARTClockFreq+0x1a8>
            usart_frequency = LSE_VALUE;
 800480c:	f44f 4300 	mov.w	r3, #32768	; 0x8000
 8004810:	60fb      	str	r3, [r7, #12]
          break;
 8004812:	e01b      	b.n	800484c <LL_RCC_GetUSARTClockFreq+0x1a8>
          usart_frequency = RCC_GetPCLK1ClockFreq(RCC_GetHCLKClockFreq(RCC_GetSystemClockFreq()));
 8004814:	f000 f8b8 	bl	8004988 <RCC_GetSystemClockFreq>
 8004818:	4603      	mov	r3, r0
 800481a:	4618      	mov	r0, r3
 800481c:	f000 f944 	bl	8004aa8 <RCC_GetHCLKClockFreq>
 8004820:	4603      	mov	r3, r0
 8004822:	4618      	mov	r0, r3
 8004824:	f000 f956 	bl	8004ad4 <RCC_GetPCLK1ClockFreq>
 8004828:	60f8      	str	r0, [r7, #12]
          break;
 800482a:	e010      	b.n	800484e <LL_RCC_GetUSARTClockFreq+0x1aa>
        break;
 800482c:	bf00      	nop
 800482e:	e00e      	b.n	800484e <LL_RCC_GetUSARTClockFreq+0x1aa>
        break;
 8004830:	bf00      	nop
 8004832:	e00c      	b.n	800484e <LL_RCC_GetUSARTClockFreq+0x1aa>
        break;
 8004834:	bf00      	nop
 8004836:	e00a      	b.n	800484e <LL_RCC_GetUSARTClockFreq+0x1aa>
        break;
 8004838:	bf00      	nop
 800483a:	e008      	b.n	800484e <LL_RCC_GetUSARTClockFreq+0x1aa>
        break;
 800483c:	bf00      	nop
 800483e:	e006      	b.n	800484e <LL_RCC_GetUSARTClockFreq+0x1aa>
        break;
 8004840:	bf00      	nop
 8004842:	e004      	b.n	800484e <LL_RCC_GetUSARTClockFreq+0x1aa>
      }
    }
 8004844:	bf00      	nop
 8004846:	e002      	b.n	800484e <LL_RCC_GetUSARTClockFreq+0x1aa>
          break;
 8004848:	bf00      	nop
 800484a:	e000      	b.n	800484e <LL_RCC_GetUSARTClockFreq+0x1aa>
          break;
 800484c:	bf00      	nop
#endif /* RCC_CCIPR_USART3SEL */
  }
  return usart_frequency;
 800484e:	68fb      	ldr	r3, [r7, #12]
}
 8004850:	4618      	mov	r0, r3
 8004852:	3710      	adds	r7, #16
 8004854:	46bd      	mov	sp, r7
 8004856:	bd80      	pop	{r7, pc}
 8004858:	00f42400 	.word	0x00f42400
 800485c:	00300010 	.word	0x00300010
 8004860:	00300020 	.word	0x00300020

08004864 <LL_RCC_GetUARTClockFreq>:
  *         @arg @ref LL_RCC_UART5_CLKSOURCE
  * @retval UART clock frequency (in Hz)
  *         - @ref  LL_RCC_PERIPH_FREQUENCY_NO indicates that oscillator (HSI or LSE) is not ready
  */
uint32_t LL_RCC_GetUARTClockFreq(uint32_t UARTxSource)
{
 8004864:	b580      	push	{r7, lr}
 8004866:	b084      	sub	sp, #16
 8004868:	af00      	add	r7, sp, #0
 800486a:	6078      	str	r0, [r7, #4]
  uint32_t uart_frequency = LL_RCC_PERIPH_FREQUENCY_NO;
 800486c:	2300      	movs	r3, #0
 800486e:	60fb      	str	r3, [r7, #12]

  /* Check parameter */
  assert_param(IS_LL_RCC_UART_CLKSOURCE(UARTxSource));

#if defined(RCC_CCIPR_UART4SEL)
  if (UARTxSource == LL_RCC_UART4_CLKSOURCE)
 8004870:	687b      	ldr	r3, [r7, #4]
 8004872:	2bc0      	cmp	r3, #192	; 0xc0
 8004874:	d135      	bne.n	80048e2 <LL_RCC_GetUARTClockFreq+0x7e>
  {
    /* UART4CLK clock frequency */
    switch (LL_RCC_GetUARTClockSource(UARTxSource))
 8004876:	6878      	ldr	r0, [r7, #4]
 8004878:	f7ff fec8 	bl	800460c <LL_RCC_GetUARTClockSource>
 800487c:	4603      	mov	r3, r0
 800487e:	4a3d      	ldr	r2, [pc, #244]	; (8004974 <LL_RCC_GetUARTClockFreq+0x110>)
 8004880:	4293      	cmp	r3, r2
 8004882:	d00d      	beq.n	80048a0 <LL_RCC_GetUARTClockFreq+0x3c>
 8004884:	4a3b      	ldr	r2, [pc, #236]	; (8004974 <LL_RCC_GetUARTClockFreq+0x110>)
 8004886:	4293      	cmp	r3, r2
 8004888:	d803      	bhi.n	8004892 <LL_RCC_GetUARTClockFreq+0x2e>
 800488a:	f5b3 0f40 	cmp.w	r3, #12582912	; 0xc00000
 800488e:	d01c      	beq.n	80048ca <LL_RCC_GetUARTClockFreq+0x66>
      case LL_RCC_UART4_CLKSOURCE_PCLK1:  /* UART4 Clock is PCLK1 */
        uart_frequency = RCC_GetPCLK1ClockFreq(RCC_GetHCLKClockFreq(RCC_GetSystemClockFreq()));
        break;

      default:
        break;
 8004890:	e02c      	b.n	80048ec <LL_RCC_GetUARTClockFreq+0x88>
    switch (LL_RCC_GetUARTClockSource(UARTxSource))
 8004892:	4a39      	ldr	r2, [pc, #228]	; (8004978 <LL_RCC_GetUARTClockFreq+0x114>)
 8004894:	4293      	cmp	r3, r2
 8004896:	d007      	beq.n	80048a8 <LL_RCC_GetUARTClockFreq+0x44>
 8004898:	f1b3 1fc0 	cmp.w	r3, #12583104	; 0xc000c0
 800489c:	d00c      	beq.n	80048b8 <LL_RCC_GetUARTClockFreq+0x54>
        break;
 800489e:	e025      	b.n	80048ec <LL_RCC_GetUARTClockFreq+0x88>
        uart_frequency = RCC_GetSystemClockFreq();
 80048a0:	f000 f872 	bl	8004988 <RCC_GetSystemClockFreq>
 80048a4:	60f8      	str	r0, [r7, #12]
        break;
 80048a6:	e021      	b.n	80048ec <LL_RCC_GetUARTClockFreq+0x88>
        if (LL_RCC_HSI_IsReady() != 0U)
 80048a8:	f7ff fe0e 	bl	80044c8 <LL_RCC_HSI_IsReady>
 80048ac:	4603      	mov	r3, r0
 80048ae:	2b00      	cmp	r3, #0
 80048b0:	d019      	beq.n	80048e6 <LL_RCC_GetUARTClockFreq+0x82>
          uart_frequency = HSI_VALUE;
 80048b2:	4b32      	ldr	r3, [pc, #200]	; (800497c <LL_RCC_GetUARTClockFreq+0x118>)
 80048b4:	60fb      	str	r3, [r7, #12]
        break;
 80048b6:	e016      	b.n	80048e6 <LL_RCC_GetUARTClockFreq+0x82>
        if (LL_RCC_LSE_IsReady() != 0U)
 80048b8:	f7ff fe1a 	bl	80044f0 <LL_RCC_LSE_IsReady>
 80048bc:	4603      	mov	r3, r0
 80048be:	2b00      	cmp	r3, #0
 80048c0:	d013      	beq.n	80048ea <LL_RCC_GetUARTClockFreq+0x86>
          uart_frequency = LSE_VALUE;
 80048c2:	f44f 4300 	mov.w	r3, #32768	; 0x8000
 80048c6:	60fb      	str	r3, [r7, #12]
        break;
 80048c8:	e00f      	b.n	80048ea <LL_RCC_GetUARTClockFreq+0x86>
        uart_frequency = RCC_GetPCLK1ClockFreq(RCC_GetHCLKClockFreq(RCC_GetSystemClockFreq()));
 80048ca:	f000 f85d 	bl	8004988 <RCC_GetSystemClockFreq>
 80048ce:	4603      	mov	r3, r0
 80048d0:	4618      	mov	r0, r3
 80048d2:	f000 f8e9 	bl	8004aa8 <RCC_GetHCLKClockFreq>
 80048d6:	4603      	mov	r3, r0
 80048d8:	4618      	mov	r0, r3
 80048da:	f000 f8fb 	bl	8004ad4 <RCC_GetPCLK1ClockFreq>
 80048de:	60f8      	str	r0, [r7, #12]
        break;
 80048e0:	e004      	b.n	80048ec <LL_RCC_GetUARTClockFreq+0x88>
    }
  }
 80048e2:	bf00      	nop
 80048e4:	e002      	b.n	80048ec <LL_RCC_GetUARTClockFreq+0x88>
        break;
 80048e6:	bf00      	nop
 80048e8:	e000      	b.n	80048ec <LL_RCC_GetUARTClockFreq+0x88>
        break;
 80048ea:	bf00      	nop
#endif /* RCC_CCIPR_UART4SEL */

#if defined(RCC_CCIPR_UART5SEL)
  if (UARTxSource == LL_RCC_UART5_CLKSOURCE)
 80048ec:	687b      	ldr	r3, [r7, #4]
 80048ee:	f5b3 7f40 	cmp.w	r3, #768	; 0x300
 80048f2:	d135      	bne.n	8004960 <LL_RCC_GetUARTClockFreq+0xfc>
  {
    /* UART5CLK clock frequency */
    switch (LL_RCC_GetUARTClockSource(UARTxSource))
 80048f4:	6878      	ldr	r0, [r7, #4]
 80048f6:	f7ff fe89 	bl	800460c <LL_RCC_GetUARTClockSource>
 80048fa:	4603      	mov	r3, r0
 80048fc:	4a20      	ldr	r2, [pc, #128]	; (8004980 <LL_RCC_GetUARTClockFreq+0x11c>)
 80048fe:	4293      	cmp	r3, r2
 8004900:	d00d      	beq.n	800491e <LL_RCC_GetUARTClockFreq+0xba>
 8004902:	4a1f      	ldr	r2, [pc, #124]	; (8004980 <LL_RCC_GetUARTClockFreq+0x11c>)
 8004904:	4293      	cmp	r3, r2
 8004906:	d803      	bhi.n	8004910 <LL_RCC_GetUARTClockFreq+0xac>
 8004908:	f1b3 7f40 	cmp.w	r3, #50331648	; 0x3000000
 800490c:	d01c      	beq.n	8004948 <LL_RCC_GetUARTClockFreq+0xe4>
      case LL_RCC_UART5_CLKSOURCE_PCLK1:  /* UART5 Clock is PCLK1 */
        uart_frequency = RCC_GetPCLK1ClockFreq(RCC_GetHCLKClockFreq(RCC_GetSystemClockFreq()));
        break;

      default:
        break;
 800490e:	e02c      	b.n	800496a <LL_RCC_GetUARTClockFreq+0x106>
    switch (LL_RCC_GetUARTClockSource(UARTxSource))
 8004910:	4a1c      	ldr	r2, [pc, #112]	; (8004984 <LL_RCC_GetUARTClockFreq+0x120>)
 8004912:	4293      	cmp	r3, r2
 8004914:	d007      	beq.n	8004926 <LL_RCC_GetUARTClockFreq+0xc2>
 8004916:	f1b3 2f03 	cmp.w	r3, #50332416	; 0x3000300
 800491a:	d00c      	beq.n	8004936 <LL_RCC_GetUARTClockFreq+0xd2>
        break;
 800491c:	e025      	b.n	800496a <LL_RCC_GetUARTClockFreq+0x106>
        uart_frequency = RCC_GetSystemClockFreq();
 800491e:	f000 f833 	bl	8004988 <RCC_GetSystemClockFreq>
 8004922:	60f8      	str	r0, [r7, #12]
        break;
 8004924:	e021      	b.n	800496a <LL_RCC_GetUARTClockFreq+0x106>
        if (LL_RCC_HSI_IsReady() != 0U)
 8004926:	f7ff fdcf 	bl	80044c8 <LL_RCC_HSI_IsReady>
 800492a:	4603      	mov	r3, r0
 800492c:	2b00      	cmp	r3, #0
 800492e:	d019      	beq.n	8004964 <LL_RCC_GetUARTClockFreq+0x100>
          uart_frequency = HSI_VALUE;
 8004930:	4b12      	ldr	r3, [pc, #72]	; (800497c <LL_RCC_GetUARTClockFreq+0x118>)
 8004932:	60fb      	str	r3, [r7, #12]
        break;
 8004934:	e016      	b.n	8004964 <LL_RCC_GetUARTClockFreq+0x100>
        if (LL_RCC_LSE_IsReady() != 0U)
 8004936:	f7ff fddb 	bl	80044f0 <LL_RCC_LSE_IsReady>
 800493a:	4603      	mov	r3, r0
 800493c:	2b00      	cmp	r3, #0
 800493e:	d013      	beq.n	8004968 <LL_RCC_GetUARTClockFreq+0x104>
          uart_frequency = LSE_VALUE;
 8004940:	f44f 4300 	mov.w	r3, #32768	; 0x8000
 8004944:	60fb      	str	r3, [r7, #12]
        break;
 8004946:	e00f      	b.n	8004968 <LL_RCC_GetUARTClockFreq+0x104>
        uart_frequency = RCC_GetPCLK1ClockFreq(RCC_GetHCLKClockFreq(RCC_GetSystemClockFreq()));
 8004948:	f000 f81e 	bl	8004988 <RCC_GetSystemClockFreq>
 800494c:	4603      	mov	r3, r0
 800494e:	4618      	mov	r0, r3
 8004950:	f000 f8aa 	bl	8004aa8 <RCC_GetHCLKClockFreq>
 8004954:	4603      	mov	r3, r0
 8004956:	4618      	mov	r0, r3
 8004958:	f000 f8bc 	bl	8004ad4 <RCC_GetPCLK1ClockFreq>
 800495c:	60f8      	str	r0, [r7, #12]
        break;
 800495e:	e004      	b.n	800496a <LL_RCC_GetUARTClockFreq+0x106>
    }
  }
 8004960:	bf00      	nop
 8004962:	e002      	b.n	800496a <LL_RCC_GetUARTClockFreq+0x106>
        break;
 8004964:	bf00      	nop
 8004966:	e000      	b.n	800496a <LL_RCC_GetUARTClockFreq+0x106>
        break;
 8004968:	bf00      	nop
#endif /* RCC_CCIPR_UART5SEL */

  return uart_frequency;
 800496a:	68fb      	ldr	r3, [r7, #12]
}
 800496c:	4618      	mov	r0, r3
 800496e:	3710      	adds	r7, #16
 8004970:	46bd      	mov	sp, r7
 8004972:	bd80      	pop	{r7, pc}
 8004974:	00c00040 	.word	0x00c00040
 8004978:	00c00080 	.word	0x00c00080
 800497c:	00f42400 	.word	0x00f42400
 8004980:	03000100 	.word	0x03000100
 8004984:	03000200 	.word	0x03000200

08004988 <RCC_GetSystemClockFreq>:
/**
  * @brief  Return SYSTEM clock frequency
  * @retval SYSTEM clock frequency (in Hz)
  */
uint32_t RCC_GetSystemClockFreq(void)
{
 8004988:	b580      	push	{r7, lr}
 800498a:	b082      	sub	sp, #8
 800498c:	af00      	add	r7, sp, #0
  uint32_t frequency;

  /* Get SYSCLK source -------------------------------------------------------*/
  switch (LL_RCC_GetSysClkSource())
 800498e:	f7ff fdf1 	bl	8004574 <LL_RCC_GetSysClkSource>
 8004992:	4603      	mov	r3, r0
 8004994:	2b0c      	cmp	r3, #12
 8004996:	d851      	bhi.n	8004a3c <RCC_GetSystemClockFreq+0xb4>
 8004998:	a201      	add	r2, pc, #4	; (adr r2, 80049a0 <RCC_GetSystemClockFreq+0x18>)
 800499a:	f852 f023 	ldr.w	pc, [r2, r3, lsl #2]
 800499e:	bf00      	nop
 80049a0:	080049d5 	.word	0x080049d5
 80049a4:	08004a3d 	.word	0x08004a3d
 80049a8:	08004a3d 	.word	0x08004a3d
 80049ac:	08004a3d 	.word	0x08004a3d
 80049b0:	08004a29 	.word	0x08004a29
 80049b4:	08004a3d 	.word	0x08004a3d
 80049b8:	08004a3d 	.word	0x08004a3d
 80049bc:	08004a3d 	.word	0x08004a3d
 80049c0:	08004a2f 	.word	0x08004a2f
 80049c4:	08004a3d 	.word	0x08004a3d
 80049c8:	08004a3d 	.word	0x08004a3d
 80049cc:	08004a3d 	.word	0x08004a3d
 80049d0:	08004a35 	.word	0x08004a35
  {
    case LL_RCC_SYS_CLKSOURCE_STATUS_MSI:  /* MSI used as system clock source */
      frequency = __LL_RCC_CALC_MSI_FREQ(LL_RCC_MSI_IsEnabledRangeSelect(),
 80049d4:	f7ff fda0 	bl	8004518 <LL_RCC_MSI_IsEnabledRangeSelect>
 80049d8:	4603      	mov	r3, r0
 80049da:	2b00      	cmp	r3, #0
 80049dc:	d111      	bne.n	8004a02 <RCC_GetSystemClockFreq+0x7a>
 80049de:	f7ff fd9b 	bl	8004518 <LL_RCC_MSI_IsEnabledRangeSelect>
 80049e2:	4603      	mov	r3, r0
 80049e4:	2b00      	cmp	r3, #0
 80049e6:	d004      	beq.n	80049f2 <RCC_GetSystemClockFreq+0x6a>
 80049e8:	f7ff fda8 	bl	800453c <LL_RCC_MSI_GetRange>
 80049ec:	4603      	mov	r3, r0
 80049ee:	0a1b      	lsrs	r3, r3, #8
 80049f0:	e003      	b.n	80049fa <RCC_GetSystemClockFreq+0x72>
 80049f2:	f7ff fdb1 	bl	8004558 <LL_RCC_MSI_GetRangeAfterStandby>
 80049f6:	4603      	mov	r3, r0
 80049f8:	0a1b      	lsrs	r3, r3, #8
 80049fa:	4a28      	ldr	r2, [pc, #160]	; (8004a9c <RCC_GetSystemClockFreq+0x114>)
 80049fc:	f852 3023 	ldr.w	r3, [r2, r3, lsl #2]
 8004a00:	e010      	b.n	8004a24 <RCC_GetSystemClockFreq+0x9c>
 8004a02:	f7ff fd89 	bl	8004518 <LL_RCC_MSI_IsEnabledRangeSelect>
 8004a06:	4603      	mov	r3, r0
 8004a08:	2b00      	cmp	r3, #0
 8004a0a:	d004      	beq.n	8004a16 <RCC_GetSystemClockFreq+0x8e>
 8004a0c:	f7ff fd96 	bl	800453c <LL_RCC_MSI_GetRange>
 8004a10:	4603      	mov	r3, r0
 8004a12:	091b      	lsrs	r3, r3, #4
 8004a14:	e003      	b.n	8004a1e <RCC_GetSystemClockFreq+0x96>
 8004a16:	f7ff fd9f 	bl	8004558 <LL_RCC_MSI_GetRangeAfterStandby>
 8004a1a:	4603      	mov	r3, r0
 8004a1c:	091b      	lsrs	r3, r3, #4
 8004a1e:	4a1f      	ldr	r2, [pc, #124]	; (8004a9c <RCC_GetSystemClockFreq+0x114>)
 8004a20:	f852 3023 	ldr.w	r3, [r2, r3, lsl #2]
 8004a24:	607b      	str	r3, [r7, #4]
                                    ((LL_RCC_MSI_IsEnabledRangeSelect() != 0U) ?
                                     LL_RCC_MSI_GetRange() :
                                     LL_RCC_MSI_GetRangeAfterStandby()));
      break;
 8004a26:	e033      	b.n	8004a90 <RCC_GetSystemClockFreq+0x108>

    case LL_RCC_SYS_CLKSOURCE_STATUS_HSI:  /* HSI used as system clock  source */
      frequency = HSI_VALUE;
 8004a28:	4b1d      	ldr	r3, [pc, #116]	; (8004aa0 <RCC_GetSystemClockFreq+0x118>)
 8004a2a:	607b      	str	r3, [r7, #4]
      break;
 8004a2c:	e030      	b.n	8004a90 <RCC_GetSystemClockFreq+0x108>

    case LL_RCC_SYS_CLKSOURCE_STATUS_HSE:  /* HSE used as system clock  source */
      frequency = HSE_VALUE;
 8004a2e:	4b1d      	ldr	r3, [pc, #116]	; (8004aa4 <RCC_GetSystemClockFreq+0x11c>)
 8004a30:	607b      	str	r3, [r7, #4]
      break;
 8004a32:	e02d      	b.n	8004a90 <RCC_GetSystemClockFreq+0x108>

    case LL_RCC_SYS_CLKSOURCE_STATUS_PLL:  /* PLL used as system clock  source */
      frequency = RCC_PLL_GetFreqDomain_SYS();
 8004a34:	f000 f876 	bl	8004b24 <RCC_PLL_GetFreqDomain_SYS>
 8004a38:	6078      	str	r0, [r7, #4]
      break;
 8004a3a:	e029      	b.n	8004a90 <RCC_GetSystemClockFreq+0x108>

    default:
      frequency = __LL_RCC_CALC_MSI_FREQ(LL_RCC_MSI_IsEnabledRangeSelect(),
 8004a3c:	f7ff fd6c 	bl	8004518 <LL_RCC_MSI_IsEnabledRangeSelect>
 8004a40:	4603      	mov	r3, r0
 8004a42:	2b00      	cmp	r3, #0
 8004a44:	d111      	bne.n	8004a6a <RCC_GetSystemClockFreq+0xe2>
 8004a46:	f7ff fd67 	bl	8004518 <LL_RCC_MSI_IsEnabledRangeSelect>
 8004a4a:	4603      	mov	r3, r0
 8004a4c:	2b00      	cmp	r3, #0
 8004a4e:	d004      	beq.n	8004a5a <RCC_GetSystemClockFreq+0xd2>
 8004a50:	f7ff fd74 	bl	800453c <LL_RCC_MSI_GetRange>
 8004a54:	4603      	mov	r3, r0
 8004a56:	0a1b      	lsrs	r3, r3, #8
 8004a58:	e003      	b.n	8004a62 <RCC_GetSystemClockFreq+0xda>
 8004a5a:	f7ff fd7d 	bl	8004558 <LL_RCC_MSI_GetRangeAfterStandby>
 8004a5e:	4603      	mov	r3, r0
 8004a60:	0a1b      	lsrs	r3, r3, #8
 8004a62:	4a0e      	ldr	r2, [pc, #56]	; (8004a9c <RCC_GetSystemClockFreq+0x114>)
 8004a64:	f852 3023 	ldr.w	r3, [r2, r3, lsl #2]
 8004a68:	e010      	b.n	8004a8c <RCC_GetSystemClockFreq+0x104>
 8004a6a:	f7ff fd55 	bl	8004518 <LL_RCC_MSI_IsEnabledRangeSelect>
 8004a6e:	4603      	mov	r3, r0
 8004a70:	2b00      	cmp	r3, #0
 8004a72:	d004      	beq.n	8004a7e <RCC_GetSystemClockFreq+0xf6>
 8004a74:	f7ff fd62 	bl	800453c <LL_RCC_MSI_GetRange>
 8004a78:	4603      	mov	r3, r0
 8004a7a:	091b      	lsrs	r3, r3, #4
 8004a7c:	e003      	b.n	8004a86 <RCC_GetSystemClockFreq+0xfe>
 8004a7e:	f7ff fd6b 	bl	8004558 <LL_RCC_MSI_GetRangeAfterStandby>
 8004a82:	4603      	mov	r3, r0
 8004a84:	091b      	lsrs	r3, r3, #4
 8004a86:	4a05      	ldr	r2, [pc, #20]	; (8004a9c <RCC_GetSystemClockFreq+0x114>)
 8004a88:	f852 3023 	ldr.w	r3, [r2, r3, lsl #2]
 8004a8c:	607b      	str	r3, [r7, #4]
                                    ((LL_RCC_MSI_IsEnabledRangeSelect() != 0U) ?
                                     LL_RCC_MSI_GetRange() :
                                     LL_RCC_MSI_GetRangeAfterStandby()));
      break;
 8004a8e:	bf00      	nop
  }

  return frequency;
 8004a90:	687b      	ldr	r3, [r7, #4]
}
 8004a92:	4618      	mov	r0, r3
 8004a94:	3708      	adds	r7, #8
 8004a96:	46bd      	mov	sp, r7
 8004a98:	bd80      	pop	{r7, pc}
 8004a9a:	bf00      	nop
 8004a9c:	08007648 	.word	0x08007648
 8004aa0:	00f42400 	.word	0x00f42400
 8004aa4:	007a1200 	.word	0x007a1200

08004aa8 <RCC_GetHCLKClockFreq>:
  * @brief  Return HCLK clock frequency
  * @param  SYSCLK_Frequency SYSCLK clock frequency
  * @retval HCLK clock frequency (in Hz)
  */
uint32_t RCC_GetHCLKClockFreq(uint32_t SYSCLK_Frequency)
{
 8004aa8:	b580      	push	{r7, lr}
 8004aaa:	b082      	sub	sp, #8
 8004aac:	af00      	add	r7, sp, #0
 8004aae:	6078      	str	r0, [r7, #4]
  /* HCLK clock frequency */
  return __LL_RCC_CALC_HCLK_FREQ(SYSCLK_Frequency, LL_RCC_GetAHBPrescaler());
 8004ab0:	f7ff fd6e 	bl	8004590 <LL_RCC_GetAHBPrescaler>
 8004ab4:	4603      	mov	r3, r0
 8004ab6:	091b      	lsrs	r3, r3, #4
 8004ab8:	f003 030f 	and.w	r3, r3, #15
 8004abc:	4a04      	ldr	r2, [pc, #16]	; (8004ad0 <RCC_GetHCLKClockFreq+0x28>)
 8004abe:	5cd3      	ldrb	r3, [r2, r3]
 8004ac0:	461a      	mov	r2, r3
 8004ac2:	687b      	ldr	r3, [r7, #4]
 8004ac4:	40d3      	lsrs	r3, r2
}
 8004ac6:	4618      	mov	r0, r3
 8004ac8:	3708      	adds	r7, #8
 8004aca:	46bd      	mov	sp, r7
 8004acc:	bd80      	pop	{r7, pc}
 8004ace:	bf00      	nop
 8004ad0:	08007630 	.word	0x08007630

08004ad4 <RCC_GetPCLK1ClockFreq>:
  * @brief  Return PCLK1 clock frequency
  * @param  HCLK_Frequency HCLK clock frequency
  * @retval PCLK1 clock frequency (in Hz)
  */
uint32_t RCC_GetPCLK1ClockFreq(uint32_t HCLK_Frequency)
{
 8004ad4:	b580      	push	{r7, lr}
 8004ad6:	b082      	sub	sp, #8
 8004ad8:	af00      	add	r7, sp, #0
 8004ada:	6078      	str	r0, [r7, #4]
  /* PCLK1 clock frequency */
  return __LL_RCC_CALC_PCLK1_FREQ(HCLK_Frequency, LL_RCC_GetAPB1Prescaler());
 8004adc:	f7ff fd66 	bl	80045ac <LL_RCC_GetAPB1Prescaler>
 8004ae0:	4603      	mov	r3, r0
 8004ae2:	0a1b      	lsrs	r3, r3, #8
 8004ae4:	4a04      	ldr	r2, [pc, #16]	; (8004af8 <RCC_GetPCLK1ClockFreq+0x24>)
 8004ae6:	5cd3      	ldrb	r3, [r2, r3]
 8004ae8:	461a      	mov	r2, r3
 8004aea:	687b      	ldr	r3, [r7, #4]
 8004aec:	40d3      	lsrs	r3, r2
}
 8004aee:	4618      	mov	r0, r3
 8004af0:	3708      	adds	r7, #8
 8004af2:	46bd      	mov	sp, r7
 8004af4:	bd80      	pop	{r7, pc}
 8004af6:	bf00      	nop
 8004af8:	08007640 	.word	0x08007640

08004afc <RCC_GetPCLK2ClockFreq>:
  * @brief  Return PCLK2 clock frequency
  * @param  HCLK_Frequency HCLK clock frequency
  * @retval PCLK2 clock frequency (in Hz)
  */
uint32_t RCC_GetPCLK2ClockFreq(uint32_t HCLK_Frequency)
{
 8004afc:	b580      	push	{r7, lr}
 8004afe:	b082      	sub	sp, #8
 8004b00:	af00      	add	r7, sp, #0
 8004b02:	6078      	str	r0, [r7, #4]
  /* PCLK2 clock frequency */
  return __LL_RCC_CALC_PCLK2_FREQ(HCLK_Frequency, LL_RCC_GetAPB2Prescaler());
 8004b04:	f7ff fd60 	bl	80045c8 <LL_RCC_GetAPB2Prescaler>
 8004b08:	4603      	mov	r3, r0
 8004b0a:	0adb      	lsrs	r3, r3, #11
 8004b0c:	4a04      	ldr	r2, [pc, #16]	; (8004b20 <RCC_GetPCLK2ClockFreq+0x24>)
 8004b0e:	5cd3      	ldrb	r3, [r2, r3]
 8004b10:	461a      	mov	r2, r3
 8004b12:	687b      	ldr	r3, [r7, #4]
 8004b14:	40d3      	lsrs	r3, r2
}
 8004b16:	4618      	mov	r0, r3
 8004b18:	3708      	adds	r7, #8
 8004b1a:	46bd      	mov	sp, r7
 8004b1c:	bd80      	pop	{r7, pc}
 8004b1e:	bf00      	nop
 8004b20:	08007640 	.word	0x08007640

08004b24 <RCC_PLL_GetFreqDomain_SYS>:
/**
  * @brief  Return PLL clock frequency used for system domain
  * @retval PLL clock frequency (in Hz)
  */
uint32_t RCC_PLL_GetFreqDomain_SYS(void)
{
 8004b24:	b590      	push	{r4, r7, lr}
 8004b26:	b083      	sub	sp, #12
 8004b28:	af00      	add	r7, sp, #0
  uint32_t pllinputfreq, pllsource;

  /* PLL_VCO = (HSE_VALUE or HSI_VALUE or MSI_VALUE/ PLLM) * PLLN
     SYSCLK = PLL_VCO / PLLR
  */
  pllsource = LL_RCC_PLL_GetMainSource();
 8004b2a:	f7ff fd83 	bl	8004634 <LL_RCC_PLL_GetMainSource>
 8004b2e:	6038      	str	r0, [r7, #0]

  switch (pllsource)
 8004b30:	683b      	ldr	r3, [r7, #0]
 8004b32:	2b02      	cmp	r3, #2
 8004b34:	d02d      	beq.n	8004b92 <RCC_PLL_GetFreqDomain_SYS+0x6e>
 8004b36:	2b03      	cmp	r3, #3
 8004b38:	d02e      	beq.n	8004b98 <RCC_PLL_GetFreqDomain_SYS+0x74>
 8004b3a:	2b01      	cmp	r3, #1
 8004b3c:	d12f      	bne.n	8004b9e <RCC_PLL_GetFreqDomain_SYS+0x7a>
  {
    case LL_RCC_PLLSOURCE_MSI:  /* MSI used as PLL clock source */
      pllinputfreq = __LL_RCC_CALC_MSI_FREQ(LL_RCC_MSI_IsEnabledRangeSelect(),
 8004b3e:	f7ff fceb 	bl	8004518 <LL_RCC_MSI_IsEnabledRangeSelect>
 8004b42:	4603      	mov	r3, r0
 8004b44:	2b00      	cmp	r3, #0
 8004b46:	d111      	bne.n	8004b6c <RCC_PLL_GetFreqDomain_SYS+0x48>
 8004b48:	f7ff fce6 	bl	8004518 <LL_RCC_MSI_IsEnabledRangeSelect>
 8004b4c:	4603      	mov	r3, r0
 8004b4e:	2b00      	cmp	r3, #0
 8004b50:	d004      	beq.n	8004b5c <RCC_PLL_GetFreqDomain_SYS+0x38>
 8004b52:	f7ff fcf3 	bl	800453c <LL_RCC_MSI_GetRange>
 8004b56:	4603      	mov	r3, r0
 8004b58:	0a1b      	lsrs	r3, r3, #8
 8004b5a:	e003      	b.n	8004b64 <RCC_PLL_GetFreqDomain_SYS+0x40>
 8004b5c:	f7ff fcfc 	bl	8004558 <LL_RCC_MSI_GetRangeAfterStandby>
 8004b60:	4603      	mov	r3, r0
 8004b62:	0a1b      	lsrs	r3, r3, #8
 8004b64:	4a2f      	ldr	r2, [pc, #188]	; (8004c24 <RCC_PLL_GetFreqDomain_SYS+0x100>)
 8004b66:	f852 3023 	ldr.w	r3, [r2, r3, lsl #2]
 8004b6a:	e010      	b.n	8004b8e <RCC_PLL_GetFreqDomain_SYS+0x6a>
 8004b6c:	f7ff fcd4 	bl	8004518 <LL_RCC_MSI_IsEnabledRangeSelect>
 8004b70:	4603      	mov	r3, r0
 8004b72:	2b00      	cmp	r3, #0
 8004b74:	d004      	beq.n	8004b80 <RCC_PLL_GetFreqDomain_SYS+0x5c>
 8004b76:	f7ff fce1 	bl	800453c <LL_RCC_MSI_GetRange>
 8004b7a:	4603      	mov	r3, r0
 8004b7c:	091b      	lsrs	r3, r3, #4
 8004b7e:	e003      	b.n	8004b88 <RCC_PLL_GetFreqDomain_SYS+0x64>
 8004b80:	f7ff fcea 	bl	8004558 <LL_RCC_MSI_GetRangeAfterStandby>
 8004b84:	4603      	mov	r3, r0
 8004b86:	091b      	lsrs	r3, r3, #4
 8004b88:	4a26      	ldr	r2, [pc, #152]	; (8004c24 <RCC_PLL_GetFreqDomain_SYS+0x100>)
 8004b8a:	f852 3023 	ldr.w	r3, [r2, r3, lsl #2]
 8004b8e:	607b      	str	r3, [r7, #4]
                                    ((LL_RCC_MSI_IsEnabledRangeSelect() != 0U) ?
                                     LL_RCC_MSI_GetRange() :
                                     LL_RCC_MSI_GetRangeAfterStandby()));
      break;
 8004b90:	e02f      	b.n	8004bf2 <RCC_PLL_GetFreqDomain_SYS+0xce>

    case LL_RCC_PLLSOURCE_HSI:  /* HSI used as PLL clock source */
      pllinputfreq = HSI_VALUE;
 8004b92:	4b25      	ldr	r3, [pc, #148]	; (8004c28 <RCC_PLL_GetFreqDomain_SYS+0x104>)
 8004b94:	607b      	str	r3, [r7, #4]
      break;
 8004b96:	e02c      	b.n	8004bf2 <RCC_PLL_GetFreqDomain_SYS+0xce>

    case LL_RCC_PLLSOURCE_HSE:  /* HSE used as PLL clock source */
      pllinputfreq = HSE_VALUE;
 8004b98:	4b24      	ldr	r3, [pc, #144]	; (8004c2c <RCC_PLL_GetFreqDomain_SYS+0x108>)
 8004b9a:	607b      	str	r3, [r7, #4]
      break;
 8004b9c:	e029      	b.n	8004bf2 <RCC_PLL_GetFreqDomain_SYS+0xce>

    default:
      pllinputfreq = __LL_RCC_CALC_MSI_FREQ(LL_RCC_MSI_IsEnabledRangeSelect(),
 8004b9e:	f7ff fcbb 	bl	8004518 <LL_RCC_MSI_IsEnabledRangeSelect>
 8004ba2:	4603      	mov	r3, r0
 8004ba4:	2b00      	cmp	r3, #0
 8004ba6:	d111      	bne.n	8004bcc <RCC_PLL_GetFreqDomain_SYS+0xa8>
 8004ba8:	f7ff fcb6 	bl	8004518 <LL_RCC_MSI_IsEnabledRangeSelect>
 8004bac:	4603      	mov	r3, r0
 8004bae:	2b00      	cmp	r3, #0
 8004bb0:	d004      	beq.n	8004bbc <RCC_PLL_GetFreqDomain_SYS+0x98>
 8004bb2:	f7ff fcc3 	bl	800453c <LL_RCC_MSI_GetRange>
 8004bb6:	4603      	mov	r3, r0
 8004bb8:	0a1b      	lsrs	r3, r3, #8
 8004bba:	e003      	b.n	8004bc4 <RCC_PLL_GetFreqDomain_SYS+0xa0>
 8004bbc:	f7ff fccc 	bl	8004558 <LL_RCC_MSI_GetRangeAfterStandby>
 8004bc0:	4603      	mov	r3, r0
 8004bc2:	0a1b      	lsrs	r3, r3, #8
 8004bc4:	4a17      	ldr	r2, [pc, #92]	; (8004c24 <RCC_PLL_GetFreqDomain_SYS+0x100>)
 8004bc6:	f852 3023 	ldr.w	r3, [r2, r3, lsl #2]
 8004bca:	e010      	b.n	8004bee <RCC_PLL_GetFreqDomain_SYS+0xca>
 8004bcc:	f7ff fca4 	bl	8004518 <LL_RCC_MSI_IsEnabledRangeSelect>
 8004bd0:	4603      	mov	r3, r0
 8004bd2:	2b00      	cmp	r3, #0
 8004bd4:	d004      	beq.n	8004be0 <RCC_PLL_GetFreqDomain_SYS+0xbc>
 8004bd6:	f7ff fcb1 	bl	800453c <LL_RCC_MSI_GetRange>
 8004bda:	4603      	mov	r3, r0
 8004bdc:	091b      	lsrs	r3, r3, #4
 8004bde:	e003      	b.n	8004be8 <RCC_PLL_GetFreqDomain_SYS+0xc4>
 8004be0:	f7ff fcba 	bl	8004558 <LL_RCC_MSI_GetRangeAfterStandby>
 8004be4:	4603      	mov	r3, r0
 8004be6:	091b      	lsrs	r3, r3, #4
 8004be8:	4a0e      	ldr	r2, [pc, #56]	; (8004c24 <RCC_PLL_GetFreqDomain_SYS+0x100>)
 8004bea:	f852 3023 	ldr.w	r3, [r2, r3, lsl #2]
 8004bee:	607b      	str	r3, [r7, #4]
                                    ((LL_RCC_MSI_IsEnabledRangeSelect() != 0U) ?
                                     LL_RCC_MSI_GetRange() :
                                     LL_RCC_MSI_GetRangeAfterStandby()));
      break;
 8004bf0:	bf00      	nop
  }
  return __LL_RCC_CALC_PLLCLK_FREQ(pllinputfreq, LL_RCC_PLL_GetDivider(),
 8004bf2:	f7ff fd49 	bl	8004688 <LL_RCC_PLL_GetDivider>
 8004bf6:	4603      	mov	r3, r0
 8004bf8:	091b      	lsrs	r3, r3, #4
 8004bfa:	3301      	adds	r3, #1
 8004bfc:	687a      	ldr	r2, [r7, #4]
 8004bfe:	fbb2 f4f3 	udiv	r4, r2, r3
 8004c02:	f7ff fd25 	bl	8004650 <LL_RCC_PLL_GetN>
 8004c06:	4603      	mov	r3, r0
 8004c08:	fb03 f404 	mul.w	r4, r3, r4
 8004c0c:	f7ff fd2e 	bl	800466c <LL_RCC_PLL_GetR>
 8004c10:	4603      	mov	r3, r0
 8004c12:	0e5b      	lsrs	r3, r3, #25
 8004c14:	3301      	adds	r3, #1
 8004c16:	005b      	lsls	r3, r3, #1
 8004c18:	fbb4 f3f3 	udiv	r3, r4, r3
                                        LL_RCC_PLL_GetN(), LL_RCC_PLL_GetR());
}
 8004c1c:	4618      	mov	r0, r3
 8004c1e:	370c      	adds	r7, #12
 8004c20:	46bd      	mov	sp, r7
 8004c22:	bd90      	pop	{r4, r7, pc}
 8004c24:	08007648 	.word	0x08007648
 8004c28:	00f42400 	.word	0x00f42400
 8004c2c:	007a1200 	.word	0x007a1200

08004c30 <LL_SPI_IsEnabled>:
{
 8004c30:	b480      	push	{r7}
 8004c32:	b083      	sub	sp, #12
 8004c34:	af00      	add	r7, sp, #0
 8004c36:	6078      	str	r0, [r7, #4]
  return ((READ_BIT(SPIx->CR1, SPI_CR1_SPE) == (SPI_CR1_SPE)) ? 1UL : 0UL);
 8004c38:	687b      	ldr	r3, [r7, #4]
 8004c3a:	681b      	ldr	r3, [r3, #0]
 8004c3c:	f003 0340 	and.w	r3, r3, #64	; 0x40
 8004c40:	2b40      	cmp	r3, #64	; 0x40
 8004c42:	d101      	bne.n	8004c48 <LL_SPI_IsEnabled+0x18>
 8004c44:	2301      	movs	r3, #1
 8004c46:	e000      	b.n	8004c4a <LL_SPI_IsEnabled+0x1a>
 8004c48:	2300      	movs	r3, #0
}
 8004c4a:	4618      	mov	r0, r3
 8004c4c:	370c      	adds	r7, #12
 8004c4e:	46bd      	mov	sp, r7
 8004c50:	f85d 7b04 	ldr.w	r7, [sp], #4
 8004c54:	4770      	bx	lr

08004c56 <LL_SPI_SetCRCPolynomial>:
{
 8004c56:	b480      	push	{r7}
 8004c58:	b083      	sub	sp, #12
 8004c5a:	af00      	add	r7, sp, #0
 8004c5c:	6078      	str	r0, [r7, #4]
 8004c5e:	6039      	str	r1, [r7, #0]
  WRITE_REG(SPIx->CRCPR, (uint16_t)CRCPoly);
 8004c60:	683b      	ldr	r3, [r7, #0]
 8004c62:	b29b      	uxth	r3, r3
 8004c64:	461a      	mov	r2, r3
 8004c66:	687b      	ldr	r3, [r7, #4]
 8004c68:	611a      	str	r2, [r3, #16]
}
 8004c6a:	bf00      	nop
 8004c6c:	370c      	adds	r7, #12
 8004c6e:	46bd      	mov	sp, r7
 8004c70:	f85d 7b04 	ldr.w	r7, [sp], #4
 8004c74:	4770      	bx	lr

08004c76 <LL_SPI_Init>:
  * @param  SPIx SPI Instance
  * @param  SPI_InitStruct pointer to a @ref LL_SPI_InitTypeDef structure
  * @retval An ErrorStatus enumeration value. (Return always SUCCESS)
  */
ErrorStatus LL_SPI_Init(SPI_TypeDef *SPIx, LL_SPI_InitTypeDef *SPI_InitStruct)
{
 8004c76:	b580      	push	{r7, lr}
 8004c78:	b084      	sub	sp, #16
 8004c7a:	af00      	add	r7, sp, #0
 8004c7c:	6078      	str	r0, [r7, #4]
 8004c7e:	6039      	str	r1, [r7, #0]
  ErrorStatus status = ERROR;
 8004c80:	2301      	movs	r3, #1
 8004c82:	73fb      	strb	r3, [r7, #15]
  assert_param(IS_LL_SPI_NSS(SPI_InitStruct->NSS));
  assert_param(IS_LL_SPI_BAUDRATE(SPI_InitStruct->BaudRate));
  assert_param(IS_LL_SPI_BITORDER(SPI_InitStruct->BitOrder));
  assert_param(IS_LL_SPI_CRCCALCULATION(SPI_InitStruct->CRCCalculation));

  if (LL_SPI_IsEnabled(SPIx) == 0x00000000U)
 8004c84:	6878      	ldr	r0, [r7, #4]
 8004c86:	f7ff ffd3 	bl	8004c30 <LL_SPI_IsEnabled>
 8004c8a:	4603      	mov	r3, r0
 8004c8c:	2b00      	cmp	r3, #0
 8004c8e:	d13b      	bne.n	8004d08 <LL_SPI_Init+0x92>
     * - NSS management:     SPI_CR1_SSM bit
     * - BaudRate prescaler: SPI_CR1_BR[2:0] bits
     * - BitOrder:           SPI_CR1_LSBFIRST bit
     * - CRCCalculation:     SPI_CR1_CRCEN bit
     */
    MODIFY_REG(SPIx->CR1,
 8004c90:	687b      	ldr	r3, [r7, #4]
 8004c92:	681b      	ldr	r3, [r3, #0]
 8004c94:	f423 437f 	bic.w	r3, r3, #65280	; 0xff00
 8004c98:	f023 03bf 	bic.w	r3, r3, #191	; 0xbf
 8004c9c:	683a      	ldr	r2, [r7, #0]
 8004c9e:	6811      	ldr	r1, [r2, #0]
 8004ca0:	683a      	ldr	r2, [r7, #0]
 8004ca2:	6852      	ldr	r2, [r2, #4]
 8004ca4:	4311      	orrs	r1, r2
 8004ca6:	683a      	ldr	r2, [r7, #0]
 8004ca8:	68d2      	ldr	r2, [r2, #12]
 8004caa:	4311      	orrs	r1, r2
 8004cac:	683a      	ldr	r2, [r7, #0]
 8004cae:	6912      	ldr	r2, [r2, #16]
 8004cb0:	4311      	orrs	r1, r2
 8004cb2:	683a      	ldr	r2, [r7, #0]
 8004cb4:	6952      	ldr	r2, [r2, #20]
 8004cb6:	4311      	orrs	r1, r2
 8004cb8:	683a      	ldr	r2, [r7, #0]
 8004cba:	6992      	ldr	r2, [r2, #24]
 8004cbc:	4311      	orrs	r1, r2
 8004cbe:	683a      	ldr	r2, [r7, #0]
 8004cc0:	69d2      	ldr	r2, [r2, #28]
 8004cc2:	4311      	orrs	r1, r2
 8004cc4:	683a      	ldr	r2, [r7, #0]
 8004cc6:	6a12      	ldr	r2, [r2, #32]
 8004cc8:	430a      	orrs	r2, r1
 8004cca:	431a      	orrs	r2, r3
 8004ccc:	687b      	ldr	r3, [r7, #4]
 8004cce:	601a      	str	r2, [r3, #0]
    /*---------------------------- SPIx CR2 Configuration ------------------------
     * Configure SPIx CR2 with parameters:
     * - DataWidth:          DS[3:0] bits
     * - NSS management:     SSOE bit
     */
    MODIFY_REG(SPIx->CR2,
 8004cd0:	687b      	ldr	r3, [r7, #4]
 8004cd2:	685b      	ldr	r3, [r3, #4]
 8004cd4:	f423 6370 	bic.w	r3, r3, #3840	; 0xf00
 8004cd8:	f023 0304 	bic.w	r3, r3, #4
 8004cdc:	683a      	ldr	r2, [r7, #0]
 8004cde:	6891      	ldr	r1, [r2, #8]
 8004ce0:	683a      	ldr	r2, [r7, #0]
 8004ce2:	6952      	ldr	r2, [r2, #20]
 8004ce4:	0c12      	lsrs	r2, r2, #16
 8004ce6:	430a      	orrs	r2, r1
 8004ce8:	431a      	orrs	r2, r3
 8004cea:	687b      	ldr	r3, [r7, #4]
 8004cec:	605a      	str	r2, [r3, #4]

    /*---------------------------- SPIx CRCPR Configuration ----------------------
     * Configure SPIx CRCPR with parameters:
     * - CRCPoly:            CRCPOLY[15:0] bits
     */
    if (SPI_InitStruct->CRCCalculation == LL_SPI_CRCCALCULATION_ENABLE)
 8004cee:	683b      	ldr	r3, [r7, #0]
 8004cf0:	6a1b      	ldr	r3, [r3, #32]
 8004cf2:	f5b3 5f00 	cmp.w	r3, #8192	; 0x2000
 8004cf6:	d105      	bne.n	8004d04 <LL_SPI_Init+0x8e>
    {
      assert_param(IS_LL_SPI_CRC_POLYNOMIAL(SPI_InitStruct->CRCPoly));
      LL_SPI_SetCRCPolynomial(SPIx, SPI_InitStruct->CRCPoly);
 8004cf8:	683b      	ldr	r3, [r7, #0]
 8004cfa:	6a5b      	ldr	r3, [r3, #36]	; 0x24
 8004cfc:	4619      	mov	r1, r3
 8004cfe:	6878      	ldr	r0, [r7, #4]
 8004d00:	f7ff ffa9 	bl	8004c56 <LL_SPI_SetCRCPolynomial>
    }
    status = SUCCESS;
 8004d04:	2300      	movs	r3, #0
 8004d06:	73fb      	strb	r3, [r7, #15]
  }

  return status;
 8004d08:	7bfb      	ldrb	r3, [r7, #15]
}
 8004d0a:	4618      	mov	r0, r3
 8004d0c:	3710      	adds	r7, #16
 8004d0e:	46bd      	mov	sp, r7
 8004d10:	bd80      	pop	{r7, pc}

08004d12 <LL_TIM_SetPrescaler>:
{
 8004d12:	b480      	push	{r7}
 8004d14:	b083      	sub	sp, #12
 8004d16:	af00      	add	r7, sp, #0
 8004d18:	6078      	str	r0, [r7, #4]
 8004d1a:	6039      	str	r1, [r7, #0]
  WRITE_REG(TIMx->PSC, Prescaler);
 8004d1c:	687b      	ldr	r3, [r7, #4]
 8004d1e:	683a      	ldr	r2, [r7, #0]
 8004d20:	629a      	str	r2, [r3, #40]	; 0x28
}
 8004d22:	bf00      	nop
 8004d24:	370c      	adds	r7, #12
 8004d26:	46bd      	mov	sp, r7
 8004d28:	f85d 7b04 	ldr.w	r7, [sp], #4
 8004d2c:	4770      	bx	lr

08004d2e <LL_TIM_SetAutoReload>:
{
 8004d2e:	b480      	push	{r7}
 8004d30:	b083      	sub	sp, #12
 8004d32:	af00      	add	r7, sp, #0
 8004d34:	6078      	str	r0, [r7, #4]
 8004d36:	6039      	str	r1, [r7, #0]
  WRITE_REG(TIMx->ARR, AutoReload);
 8004d38:	687b      	ldr	r3, [r7, #4]
 8004d3a:	683a      	ldr	r2, [r7, #0]
 8004d3c:	62da      	str	r2, [r3, #44]	; 0x2c
}
 8004d3e:	bf00      	nop
 8004d40:	370c      	adds	r7, #12
 8004d42:	46bd      	mov	sp, r7
 8004d44:	f85d 7b04 	ldr.w	r7, [sp], #4
 8004d48:	4770      	bx	lr

08004d4a <LL_TIM_SetRepetitionCounter>:
{
 8004d4a:	b480      	push	{r7}
 8004d4c:	b083      	sub	sp, #12
 8004d4e:	af00      	add	r7, sp, #0
 8004d50:	6078      	str	r0, [r7, #4]
 8004d52:	6039      	str	r1, [r7, #0]
  WRITE_REG(TIMx->RCR, RepetitionCounter);
 8004d54:	687b      	ldr	r3, [r7, #4]
 8004d56:	683a      	ldr	r2, [r7, #0]
 8004d58:	631a      	str	r2, [r3, #48]	; 0x30
}
 8004d5a:	bf00      	nop
 8004d5c:	370c      	adds	r7, #12
 8004d5e:	46bd      	mov	sp, r7
 8004d60:	f85d 7b04 	ldr.w	r7, [sp], #4
 8004d64:	4770      	bx	lr

08004d66 <LL_TIM_OC_SetCompareCH1>:
{
 8004d66:	b480      	push	{r7}
 8004d68:	b083      	sub	sp, #12
 8004d6a:	af00      	add	r7, sp, #0
 8004d6c:	6078      	str	r0, [r7, #4]
 8004d6e:	6039      	str	r1, [r7, #0]
  WRITE_REG(TIMx->CCR1, CompareValue);
 8004d70:	687b      	ldr	r3, [r7, #4]
 8004d72:	683a      	ldr	r2, [r7, #0]
 8004d74:	635a      	str	r2, [r3, #52]	; 0x34
}
 8004d76:	bf00      	nop
 8004d78:	370c      	adds	r7, #12
 8004d7a:	46bd      	mov	sp, r7
 8004d7c:	f85d 7b04 	ldr.w	r7, [sp], #4
 8004d80:	4770      	bx	lr

08004d82 <LL_TIM_OC_SetCompareCH2>:
{
 8004d82:	b480      	push	{r7}
 8004d84:	b083      	sub	sp, #12
 8004d86:	af00      	add	r7, sp, #0
 8004d88:	6078      	str	r0, [r7, #4]
 8004d8a:	6039      	str	r1, [r7, #0]
  WRITE_REG(TIMx->CCR2, CompareValue);
 8004d8c:	687b      	ldr	r3, [r7, #4]
 8004d8e:	683a      	ldr	r2, [r7, #0]
 8004d90:	639a      	str	r2, [r3, #56]	; 0x38
}
 8004d92:	bf00      	nop
 8004d94:	370c      	adds	r7, #12
 8004d96:	46bd      	mov	sp, r7
 8004d98:	f85d 7b04 	ldr.w	r7, [sp], #4
 8004d9c:	4770      	bx	lr

08004d9e <LL_TIM_OC_SetCompareCH3>:
{
 8004d9e:	b480      	push	{r7}
 8004da0:	b083      	sub	sp, #12
 8004da2:	af00      	add	r7, sp, #0
 8004da4:	6078      	str	r0, [r7, #4]
 8004da6:	6039      	str	r1, [r7, #0]
  WRITE_REG(TIMx->CCR3, CompareValue);
 8004da8:	687b      	ldr	r3, [r7, #4]
 8004daa:	683a      	ldr	r2, [r7, #0]
 8004dac:	63da      	str	r2, [r3, #60]	; 0x3c
}
 8004dae:	bf00      	nop
 8004db0:	370c      	adds	r7, #12
 8004db2:	46bd      	mov	sp, r7
 8004db4:	f85d 7b04 	ldr.w	r7, [sp], #4
 8004db8:	4770      	bx	lr

08004dba <LL_TIM_OC_SetCompareCH4>:
{
 8004dba:	b480      	push	{r7}
 8004dbc:	b083      	sub	sp, #12
 8004dbe:	af00      	add	r7, sp, #0
 8004dc0:	6078      	str	r0, [r7, #4]
 8004dc2:	6039      	str	r1, [r7, #0]
  WRITE_REG(TIMx->CCR4, CompareValue);
 8004dc4:	687b      	ldr	r3, [r7, #4]
 8004dc6:	683a      	ldr	r2, [r7, #0]
 8004dc8:	641a      	str	r2, [r3, #64]	; 0x40
}
 8004dca:	bf00      	nop
 8004dcc:	370c      	adds	r7, #12
 8004dce:	46bd      	mov	sp, r7
 8004dd0:	f85d 7b04 	ldr.w	r7, [sp], #4
 8004dd4:	4770      	bx	lr

08004dd6 <LL_TIM_OC_SetCompareCH5>:
{
 8004dd6:	b480      	push	{r7}
 8004dd8:	b083      	sub	sp, #12
 8004dda:	af00      	add	r7, sp, #0
 8004ddc:	6078      	str	r0, [r7, #4]
 8004dde:	6039      	str	r1, [r7, #0]
  MODIFY_REG(TIMx->CCR5, TIM_CCR5_CCR5, CompareValue);
 8004de0:	687b      	ldr	r3, [r7, #4]
 8004de2:	6d9b      	ldr	r3, [r3, #88]	; 0x58
 8004de4:	687b      	ldr	r3, [r7, #4]
 8004de6:	683a      	ldr	r2, [r7, #0]
 8004de8:	659a      	str	r2, [r3, #88]	; 0x58
}
 8004dea:	bf00      	nop
 8004dec:	370c      	adds	r7, #12
 8004dee:	46bd      	mov	sp, r7
 8004df0:	f85d 7b04 	ldr.w	r7, [sp], #4
 8004df4:	4770      	bx	lr

08004df6 <LL_TIM_OC_SetCompareCH6>:
{
 8004df6:	b480      	push	{r7}
 8004df8:	b083      	sub	sp, #12
 8004dfa:	af00      	add	r7, sp, #0
 8004dfc:	6078      	str	r0, [r7, #4]
 8004dfe:	6039      	str	r1, [r7, #0]
  WRITE_REG(TIMx->CCR6, CompareValue);
 8004e00:	687b      	ldr	r3, [r7, #4]
 8004e02:	683a      	ldr	r2, [r7, #0]
 8004e04:	65da      	str	r2, [r3, #92]	; 0x5c
}
 8004e06:	bf00      	nop
 8004e08:	370c      	adds	r7, #12
 8004e0a:	46bd      	mov	sp, r7
 8004e0c:	f85d 7b04 	ldr.w	r7, [sp], #4
 8004e10:	4770      	bx	lr

08004e12 <LL_TIM_GenerateEvent_UPDATE>:
  * @rmtoll EGR          UG            LL_TIM_GenerateEvent_UPDATE
  * @param  TIMx Timer instance
  * @retval None
  */
__STATIC_INLINE void LL_TIM_GenerateEvent_UPDATE(TIM_TypeDef *TIMx)
{
 8004e12:	b480      	push	{r7}
 8004e14:	b083      	sub	sp, #12
 8004e16:	af00      	add	r7, sp, #0
 8004e18:	6078      	str	r0, [r7, #4]
  SET_BIT(TIMx->EGR, TIM_EGR_UG);
 8004e1a:	687b      	ldr	r3, [r7, #4]
 8004e1c:	695b      	ldr	r3, [r3, #20]
 8004e1e:	f043 0201 	orr.w	r2, r3, #1
 8004e22:	687b      	ldr	r3, [r7, #4]
 8004e24:	615a      	str	r2, [r3, #20]
}
 8004e26:	bf00      	nop
 8004e28:	370c      	adds	r7, #12
 8004e2a:	46bd      	mov	sp, r7
 8004e2c:	f85d 7b04 	ldr.w	r7, [sp], #4
 8004e30:	4770      	bx	lr
	...

08004e34 <LL_TIM_Init>:
  * @retval An ErrorStatus enumeration value:
  *          - SUCCESS: TIMx registers are de-initialized
  *          - ERROR: not applicable
  */
ErrorStatus LL_TIM_Init(TIM_TypeDef *TIMx, LL_TIM_InitTypeDef *TIM_InitStruct)
{
 8004e34:	b580      	push	{r7, lr}
 8004e36:	b084      	sub	sp, #16
 8004e38:	af00      	add	r7, sp, #0
 8004e3a:	6078      	str	r0, [r7, #4]
 8004e3c:	6039      	str	r1, [r7, #0]
  /* Check the parameters */
  assert_param(IS_TIM_INSTANCE(TIMx));
  assert_param(IS_LL_TIM_COUNTERMODE(TIM_InitStruct->CounterMode));
  assert_param(IS_LL_TIM_CLOCKDIVISION(TIM_InitStruct->ClockDivision));

  tmpcr1 = LL_TIM_ReadReg(TIMx, CR1);
 8004e3e:	687b      	ldr	r3, [r7, #4]
 8004e40:	681b      	ldr	r3, [r3, #0]
 8004e42:	60fb      	str	r3, [r7, #12]

  if (IS_TIM_COUNTER_MODE_SELECT_INSTANCE(TIMx))
 8004e44:	687b      	ldr	r3, [r7, #4]
 8004e46:	4a3d      	ldr	r2, [pc, #244]	; (8004f3c <LL_TIM_Init+0x108>)
 8004e48:	4293      	cmp	r3, r2
 8004e4a:	d013      	beq.n	8004e74 <LL_TIM_Init+0x40>
 8004e4c:	687b      	ldr	r3, [r7, #4]
 8004e4e:	f1b3 4f80 	cmp.w	r3, #1073741824	; 0x40000000
 8004e52:	d00f      	beq.n	8004e74 <LL_TIM_Init+0x40>
 8004e54:	687b      	ldr	r3, [r7, #4]
 8004e56:	4a3a      	ldr	r2, [pc, #232]	; (8004f40 <LL_TIM_Init+0x10c>)
 8004e58:	4293      	cmp	r3, r2
 8004e5a:	d00b      	beq.n	8004e74 <LL_TIM_Init+0x40>
 8004e5c:	687b      	ldr	r3, [r7, #4]
 8004e5e:	4a39      	ldr	r2, [pc, #228]	; (8004f44 <LL_TIM_Init+0x110>)
 8004e60:	4293      	cmp	r3, r2
 8004e62:	d007      	beq.n	8004e74 <LL_TIM_Init+0x40>
 8004e64:	687b      	ldr	r3, [r7, #4]
 8004e66:	4a38      	ldr	r2, [pc, #224]	; (8004f48 <LL_TIM_Init+0x114>)
 8004e68:	4293      	cmp	r3, r2
 8004e6a:	d003      	beq.n	8004e74 <LL_TIM_Init+0x40>
 8004e6c:	687b      	ldr	r3, [r7, #4]
 8004e6e:	4a37      	ldr	r2, [pc, #220]	; (8004f4c <LL_TIM_Init+0x118>)
 8004e70:	4293      	cmp	r3, r2
 8004e72:	d106      	bne.n	8004e82 <LL_TIM_Init+0x4e>
  {
    /* Select the Counter Mode */
    MODIFY_REG(tmpcr1, (TIM_CR1_DIR | TIM_CR1_CMS), TIM_InitStruct->CounterMode);
 8004e74:	68fb      	ldr	r3, [r7, #12]
 8004e76:	f023 0270 	bic.w	r2, r3, #112	; 0x70
 8004e7a:	683b      	ldr	r3, [r7, #0]
 8004e7c:	685b      	ldr	r3, [r3, #4]
 8004e7e:	4313      	orrs	r3, r2
 8004e80:	60fb      	str	r3, [r7, #12]
  }

  if (IS_TIM_CLOCK_DIVISION_INSTANCE(TIMx))
 8004e82:	687b      	ldr	r3, [r7, #4]
 8004e84:	4a2d      	ldr	r2, [pc, #180]	; (8004f3c <LL_TIM_Init+0x108>)
 8004e86:	4293      	cmp	r3, r2
 8004e88:	d01f      	beq.n	8004eca <LL_TIM_Init+0x96>
 8004e8a:	687b      	ldr	r3, [r7, #4]
 8004e8c:	f1b3 4f80 	cmp.w	r3, #1073741824	; 0x40000000
 8004e90:	d01b      	beq.n	8004eca <LL_TIM_Init+0x96>
 8004e92:	687b      	ldr	r3, [r7, #4]
 8004e94:	4a2a      	ldr	r2, [pc, #168]	; (8004f40 <LL_TIM_Init+0x10c>)
 8004e96:	4293      	cmp	r3, r2
 8004e98:	d017      	beq.n	8004eca <LL_TIM_Init+0x96>
 8004e9a:	687b      	ldr	r3, [r7, #4]
 8004e9c:	4a29      	ldr	r2, [pc, #164]	; (8004f44 <LL_TIM_Init+0x110>)
 8004e9e:	4293      	cmp	r3, r2
 8004ea0:	d013      	beq.n	8004eca <LL_TIM_Init+0x96>
 8004ea2:	687b      	ldr	r3, [r7, #4]
 8004ea4:	4a28      	ldr	r2, [pc, #160]	; (8004f48 <LL_TIM_Init+0x114>)
 8004ea6:	4293      	cmp	r3, r2
 8004ea8:	d00f      	beq.n	8004eca <LL_TIM_Init+0x96>
 8004eaa:	687b      	ldr	r3, [r7, #4]
 8004eac:	4a27      	ldr	r2, [pc, #156]	; (8004f4c <LL_TIM_Init+0x118>)
 8004eae:	4293      	cmp	r3, r2
 8004eb0:	d00b      	beq.n	8004eca <LL_TIM_Init+0x96>
 8004eb2:	687b      	ldr	r3, [r7, #4]
 8004eb4:	4a26      	ldr	r2, [pc, #152]	; (8004f50 <LL_TIM_Init+0x11c>)
 8004eb6:	4293      	cmp	r3, r2
 8004eb8:	d007      	beq.n	8004eca <LL_TIM_Init+0x96>
 8004eba:	687b      	ldr	r3, [r7, #4]
 8004ebc:	4a25      	ldr	r2, [pc, #148]	; (8004f54 <LL_TIM_Init+0x120>)
 8004ebe:	4293      	cmp	r3, r2
 8004ec0:	d003      	beq.n	8004eca <LL_TIM_Init+0x96>
 8004ec2:	687b      	ldr	r3, [r7, #4]
 8004ec4:	4a24      	ldr	r2, [pc, #144]	; (8004f58 <LL_TIM_Init+0x124>)
 8004ec6:	4293      	cmp	r3, r2
 8004ec8:	d106      	bne.n	8004ed8 <LL_TIM_Init+0xa4>
  {
    /* Set the clock division */
    MODIFY_REG(tmpcr1, TIM_CR1_CKD, TIM_InitStruct->ClockDivision);
 8004eca:	68fb      	ldr	r3, [r7, #12]
 8004ecc:	f423 7240 	bic.w	r2, r3, #768	; 0x300
 8004ed0:	683b      	ldr	r3, [r7, #0]
 8004ed2:	68db      	ldr	r3, [r3, #12]
 8004ed4:	4313      	orrs	r3, r2
 8004ed6:	60fb      	str	r3, [r7, #12]
  }

  /* Write to TIMx CR1 */
  LL_TIM_WriteReg(TIMx, CR1, tmpcr1);
 8004ed8:	687b      	ldr	r3, [r7, #4]
 8004eda:	68fa      	ldr	r2, [r7, #12]
 8004edc:	601a      	str	r2, [r3, #0]

  /* Set the Autoreload value */
  LL_TIM_SetAutoReload(TIMx, TIM_InitStruct->Autoreload);
 8004ede:	683b      	ldr	r3, [r7, #0]
 8004ee0:	689b      	ldr	r3, [r3, #8]
 8004ee2:	4619      	mov	r1, r3
 8004ee4:	6878      	ldr	r0, [r7, #4]
 8004ee6:	f7ff ff22 	bl	8004d2e <LL_TIM_SetAutoReload>

  /* Set the Prescaler value */
  LL_TIM_SetPrescaler(TIMx, TIM_InitStruct->Prescaler);
 8004eea:	683b      	ldr	r3, [r7, #0]
 8004eec:	881b      	ldrh	r3, [r3, #0]
 8004eee:	4619      	mov	r1, r3
 8004ef0:	6878      	ldr	r0, [r7, #4]
 8004ef2:	f7ff ff0e 	bl	8004d12 <LL_TIM_SetPrescaler>

  if (IS_TIM_REPETITION_COUNTER_INSTANCE(TIMx))
 8004ef6:	687b      	ldr	r3, [r7, #4]
 8004ef8:	4a10      	ldr	r2, [pc, #64]	; (8004f3c <LL_TIM_Init+0x108>)
 8004efa:	4293      	cmp	r3, r2
 8004efc:	d00f      	beq.n	8004f1e <LL_TIM_Init+0xea>
 8004efe:	687b      	ldr	r3, [r7, #4]
 8004f00:	4a12      	ldr	r2, [pc, #72]	; (8004f4c <LL_TIM_Init+0x118>)
 8004f02:	4293      	cmp	r3, r2
 8004f04:	d00b      	beq.n	8004f1e <LL_TIM_Init+0xea>
 8004f06:	687b      	ldr	r3, [r7, #4]
 8004f08:	4a11      	ldr	r2, [pc, #68]	; (8004f50 <LL_TIM_Init+0x11c>)
 8004f0a:	4293      	cmp	r3, r2
 8004f0c:	d007      	beq.n	8004f1e <LL_TIM_Init+0xea>
 8004f0e:	687b      	ldr	r3, [r7, #4]
 8004f10:	4a10      	ldr	r2, [pc, #64]	; (8004f54 <LL_TIM_Init+0x120>)
 8004f12:	4293      	cmp	r3, r2
 8004f14:	d003      	beq.n	8004f1e <LL_TIM_Init+0xea>
 8004f16:	687b      	ldr	r3, [r7, #4]
 8004f18:	4a0f      	ldr	r2, [pc, #60]	; (8004f58 <LL_TIM_Init+0x124>)
 8004f1a:	4293      	cmp	r3, r2
 8004f1c:	d105      	bne.n	8004f2a <LL_TIM_Init+0xf6>
  {
    /* Set the Repetition Counter value */
    LL_TIM_SetRepetitionCounter(TIMx, TIM_InitStruct->RepetitionCounter);
 8004f1e:	683b      	ldr	r3, [r7, #0]
 8004f20:	691b      	ldr	r3, [r3, #16]
 8004f22:	4619      	mov	r1, r3
 8004f24:	6878      	ldr	r0, [r7, #4]
 8004f26:	f7ff ff10 	bl	8004d4a <LL_TIM_SetRepetitionCounter>
  }

  /* Generate an update event to reload the Prescaler
     and the repetition counter value (if applicable) immediately */
  LL_TIM_GenerateEvent_UPDATE(TIMx);
 8004f2a:	6878      	ldr	r0, [r7, #4]
 8004f2c:	f7ff ff71 	bl	8004e12 <LL_TIM_GenerateEvent_UPDATE>

  return SUCCESS;
 8004f30:	2300      	movs	r3, #0
}
 8004f32:	4618      	mov	r0, r3
 8004f34:	3710      	adds	r7, #16
 8004f36:	46bd      	mov	sp, r7
 8004f38:	bd80      	pop	{r7, pc}
 8004f3a:	bf00      	nop
 8004f3c:	40012c00 	.word	0x40012c00
 8004f40:	40000400 	.word	0x40000400
 8004f44:	40000800 	.word	0x40000800
 8004f48:	40000c00 	.word	0x40000c00
 8004f4c:	40013400 	.word	0x40013400
 8004f50:	40014000 	.word	0x40014000
 8004f54:	40014400 	.word	0x40014400
 8004f58:	40014800 	.word	0x40014800

08004f5c <LL_TIM_OC_Init>:
  * @retval An ErrorStatus enumeration value:
  *          - SUCCESS: TIMx output channel is initialized
  *          - ERROR: TIMx output channel is not initialized
  */
ErrorStatus LL_TIM_OC_Init(TIM_TypeDef *TIMx, uint32_t Channel, LL_TIM_OC_InitTypeDef *TIM_OC_InitStruct)
{
 8004f5c:	b580      	push	{r7, lr}
 8004f5e:	b086      	sub	sp, #24
 8004f60:	af00      	add	r7, sp, #0
 8004f62:	60f8      	str	r0, [r7, #12]
 8004f64:	60b9      	str	r1, [r7, #8]
 8004f66:	607a      	str	r2, [r7, #4]
  ErrorStatus result = ERROR;
 8004f68:	2301      	movs	r3, #1
 8004f6a:	75fb      	strb	r3, [r7, #23]

  switch (Channel)
 8004f6c:	68bb      	ldr	r3, [r7, #8]
 8004f6e:	f5b3 7f80 	cmp.w	r3, #256	; 0x100
 8004f72:	d01f      	beq.n	8004fb4 <LL_TIM_OC_Init+0x58>
 8004f74:	f5b3 7f80 	cmp.w	r3, #256	; 0x100
 8004f78:	d804      	bhi.n	8004f84 <LL_TIM_OC_Init+0x28>
 8004f7a:	2b01      	cmp	r3, #1
 8004f7c:	d00c      	beq.n	8004f98 <LL_TIM_OC_Init+0x3c>
 8004f7e:	2b10      	cmp	r3, #16
 8004f80:	d011      	beq.n	8004fa6 <LL_TIM_OC_Init+0x4a>
      break;
    case LL_TIM_CHANNEL_CH6:
      result = OC6Config(TIMx, TIM_OC_InitStruct);
      break;
    default:
      break;
 8004f82:	e033      	b.n	8004fec <LL_TIM_OC_Init+0x90>
  switch (Channel)
 8004f84:	f5b3 3f80 	cmp.w	r3, #65536	; 0x10000
 8004f88:	d022      	beq.n	8004fd0 <LL_TIM_OC_Init+0x74>
 8004f8a:	f5b3 1f80 	cmp.w	r3, #1048576	; 0x100000
 8004f8e:	d026      	beq.n	8004fde <LL_TIM_OC_Init+0x82>
 8004f90:	f5b3 5f80 	cmp.w	r3, #4096	; 0x1000
 8004f94:	d015      	beq.n	8004fc2 <LL_TIM_OC_Init+0x66>
      break;
 8004f96:	e029      	b.n	8004fec <LL_TIM_OC_Init+0x90>
      result = OC1Config(TIMx, TIM_OC_InitStruct);
 8004f98:	6879      	ldr	r1, [r7, #4]
 8004f9a:	68f8      	ldr	r0, [r7, #12]
 8004f9c:	f000 f82c 	bl	8004ff8 <OC1Config>
 8004fa0:	4603      	mov	r3, r0
 8004fa2:	75fb      	strb	r3, [r7, #23]
      break;
 8004fa4:	e022      	b.n	8004fec <LL_TIM_OC_Init+0x90>
      result = OC2Config(TIMx, TIM_OC_InitStruct);
 8004fa6:	6879      	ldr	r1, [r7, #4]
 8004fa8:	68f8      	ldr	r0, [r7, #12]
 8004faa:	f000 f8a5 	bl	80050f8 <OC2Config>
 8004fae:	4603      	mov	r3, r0
 8004fb0:	75fb      	strb	r3, [r7, #23]
      break;
 8004fb2:	e01b      	b.n	8004fec <LL_TIM_OC_Init+0x90>
      result = OC3Config(TIMx, TIM_OC_InitStruct);
 8004fb4:	6879      	ldr	r1, [r7, #4]
 8004fb6:	68f8      	ldr	r0, [r7, #12]
 8004fb8:	f000 f922 	bl	8005200 <OC3Config>
 8004fbc:	4603      	mov	r3, r0
 8004fbe:	75fb      	strb	r3, [r7, #23]
      break;
 8004fc0:	e014      	b.n	8004fec <LL_TIM_OC_Init+0x90>
      result = OC4Config(TIMx, TIM_OC_InitStruct);
 8004fc2:	6879      	ldr	r1, [r7, #4]
 8004fc4:	68f8      	ldr	r0, [r7, #12]
 8004fc6:	f000 f99f 	bl	8005308 <OC4Config>
 8004fca:	4603      	mov	r3, r0
 8004fcc:	75fb      	strb	r3, [r7, #23]
      break;
 8004fce:	e00d      	b.n	8004fec <LL_TIM_OC_Init+0x90>
      result = OC5Config(TIMx, TIM_OC_InitStruct);
 8004fd0:	6879      	ldr	r1, [r7, #4]
 8004fd2:	68f8      	ldr	r0, [r7, #12]
 8004fd4:	f000 fa04 	bl	80053e0 <OC5Config>
 8004fd8:	4603      	mov	r3, r0
 8004fda:	75fb      	strb	r3, [r7, #23]
      break;
 8004fdc:	e006      	b.n	8004fec <LL_TIM_OC_Init+0x90>
      result = OC6Config(TIMx, TIM_OC_InitStruct);
 8004fde:	6879      	ldr	r1, [r7, #4]
 8004fe0:	68f8      	ldr	r0, [r7, #12]
 8004fe2:	f000 fa61 	bl	80054a8 <OC6Config>
 8004fe6:	4603      	mov	r3, r0
 8004fe8:	75fb      	strb	r3, [r7, #23]
      break;
 8004fea:	bf00      	nop
  }

  return result;
 8004fec:	7dfb      	ldrb	r3, [r7, #23]
}
 8004fee:	4618      	mov	r0, r3
 8004ff0:	3718      	adds	r7, #24
 8004ff2:	46bd      	mov	sp, r7
 8004ff4:	bd80      	pop	{r7, pc}
	...

08004ff8 <OC1Config>:
  * @retval An ErrorStatus enumeration value:
  *          - SUCCESS: TIMx registers are de-initialized
  *          - ERROR: not applicable
  */
static ErrorStatus OC1Config(TIM_TypeDef *TIMx, LL_TIM_OC_InitTypeDef *TIM_OCInitStruct)
{
 8004ff8:	b580      	push	{r7, lr}
 8004ffa:	b086      	sub	sp, #24
 8004ffc:	af00      	add	r7, sp, #0
 8004ffe:	6078      	str	r0, [r7, #4]
 8005000:	6039      	str	r1, [r7, #0]
  assert_param(IS_LL_TIM_OCPOLARITY(TIM_OCInitStruct->OCPolarity));
  assert_param(IS_LL_TIM_OCSTATE(TIM_OCInitStruct->OCNState));
  assert_param(IS_LL_TIM_OCPOLARITY(TIM_OCInitStruct->OCNPolarity));

  /* Disable the Channel 1: Reset the CC1E Bit */
  CLEAR_BIT(TIMx->CCER, TIM_CCER_CC1E);
 8005002:	687b      	ldr	r3, [r7, #4]
 8005004:	6a1b      	ldr	r3, [r3, #32]
 8005006:	f023 0201 	bic.w	r2, r3, #1
 800500a:	687b      	ldr	r3, [r7, #4]
 800500c:	621a      	str	r2, [r3, #32]

  /* Get the TIMx CCER register value */
  tmpccer = LL_TIM_ReadReg(TIMx, CCER);
 800500e:	687b      	ldr	r3, [r7, #4]
 8005010:	6a1b      	ldr	r3, [r3, #32]
 8005012:	617b      	str	r3, [r7, #20]

  /* Get the TIMx CR2 register value */
  tmpcr2 = LL_TIM_ReadReg(TIMx, CR2);
 8005014:	687b      	ldr	r3, [r7, #4]
 8005016:	685b      	ldr	r3, [r3, #4]
 8005018:	613b      	str	r3, [r7, #16]

  /* Get the TIMx CCMR1 register value */
  tmpccmr1 = LL_TIM_ReadReg(TIMx, CCMR1);
 800501a:	687b      	ldr	r3, [r7, #4]
 800501c:	699b      	ldr	r3, [r3, #24]
 800501e:	60fb      	str	r3, [r7, #12]

  /* Reset Capture/Compare selection Bits */
  CLEAR_BIT(tmpccmr1, TIM_CCMR1_CC1S);
 8005020:	68fb      	ldr	r3, [r7, #12]
 8005022:	f023 0303 	bic.w	r3, r3, #3
 8005026:	60fb      	str	r3, [r7, #12]

  /* Set the Output Compare Mode */
  MODIFY_REG(tmpccmr1, TIM_CCMR1_OC1M, TIM_OCInitStruct->OCMode);
 8005028:	68fb      	ldr	r3, [r7, #12]
 800502a:	f423 3380 	bic.w	r3, r3, #65536	; 0x10000
 800502e:	f023 0370 	bic.w	r3, r3, #112	; 0x70
 8005032:	683a      	ldr	r2, [r7, #0]
 8005034:	6812      	ldr	r2, [r2, #0]
 8005036:	4313      	orrs	r3, r2
 8005038:	60fb      	str	r3, [r7, #12]

  /* Set the Output Compare Polarity */
  MODIFY_REG(tmpccer, TIM_CCER_CC1P, TIM_OCInitStruct->OCPolarity);
 800503a:	697b      	ldr	r3, [r7, #20]
 800503c:	f023 0202 	bic.w	r2, r3, #2
 8005040:	683b      	ldr	r3, [r7, #0]
 8005042:	691b      	ldr	r3, [r3, #16]
 8005044:	4313      	orrs	r3, r2
 8005046:	617b      	str	r3, [r7, #20]

  /* Set the Output State */
  MODIFY_REG(tmpccer, TIM_CCER_CC1E, TIM_OCInitStruct->OCState);
 8005048:	697b      	ldr	r3, [r7, #20]
 800504a:	f023 0201 	bic.w	r2, r3, #1
 800504e:	683b      	ldr	r3, [r7, #0]
 8005050:	685b      	ldr	r3, [r3, #4]
 8005052:	4313      	orrs	r3, r2
 8005054:	617b      	str	r3, [r7, #20]

  if (IS_TIM_BREAK_INSTANCE(TIMx))
 8005056:	687b      	ldr	r3, [r7, #4]
 8005058:	4a22      	ldr	r2, [pc, #136]	; (80050e4 <OC1Config+0xec>)
 800505a:	4293      	cmp	r3, r2
 800505c:	d00f      	beq.n	800507e <OC1Config+0x86>
 800505e:	687b      	ldr	r3, [r7, #4]
 8005060:	4a21      	ldr	r2, [pc, #132]	; (80050e8 <OC1Config+0xf0>)
 8005062:	4293      	cmp	r3, r2
 8005064:	d00b      	beq.n	800507e <OC1Config+0x86>
 8005066:	687b      	ldr	r3, [r7, #4]
 8005068:	4a20      	ldr	r2, [pc, #128]	; (80050ec <OC1Config+0xf4>)
 800506a:	4293      	cmp	r3, r2
 800506c:	d007      	beq.n	800507e <OC1Config+0x86>
 800506e:	687b      	ldr	r3, [r7, #4]
 8005070:	4a1f      	ldr	r2, [pc, #124]	; (80050f0 <OC1Config+0xf8>)
 8005072:	4293      	cmp	r3, r2
 8005074:	d003      	beq.n	800507e <OC1Config+0x86>
 8005076:	687b      	ldr	r3, [r7, #4]
 8005078:	4a1e      	ldr	r2, [pc, #120]	; (80050f4 <OC1Config+0xfc>)
 800507a:	4293      	cmp	r3, r2
 800507c:	d11e      	bne.n	80050bc <OC1Config+0xc4>
  {
    assert_param(IS_LL_TIM_OCIDLESTATE(TIM_OCInitStruct->OCNIdleState));
    assert_param(IS_LL_TIM_OCIDLESTATE(TIM_OCInitStruct->OCIdleState));

    /* Set the complementary output Polarity */
    MODIFY_REG(tmpccer, TIM_CCER_CC1NP, TIM_OCInitStruct->OCNPolarity << 2U);
 800507e:	697b      	ldr	r3, [r7, #20]
 8005080:	f023 0208 	bic.w	r2, r3, #8
 8005084:	683b      	ldr	r3, [r7, #0]
 8005086:	695b      	ldr	r3, [r3, #20]
 8005088:	009b      	lsls	r3, r3, #2
 800508a:	4313      	orrs	r3, r2
 800508c:	617b      	str	r3, [r7, #20]

    /* Set the complementary output State */
    MODIFY_REG(tmpccer, TIM_CCER_CC1NE, TIM_OCInitStruct->OCNState << 2U);
 800508e:	697b      	ldr	r3, [r7, #20]
 8005090:	f023 0204 	bic.w	r2, r3, #4
 8005094:	683b      	ldr	r3, [r7, #0]
 8005096:	689b      	ldr	r3, [r3, #8]
 8005098:	009b      	lsls	r3, r3, #2
 800509a:	4313      	orrs	r3, r2
 800509c:	617b      	str	r3, [r7, #20]

    /* Set the Output Idle state */
    MODIFY_REG(tmpcr2, TIM_CR2_OIS1, TIM_OCInitStruct->OCIdleState);
 800509e:	693b      	ldr	r3, [r7, #16]
 80050a0:	f423 7280 	bic.w	r2, r3, #256	; 0x100
 80050a4:	683b      	ldr	r3, [r7, #0]
 80050a6:	699b      	ldr	r3, [r3, #24]
 80050a8:	4313      	orrs	r3, r2
 80050aa:	613b      	str	r3, [r7, #16]

    /* Set the complementary output Idle state */
    MODIFY_REG(tmpcr2, TIM_CR2_OIS1N, TIM_OCInitStruct->OCNIdleState << 1U);
 80050ac:	693b      	ldr	r3, [r7, #16]
 80050ae:	f423 7200 	bic.w	r2, r3, #512	; 0x200
 80050b2:	683b      	ldr	r3, [r7, #0]
 80050b4:	69db      	ldr	r3, [r3, #28]
 80050b6:	005b      	lsls	r3, r3, #1
 80050b8:	4313      	orrs	r3, r2
 80050ba:	613b      	str	r3, [r7, #16]
  }

  /* Write to TIMx CR2 */
  LL_TIM_WriteReg(TIMx, CR2, tmpcr2);
 80050bc:	687b      	ldr	r3, [r7, #4]
 80050be:	693a      	ldr	r2, [r7, #16]
 80050c0:	605a      	str	r2, [r3, #4]

  /* Write to TIMx CCMR1 */
  LL_TIM_WriteReg(TIMx, CCMR1, tmpccmr1);
 80050c2:	687b      	ldr	r3, [r7, #4]
 80050c4:	68fa      	ldr	r2, [r7, #12]
 80050c6:	619a      	str	r2, [r3, #24]

  /* Set the Capture Compare Register value */
  LL_TIM_OC_SetCompareCH1(TIMx, TIM_OCInitStruct->CompareValue);
 80050c8:	683b      	ldr	r3, [r7, #0]
 80050ca:	68db      	ldr	r3, [r3, #12]
 80050cc:	4619      	mov	r1, r3
 80050ce:	6878      	ldr	r0, [r7, #4]
 80050d0:	f7ff fe49 	bl	8004d66 <LL_TIM_OC_SetCompareCH1>

  /* Write to TIMx CCER */
  LL_TIM_WriteReg(TIMx, CCER, tmpccer);
 80050d4:	687b      	ldr	r3, [r7, #4]
 80050d6:	697a      	ldr	r2, [r7, #20]
 80050d8:	621a      	str	r2, [r3, #32]

  return SUCCESS;
 80050da:	2300      	movs	r3, #0
}
 80050dc:	4618      	mov	r0, r3
 80050de:	3718      	adds	r7, #24
 80050e0:	46bd      	mov	sp, r7
 80050e2:	bd80      	pop	{r7, pc}
 80050e4:	40012c00 	.word	0x40012c00
 80050e8:	40013400 	.word	0x40013400
 80050ec:	40014000 	.word	0x40014000
 80050f0:	40014400 	.word	0x40014400
 80050f4:	40014800 	.word	0x40014800

080050f8 <OC2Config>:
  * @retval An ErrorStatus enumeration value:
  *          - SUCCESS: TIMx registers are de-initialized
  *          - ERROR: not applicable
  */
static ErrorStatus OC2Config(TIM_TypeDef *TIMx, LL_TIM_OC_InitTypeDef *TIM_OCInitStruct)
{
 80050f8:	b580      	push	{r7, lr}
 80050fa:	b086      	sub	sp, #24
 80050fc:	af00      	add	r7, sp, #0
 80050fe:	6078      	str	r0, [r7, #4]
 8005100:	6039      	str	r1, [r7, #0]
  assert_param(IS_LL_TIM_OCPOLARITY(TIM_OCInitStruct->OCPolarity));
  assert_param(IS_LL_TIM_OCSTATE(TIM_OCInitStruct->OCNState));
  assert_param(IS_LL_TIM_OCPOLARITY(TIM_OCInitStruct->OCNPolarity));

  /* Disable the Channel 2: Reset the CC2E Bit */
  CLEAR_BIT(TIMx->CCER, TIM_CCER_CC2E);
 8005102:	687b      	ldr	r3, [r7, #4]
 8005104:	6a1b      	ldr	r3, [r3, #32]
 8005106:	f023 0210 	bic.w	r2, r3, #16
 800510a:	687b      	ldr	r3, [r7, #4]
 800510c:	621a      	str	r2, [r3, #32]

  /* Get the TIMx CCER register value */
  tmpccer =  LL_TIM_ReadReg(TIMx, CCER);
 800510e:	687b      	ldr	r3, [r7, #4]
 8005110:	6a1b      	ldr	r3, [r3, #32]
 8005112:	617b      	str	r3, [r7, #20]

  /* Get the TIMx CR2 register value */
  tmpcr2 = LL_TIM_ReadReg(TIMx, CR2);
 8005114:	687b      	ldr	r3, [r7, #4]
 8005116:	685b      	ldr	r3, [r3, #4]
 8005118:	613b      	str	r3, [r7, #16]

  /* Get the TIMx CCMR1 register value */
  tmpccmr1 = LL_TIM_ReadReg(TIMx, CCMR1);
 800511a:	687b      	ldr	r3, [r7, #4]
 800511c:	699b      	ldr	r3, [r3, #24]
 800511e:	60fb      	str	r3, [r7, #12]

  /* Reset Capture/Compare selection Bits */
  CLEAR_BIT(tmpccmr1, TIM_CCMR1_CC2S);
 8005120:	68fb      	ldr	r3, [r7, #12]
 8005122:	f423 7340 	bic.w	r3, r3, #768	; 0x300
 8005126:	60fb      	str	r3, [r7, #12]

  /* Select the Output Compare Mode */
  MODIFY_REG(tmpccmr1, TIM_CCMR1_OC2M, TIM_OCInitStruct->OCMode << 8U);
 8005128:	68fb      	ldr	r3, [r7, #12]
 800512a:	f023 7380 	bic.w	r3, r3, #16777216	; 0x1000000
 800512e:	f423 43e0 	bic.w	r3, r3, #28672	; 0x7000
 8005132:	683a      	ldr	r2, [r7, #0]
 8005134:	6812      	ldr	r2, [r2, #0]
 8005136:	0212      	lsls	r2, r2, #8
 8005138:	4313      	orrs	r3, r2
 800513a:	60fb      	str	r3, [r7, #12]

  /* Set the Output Compare Polarity */
  MODIFY_REG(tmpccer, TIM_CCER_CC2P, TIM_OCInitStruct->OCPolarity << 4U);
 800513c:	697b      	ldr	r3, [r7, #20]
 800513e:	f023 0220 	bic.w	r2, r3, #32
 8005142:	683b      	ldr	r3, [r7, #0]
 8005144:	691b      	ldr	r3, [r3, #16]
 8005146:	011b      	lsls	r3, r3, #4
 8005148:	4313      	orrs	r3, r2
 800514a:	617b      	str	r3, [r7, #20]

  /* Set the Output State */
  MODIFY_REG(tmpccer, TIM_CCER_CC2E, TIM_OCInitStruct->OCState << 4U);
 800514c:	697b      	ldr	r3, [r7, #20]
 800514e:	f023 0210 	bic.w	r2, r3, #16
 8005152:	683b      	ldr	r3, [r7, #0]
 8005154:	685b      	ldr	r3, [r3, #4]
 8005156:	011b      	lsls	r3, r3, #4
 8005158:	4313      	orrs	r3, r2
 800515a:	617b      	str	r3, [r7, #20]

  if (IS_TIM_BREAK_INSTANCE(TIMx))
 800515c:	687b      	ldr	r3, [r7, #4]
 800515e:	4a23      	ldr	r2, [pc, #140]	; (80051ec <OC2Config+0xf4>)
 8005160:	4293      	cmp	r3, r2
 8005162:	d00f      	beq.n	8005184 <OC2Config+0x8c>
 8005164:	687b      	ldr	r3, [r7, #4]
 8005166:	4a22      	ldr	r2, [pc, #136]	; (80051f0 <OC2Config+0xf8>)
 8005168:	4293      	cmp	r3, r2
 800516a:	d00b      	beq.n	8005184 <OC2Config+0x8c>
 800516c:	687b      	ldr	r3, [r7, #4]
 800516e:	4a21      	ldr	r2, [pc, #132]	; (80051f4 <OC2Config+0xfc>)
 8005170:	4293      	cmp	r3, r2
 8005172:	d007      	beq.n	8005184 <OC2Config+0x8c>
 8005174:	687b      	ldr	r3, [r7, #4]
 8005176:	4a20      	ldr	r2, [pc, #128]	; (80051f8 <OC2Config+0x100>)
 8005178:	4293      	cmp	r3, r2
 800517a:	d003      	beq.n	8005184 <OC2Config+0x8c>
 800517c:	687b      	ldr	r3, [r7, #4]
 800517e:	4a1f      	ldr	r2, [pc, #124]	; (80051fc <OC2Config+0x104>)
 8005180:	4293      	cmp	r3, r2
 8005182:	d11f      	bne.n	80051c4 <OC2Config+0xcc>
  {
    assert_param(IS_LL_TIM_OCIDLESTATE(TIM_OCInitStruct->OCNIdleState));
    assert_param(IS_LL_TIM_OCIDLESTATE(TIM_OCInitStruct->OCIdleState));

    /* Set the complementary output Polarity */
    MODIFY_REG(tmpccer, TIM_CCER_CC2NP, TIM_OCInitStruct->OCNPolarity << 6U);
 8005184:	697b      	ldr	r3, [r7, #20]
 8005186:	f023 0280 	bic.w	r2, r3, #128	; 0x80
 800518a:	683b      	ldr	r3, [r7, #0]
 800518c:	695b      	ldr	r3, [r3, #20]
 800518e:	019b      	lsls	r3, r3, #6
 8005190:	4313      	orrs	r3, r2
 8005192:	617b      	str	r3, [r7, #20]

    /* Set the complementary output State */
    MODIFY_REG(tmpccer, TIM_CCER_CC2NE, TIM_OCInitStruct->OCNState << 6U);
 8005194:	697b      	ldr	r3, [r7, #20]
 8005196:	f023 0240 	bic.w	r2, r3, #64	; 0x40
 800519a:	683b      	ldr	r3, [r7, #0]
 800519c:	689b      	ldr	r3, [r3, #8]
 800519e:	019b      	lsls	r3, r3, #6
 80051a0:	4313      	orrs	r3, r2
 80051a2:	617b      	str	r3, [r7, #20]

    /* Set the Output Idle state */
    MODIFY_REG(tmpcr2, TIM_CR2_OIS2, TIM_OCInitStruct->OCIdleState << 2U);
 80051a4:	693b      	ldr	r3, [r7, #16]
 80051a6:	f423 6280 	bic.w	r2, r3, #1024	; 0x400
 80051aa:	683b      	ldr	r3, [r7, #0]
 80051ac:	699b      	ldr	r3, [r3, #24]
 80051ae:	009b      	lsls	r3, r3, #2
 80051b0:	4313      	orrs	r3, r2
 80051b2:	613b      	str	r3, [r7, #16]

    /* Set the complementary output Idle state */
    MODIFY_REG(tmpcr2, TIM_CR2_OIS2N, TIM_OCInitStruct->OCNIdleState << 3U);
 80051b4:	693b      	ldr	r3, [r7, #16]
 80051b6:	f423 6200 	bic.w	r2, r3, #2048	; 0x800
 80051ba:	683b      	ldr	r3, [r7, #0]
 80051bc:	69db      	ldr	r3, [r3, #28]
 80051be:	00db      	lsls	r3, r3, #3
 80051c0:	4313      	orrs	r3, r2
 80051c2:	613b      	str	r3, [r7, #16]
  }

  /* Write to TIMx CR2 */
  LL_TIM_WriteReg(TIMx, CR2, tmpcr2);
 80051c4:	687b      	ldr	r3, [r7, #4]
 80051c6:	693a      	ldr	r2, [r7, #16]
 80051c8:	605a      	str	r2, [r3, #4]

  /* Write to TIMx CCMR1 */
  LL_TIM_WriteReg(TIMx, CCMR1, tmpccmr1);
 80051ca:	687b      	ldr	r3, [r7, #4]
 80051cc:	68fa      	ldr	r2, [r7, #12]
 80051ce:	619a      	str	r2, [r3, #24]

  /* Set the Capture Compare Register value */
  LL_TIM_OC_SetCompareCH2(TIMx, TIM_OCInitStruct->CompareValue);
 80051d0:	683b      	ldr	r3, [r7, #0]
 80051d2:	68db      	ldr	r3, [r3, #12]
 80051d4:	4619      	mov	r1, r3
 80051d6:	6878      	ldr	r0, [r7, #4]
 80051d8:	f7ff fdd3 	bl	8004d82 <LL_TIM_OC_SetCompareCH2>

  /* Write to TIMx CCER */
  LL_TIM_WriteReg(TIMx, CCER, tmpccer);
 80051dc:	687b      	ldr	r3, [r7, #4]
 80051de:	697a      	ldr	r2, [r7, #20]
 80051e0:	621a      	str	r2, [r3, #32]

  return SUCCESS;
 80051e2:	2300      	movs	r3, #0
}
 80051e4:	4618      	mov	r0, r3
 80051e6:	3718      	adds	r7, #24
 80051e8:	46bd      	mov	sp, r7
 80051ea:	bd80      	pop	{r7, pc}
 80051ec:	40012c00 	.word	0x40012c00
 80051f0:	40013400 	.word	0x40013400
 80051f4:	40014000 	.word	0x40014000
 80051f8:	40014400 	.word	0x40014400
 80051fc:	40014800 	.word	0x40014800

08005200 <OC3Config>:
  * @retval An ErrorStatus enumeration value:
  *          - SUCCESS: TIMx registers are de-initialized
  *          - ERROR: not applicable
  */
static ErrorStatus OC3Config(TIM_TypeDef *TIMx, LL_TIM_OC_InitTypeDef *TIM_OCInitStruct)
{
 8005200:	b580      	push	{r7, lr}
 8005202:	b086      	sub	sp, #24
 8005204:	af00      	add	r7, sp, #0
 8005206:	6078      	str	r0, [r7, #4]
 8005208:	6039      	str	r1, [r7, #0]
  assert_param(IS_LL_TIM_OCPOLARITY(TIM_OCInitStruct->OCPolarity));
  assert_param(IS_LL_TIM_OCSTATE(TIM_OCInitStruct->OCNState));
  assert_param(IS_LL_TIM_OCPOLARITY(TIM_OCInitStruct->OCNPolarity));

  /* Disable the Channel 3: Reset the CC3E Bit */
  CLEAR_BIT(TIMx->CCER, TIM_CCER_CC3E);
 800520a:	687b      	ldr	r3, [r7, #4]
 800520c:	6a1b      	ldr	r3, [r3, #32]
 800520e:	f423 7280 	bic.w	r2, r3, #256	; 0x100
 8005212:	687b      	ldr	r3, [r7, #4]
 8005214:	621a      	str	r2, [r3, #32]

  /* Get the TIMx CCER register value */
  tmpccer =  LL_TIM_ReadReg(TIMx, CCER);
 8005216:	687b      	ldr	r3, [r7, #4]
 8005218:	6a1b      	ldr	r3, [r3, #32]
 800521a:	617b      	str	r3, [r7, #20]

  /* Get the TIMx CR2 register value */
  tmpcr2 = LL_TIM_ReadReg(TIMx, CR2);
 800521c:	687b      	ldr	r3, [r7, #4]
 800521e:	685b      	ldr	r3, [r3, #4]
 8005220:	613b      	str	r3, [r7, #16]

  /* Get the TIMx CCMR2 register value */
  tmpccmr2 = LL_TIM_ReadReg(TIMx, CCMR2);
 8005222:	687b      	ldr	r3, [r7, #4]
 8005224:	69db      	ldr	r3, [r3, #28]
 8005226:	60fb      	str	r3, [r7, #12]

  /* Reset Capture/Compare selection Bits */
  CLEAR_BIT(tmpccmr2, TIM_CCMR2_CC3S);
 8005228:	68fb      	ldr	r3, [r7, #12]
 800522a:	f023 0303 	bic.w	r3, r3, #3
 800522e:	60fb      	str	r3, [r7, #12]

  /* Select the Output Compare Mode */
  MODIFY_REG(tmpccmr2, TIM_CCMR2_OC3M, TIM_OCInitStruct->OCMode);
 8005230:	68fb      	ldr	r3, [r7, #12]
 8005232:	f423 3380 	bic.w	r3, r3, #65536	; 0x10000
 8005236:	f023 0370 	bic.w	r3, r3, #112	; 0x70
 800523a:	683a      	ldr	r2, [r7, #0]
 800523c:	6812      	ldr	r2, [r2, #0]
 800523e:	4313      	orrs	r3, r2
 8005240:	60fb      	str	r3, [r7, #12]

  /* Set the Output Compare Polarity */
  MODIFY_REG(tmpccer, TIM_CCER_CC3P, TIM_OCInitStruct->OCPolarity << 8U);
 8005242:	697b      	ldr	r3, [r7, #20]
 8005244:	f423 7200 	bic.w	r2, r3, #512	; 0x200
 8005248:	683b      	ldr	r3, [r7, #0]
 800524a:	691b      	ldr	r3, [r3, #16]
 800524c:	021b      	lsls	r3, r3, #8
 800524e:	4313      	orrs	r3, r2
 8005250:	617b      	str	r3, [r7, #20]

  /* Set the Output State */
  MODIFY_REG(tmpccer, TIM_CCER_CC3E, TIM_OCInitStruct->OCState << 8U);
 8005252:	697b      	ldr	r3, [r7, #20]
 8005254:	f423 7280 	bic.w	r2, r3, #256	; 0x100
 8005258:	683b      	ldr	r3, [r7, #0]
 800525a:	685b      	ldr	r3, [r3, #4]
 800525c:	021b      	lsls	r3, r3, #8
 800525e:	4313      	orrs	r3, r2
 8005260:	617b      	str	r3, [r7, #20]

  if (IS_TIM_BREAK_INSTANCE(TIMx))
 8005262:	687b      	ldr	r3, [r7, #4]
 8005264:	4a23      	ldr	r2, [pc, #140]	; (80052f4 <OC3Config+0xf4>)
 8005266:	4293      	cmp	r3, r2
 8005268:	d00f      	beq.n	800528a <OC3Config+0x8a>
 800526a:	687b      	ldr	r3, [r7, #4]
 800526c:	4a22      	ldr	r2, [pc, #136]	; (80052f8 <OC3Config+0xf8>)
 800526e:	4293      	cmp	r3, r2
 8005270:	d00b      	beq.n	800528a <OC3Config+0x8a>
 8005272:	687b      	ldr	r3, [r7, #4]
 8005274:	4a21      	ldr	r2, [pc, #132]	; (80052fc <OC3Config+0xfc>)
 8005276:	4293      	cmp	r3, r2
 8005278:	d007      	beq.n	800528a <OC3Config+0x8a>
 800527a:	687b      	ldr	r3, [r7, #4]
 800527c:	4a20      	ldr	r2, [pc, #128]	; (8005300 <OC3Config+0x100>)
 800527e:	4293      	cmp	r3, r2
 8005280:	d003      	beq.n	800528a <OC3Config+0x8a>
 8005282:	687b      	ldr	r3, [r7, #4]
 8005284:	4a1f      	ldr	r2, [pc, #124]	; (8005304 <OC3Config+0x104>)
 8005286:	4293      	cmp	r3, r2
 8005288:	d11f      	bne.n	80052ca <OC3Config+0xca>
  {
    assert_param(IS_LL_TIM_OCIDLESTATE(TIM_OCInitStruct->OCNIdleState));
    assert_param(IS_LL_TIM_OCIDLESTATE(TIM_OCInitStruct->OCIdleState));

    /* Set the complementary output Polarity */
    MODIFY_REG(tmpccer, TIM_CCER_CC3NP, TIM_OCInitStruct->OCNPolarity << 10U);
 800528a:	697b      	ldr	r3, [r7, #20]
 800528c:	f423 6200 	bic.w	r2, r3, #2048	; 0x800
 8005290:	683b      	ldr	r3, [r7, #0]
 8005292:	695b      	ldr	r3, [r3, #20]
 8005294:	029b      	lsls	r3, r3, #10
 8005296:	4313      	orrs	r3, r2
 8005298:	617b      	str	r3, [r7, #20]

    /* Set the complementary output State */
    MODIFY_REG(tmpccer, TIM_CCER_CC3NE, TIM_OCInitStruct->OCNState << 10U);
 800529a:	697b      	ldr	r3, [r7, #20]
 800529c:	f423 6280 	bic.w	r2, r3, #1024	; 0x400
 80052a0:	683b      	ldr	r3, [r7, #0]
 80052a2:	689b      	ldr	r3, [r3, #8]
 80052a4:	029b      	lsls	r3, r3, #10
 80052a6:	4313      	orrs	r3, r2
 80052a8:	617b      	str	r3, [r7, #20]

    /* Set the Output Idle state */
    MODIFY_REG(tmpcr2, TIM_CR2_OIS3, TIM_OCInitStruct->OCIdleState << 4U);
 80052aa:	693b      	ldr	r3, [r7, #16]
 80052ac:	f423 5280 	bic.w	r2, r3, #4096	; 0x1000
 80052b0:	683b      	ldr	r3, [r7, #0]
 80052b2:	699b      	ldr	r3, [r3, #24]
 80052b4:	011b      	lsls	r3, r3, #4
 80052b6:	4313      	orrs	r3, r2
 80052b8:	613b      	str	r3, [r7, #16]

    /* Set the complementary output Idle state */
    MODIFY_REG(tmpcr2, TIM_CR2_OIS3N, TIM_OCInitStruct->OCNIdleState << 5U);
 80052ba:	693b      	ldr	r3, [r7, #16]
 80052bc:	f423 5200 	bic.w	r2, r3, #8192	; 0x2000
 80052c0:	683b      	ldr	r3, [r7, #0]
 80052c2:	69db      	ldr	r3, [r3, #28]
 80052c4:	015b      	lsls	r3, r3, #5
 80052c6:	4313      	orrs	r3, r2
 80052c8:	613b      	str	r3, [r7, #16]
  }

  /* Write to TIMx CR2 */
  LL_TIM_WriteReg(TIMx, CR2, tmpcr2);
 80052ca:	687b      	ldr	r3, [r7, #4]
 80052cc:	693a      	ldr	r2, [r7, #16]
 80052ce:	605a      	str	r2, [r3, #4]

  /* Write to TIMx CCMR2 */
  LL_TIM_WriteReg(TIMx, CCMR2, tmpccmr2);
 80052d0:	687b      	ldr	r3, [r7, #4]
 80052d2:	68fa      	ldr	r2, [r7, #12]
 80052d4:	61da      	str	r2, [r3, #28]

  /* Set the Capture Compare Register value */
  LL_TIM_OC_SetCompareCH3(TIMx, TIM_OCInitStruct->CompareValue);
 80052d6:	683b      	ldr	r3, [r7, #0]
 80052d8:	68db      	ldr	r3, [r3, #12]
 80052da:	4619      	mov	r1, r3
 80052dc:	6878      	ldr	r0, [r7, #4]
 80052de:	f7ff fd5e 	bl	8004d9e <LL_TIM_OC_SetCompareCH3>

  /* Write to TIMx CCER */
  LL_TIM_WriteReg(TIMx, CCER, tmpccer);
 80052e2:	687b      	ldr	r3, [r7, #4]
 80052e4:	697a      	ldr	r2, [r7, #20]
 80052e6:	621a      	str	r2, [r3, #32]

  return SUCCESS;
 80052e8:	2300      	movs	r3, #0
}
 80052ea:	4618      	mov	r0, r3
 80052ec:	3718      	adds	r7, #24
 80052ee:	46bd      	mov	sp, r7
 80052f0:	bd80      	pop	{r7, pc}
 80052f2:	bf00      	nop
 80052f4:	40012c00 	.word	0x40012c00
 80052f8:	40013400 	.word	0x40013400
 80052fc:	40014000 	.word	0x40014000
 8005300:	40014400 	.word	0x40014400
 8005304:	40014800 	.word	0x40014800

08005308 <OC4Config>:
  * @retval An ErrorStatus enumeration value:
  *          - SUCCESS: TIMx registers are de-initialized
  *          - ERROR: not applicable
  */
static ErrorStatus OC4Config(TIM_TypeDef *TIMx, LL_TIM_OC_InitTypeDef *TIM_OCInitStruct)
{
 8005308:	b580      	push	{r7, lr}
 800530a:	b086      	sub	sp, #24
 800530c:	af00      	add	r7, sp, #0
 800530e:	6078      	str	r0, [r7, #4]
 8005310:	6039      	str	r1, [r7, #0]
  assert_param(IS_LL_TIM_OCPOLARITY(TIM_OCInitStruct->OCPolarity));
  assert_param(IS_LL_TIM_OCPOLARITY(TIM_OCInitStruct->OCNPolarity));
  assert_param(IS_LL_TIM_OCSTATE(TIM_OCInitStruct->OCNState));

  /* Disable the Channel 4: Reset the CC4E Bit */
  CLEAR_BIT(TIMx->CCER, TIM_CCER_CC4E);
 8005312:	687b      	ldr	r3, [r7, #4]
 8005314:	6a1b      	ldr	r3, [r3, #32]
 8005316:	f423 5280 	bic.w	r2, r3, #4096	; 0x1000
 800531a:	687b      	ldr	r3, [r7, #4]
 800531c:	621a      	str	r2, [r3, #32]

  /* Get the TIMx CCER register value */
  tmpccer = LL_TIM_ReadReg(TIMx, CCER);
 800531e:	687b      	ldr	r3, [r7, #4]
 8005320:	6a1b      	ldr	r3, [r3, #32]
 8005322:	613b      	str	r3, [r7, #16]

  /* Get the TIMx CR2 register value */
  tmpcr2 =  LL_TIM_ReadReg(TIMx, CR2);
 8005324:	687b      	ldr	r3, [r7, #4]
 8005326:	685b      	ldr	r3, [r3, #4]
 8005328:	617b      	str	r3, [r7, #20]

  /* Get the TIMx CCMR2 register value */
  tmpccmr2 = LL_TIM_ReadReg(TIMx, CCMR2);
 800532a:	687b      	ldr	r3, [r7, #4]
 800532c:	69db      	ldr	r3, [r3, #28]
 800532e:	60fb      	str	r3, [r7, #12]

  /* Reset Capture/Compare selection Bits */
  CLEAR_BIT(tmpccmr2, TIM_CCMR2_CC4S);
 8005330:	68fb      	ldr	r3, [r7, #12]
 8005332:	f423 7340 	bic.w	r3, r3, #768	; 0x300
 8005336:	60fb      	str	r3, [r7, #12]

  /* Select the Output Compare Mode */
  MODIFY_REG(tmpccmr2, TIM_CCMR2_OC4M, TIM_OCInitStruct->OCMode << 8U);
 8005338:	68fb      	ldr	r3, [r7, #12]
 800533a:	f023 7380 	bic.w	r3, r3, #16777216	; 0x1000000
 800533e:	f423 43e0 	bic.w	r3, r3, #28672	; 0x7000
 8005342:	683a      	ldr	r2, [r7, #0]
 8005344:	6812      	ldr	r2, [r2, #0]
 8005346:	0212      	lsls	r2, r2, #8
 8005348:	4313      	orrs	r3, r2
 800534a:	60fb      	str	r3, [r7, #12]

  /* Set the Output Compare Polarity */
  MODIFY_REG(tmpccer, TIM_CCER_CC4P, TIM_OCInitStruct->OCPolarity << 12U);
 800534c:	693b      	ldr	r3, [r7, #16]
 800534e:	f423 5200 	bic.w	r2, r3, #8192	; 0x2000
 8005352:	683b      	ldr	r3, [r7, #0]
 8005354:	691b      	ldr	r3, [r3, #16]
 8005356:	031b      	lsls	r3, r3, #12
 8005358:	4313      	orrs	r3, r2
 800535a:	613b      	str	r3, [r7, #16]

  /* Set the Output State */
  MODIFY_REG(tmpccer, TIM_CCER_CC4E, TIM_OCInitStruct->OCState << 12U);
 800535c:	693b      	ldr	r3, [r7, #16]
 800535e:	f423 5280 	bic.w	r2, r3, #4096	; 0x1000
 8005362:	683b      	ldr	r3, [r7, #0]
 8005364:	685b      	ldr	r3, [r3, #4]
 8005366:	031b      	lsls	r3, r3, #12
 8005368:	4313      	orrs	r3, r2
 800536a:	613b      	str	r3, [r7, #16]

  if (IS_TIM_BREAK_INSTANCE(TIMx))
 800536c:	687b      	ldr	r3, [r7, #4]
 800536e:	4a17      	ldr	r2, [pc, #92]	; (80053cc <OC4Config+0xc4>)
 8005370:	4293      	cmp	r3, r2
 8005372:	d00f      	beq.n	8005394 <OC4Config+0x8c>
 8005374:	687b      	ldr	r3, [r7, #4]
 8005376:	4a16      	ldr	r2, [pc, #88]	; (80053d0 <OC4Config+0xc8>)
 8005378:	4293      	cmp	r3, r2
 800537a:	d00b      	beq.n	8005394 <OC4Config+0x8c>
 800537c:	687b      	ldr	r3, [r7, #4]
 800537e:	4a15      	ldr	r2, [pc, #84]	; (80053d4 <OC4Config+0xcc>)
 8005380:	4293      	cmp	r3, r2
 8005382:	d007      	beq.n	8005394 <OC4Config+0x8c>
 8005384:	687b      	ldr	r3, [r7, #4]
 8005386:	4a14      	ldr	r2, [pc, #80]	; (80053d8 <OC4Config+0xd0>)
 8005388:	4293      	cmp	r3, r2
 800538a:	d003      	beq.n	8005394 <OC4Config+0x8c>
 800538c:	687b      	ldr	r3, [r7, #4]
 800538e:	4a13      	ldr	r2, [pc, #76]	; (80053dc <OC4Config+0xd4>)
 8005390:	4293      	cmp	r3, r2
 8005392:	d107      	bne.n	80053a4 <OC4Config+0x9c>
  {
    assert_param(IS_LL_TIM_OCIDLESTATE(TIM_OCInitStruct->OCNIdleState));
    assert_param(IS_LL_TIM_OCIDLESTATE(TIM_OCInitStruct->OCIdleState));

    /* Set the Output Idle state */
    MODIFY_REG(tmpcr2, TIM_CR2_OIS4, TIM_OCInitStruct->OCIdleState << 6U);
 8005394:	697b      	ldr	r3, [r7, #20]
 8005396:	f423 4280 	bic.w	r2, r3, #16384	; 0x4000
 800539a:	683b      	ldr	r3, [r7, #0]
 800539c:	699b      	ldr	r3, [r3, #24]
 800539e:	019b      	lsls	r3, r3, #6
 80053a0:	4313      	orrs	r3, r2
 80053a2:	617b      	str	r3, [r7, #20]
  }

  /* Write to TIMx CR2 */
  LL_TIM_WriteReg(TIMx, CR2, tmpcr2);
 80053a4:	687b      	ldr	r3, [r7, #4]
 80053a6:	697a      	ldr	r2, [r7, #20]
 80053a8:	605a      	str	r2, [r3, #4]

  /* Write to TIMx CCMR2 */
  LL_TIM_WriteReg(TIMx, CCMR2, tmpccmr2);
 80053aa:	687b      	ldr	r3, [r7, #4]
 80053ac:	68fa      	ldr	r2, [r7, #12]
 80053ae:	61da      	str	r2, [r3, #28]

  /* Set the Capture Compare Register value */
  LL_TIM_OC_SetCompareCH4(TIMx, TIM_OCInitStruct->CompareValue);
 80053b0:	683b      	ldr	r3, [r7, #0]
 80053b2:	68db      	ldr	r3, [r3, #12]
 80053b4:	4619      	mov	r1, r3
 80053b6:	6878      	ldr	r0, [r7, #4]
 80053b8:	f7ff fcff 	bl	8004dba <LL_TIM_OC_SetCompareCH4>

  /* Write to TIMx CCER */
  LL_TIM_WriteReg(TIMx, CCER, tmpccer);
 80053bc:	687b      	ldr	r3, [r7, #4]
 80053be:	693a      	ldr	r2, [r7, #16]
 80053c0:	621a      	str	r2, [r3, #32]

  return SUCCESS;
 80053c2:	2300      	movs	r3, #0
}
 80053c4:	4618      	mov	r0, r3
 80053c6:	3718      	adds	r7, #24
 80053c8:	46bd      	mov	sp, r7
 80053ca:	bd80      	pop	{r7, pc}
 80053cc:	40012c00 	.word	0x40012c00
 80053d0:	40013400 	.word	0x40013400
 80053d4:	40014000 	.word	0x40014000
 80053d8:	40014400 	.word	0x40014400
 80053dc:	40014800 	.word	0x40014800

080053e0 <OC5Config>:
  * @retval An ErrorStatus enumeration value:
  *          - SUCCESS: TIMx registers are de-initialized
  *          - ERROR: not applicable
  */
static ErrorStatus OC5Config(TIM_TypeDef *TIMx, LL_TIM_OC_InitTypeDef *TIM_OCInitStruct)
{
 80053e0:	b580      	push	{r7, lr}
 80053e2:	b084      	sub	sp, #16
 80053e4:	af00      	add	r7, sp, #0
 80053e6:	6078      	str	r0, [r7, #4]
 80053e8:	6039      	str	r1, [r7, #0]
  assert_param(IS_LL_TIM_OCPOLARITY(TIM_OCInitStruct->OCPolarity));
  assert_param(IS_LL_TIM_OCPOLARITY(TIM_OCInitStruct->OCNPolarity));
  assert_param(IS_LL_TIM_OCSTATE(TIM_OCInitStruct->OCNState));

  /* Disable the Channel 5: Reset the CC5E Bit */
  CLEAR_BIT(TIMx->CCER, TIM_CCER_CC5E);
 80053ea:	687b      	ldr	r3, [r7, #4]
 80053ec:	6a1b      	ldr	r3, [r3, #32]
 80053ee:	f423 3280 	bic.w	r2, r3, #65536	; 0x10000
 80053f2:	687b      	ldr	r3, [r7, #4]
 80053f4:	621a      	str	r2, [r3, #32]

  /* Get the TIMx CCER register value */
  tmpccer = LL_TIM_ReadReg(TIMx, CCER);
 80053f6:	687b      	ldr	r3, [r7, #4]
 80053f8:	6a1b      	ldr	r3, [r3, #32]
 80053fa:	60fb      	str	r3, [r7, #12]

  /* Get the TIMx CCMR3 register value */
  tmpccmr3 = LL_TIM_ReadReg(TIMx, CCMR3);
 80053fc:	687b      	ldr	r3, [r7, #4]
 80053fe:	6d5b      	ldr	r3, [r3, #84]	; 0x54
 8005400:	60bb      	str	r3, [r7, #8]

  /* Select the Output Compare Mode */
  MODIFY_REG(tmpccmr3, TIM_CCMR3_OC5M, TIM_OCInitStruct->OCMode);
 8005402:	68bb      	ldr	r3, [r7, #8]
 8005404:	f423 3380 	bic.w	r3, r3, #65536	; 0x10000
 8005408:	f023 0370 	bic.w	r3, r3, #112	; 0x70
 800540c:	683a      	ldr	r2, [r7, #0]
 800540e:	6812      	ldr	r2, [r2, #0]
 8005410:	4313      	orrs	r3, r2
 8005412:	60bb      	str	r3, [r7, #8]

  /* Set the Output Compare Polarity */
  MODIFY_REG(tmpccer, TIM_CCER_CC5P, TIM_OCInitStruct->OCPolarity << 16U);
 8005414:	68fb      	ldr	r3, [r7, #12]
 8005416:	f423 3200 	bic.w	r2, r3, #131072	; 0x20000
 800541a:	683b      	ldr	r3, [r7, #0]
 800541c:	691b      	ldr	r3, [r3, #16]
 800541e:	041b      	lsls	r3, r3, #16
 8005420:	4313      	orrs	r3, r2
 8005422:	60fb      	str	r3, [r7, #12]

  /* Set the Output State */
  MODIFY_REG(tmpccer, TIM_CCER_CC5E, TIM_OCInitStruct->OCState << 16U);
 8005424:	68fb      	ldr	r3, [r7, #12]
 8005426:	f423 3280 	bic.w	r2, r3, #65536	; 0x10000
 800542a:	683b      	ldr	r3, [r7, #0]
 800542c:	685b      	ldr	r3, [r3, #4]
 800542e:	041b      	lsls	r3, r3, #16
 8005430:	4313      	orrs	r3, r2
 8005432:	60fb      	str	r3, [r7, #12]

  if (IS_TIM_BREAK_INSTANCE(TIMx))
 8005434:	687b      	ldr	r3, [r7, #4]
 8005436:	4a17      	ldr	r2, [pc, #92]	; (8005494 <OC5Config+0xb4>)
 8005438:	4293      	cmp	r3, r2
 800543a:	d00f      	beq.n	800545c <OC5Config+0x7c>
 800543c:	687b      	ldr	r3, [r7, #4]
 800543e:	4a16      	ldr	r2, [pc, #88]	; (8005498 <OC5Config+0xb8>)
 8005440:	4293      	cmp	r3, r2
 8005442:	d00b      	beq.n	800545c <OC5Config+0x7c>
 8005444:	687b      	ldr	r3, [r7, #4]
 8005446:	4a15      	ldr	r2, [pc, #84]	; (800549c <OC5Config+0xbc>)
 8005448:	4293      	cmp	r3, r2
 800544a:	d007      	beq.n	800545c <OC5Config+0x7c>
 800544c:	687b      	ldr	r3, [r7, #4]
 800544e:	4a14      	ldr	r2, [pc, #80]	; (80054a0 <OC5Config+0xc0>)
 8005450:	4293      	cmp	r3, r2
 8005452:	d003      	beq.n	800545c <OC5Config+0x7c>
 8005454:	687b      	ldr	r3, [r7, #4]
 8005456:	4a13      	ldr	r2, [pc, #76]	; (80054a4 <OC5Config+0xc4>)
 8005458:	4293      	cmp	r3, r2
 800545a:	d109      	bne.n	8005470 <OC5Config+0x90>
  {
    assert_param(IS_LL_TIM_OCIDLESTATE(TIM_OCInitStruct->OCNIdleState));
    assert_param(IS_LL_TIM_OCIDLESTATE(TIM_OCInitStruct->OCIdleState));

    /* Set the Output Idle state */
    MODIFY_REG(TIMx->CR2, TIM_CR2_OIS5, TIM_OCInitStruct->OCIdleState << 8U);
 800545c:	687b      	ldr	r3, [r7, #4]
 800545e:	685b      	ldr	r3, [r3, #4]
 8005460:	f423 3280 	bic.w	r2, r3, #65536	; 0x10000
 8005464:	683b      	ldr	r3, [r7, #0]
 8005466:	699b      	ldr	r3, [r3, #24]
 8005468:	021b      	lsls	r3, r3, #8
 800546a:	431a      	orrs	r2, r3
 800546c:	687b      	ldr	r3, [r7, #4]
 800546e:	605a      	str	r2, [r3, #4]

  }

  /* Write to TIMx CCMR3 */
  LL_TIM_WriteReg(TIMx, CCMR3, tmpccmr3);
 8005470:	687b      	ldr	r3, [r7, #4]
 8005472:	68ba      	ldr	r2, [r7, #8]
 8005474:	655a      	str	r2, [r3, #84]	; 0x54

  /* Set the Capture Compare Register value */
  LL_TIM_OC_SetCompareCH5(TIMx, TIM_OCInitStruct->CompareValue);
 8005476:	683b      	ldr	r3, [r7, #0]
 8005478:	68db      	ldr	r3, [r3, #12]
 800547a:	4619      	mov	r1, r3
 800547c:	6878      	ldr	r0, [r7, #4]
 800547e:	f7ff fcaa 	bl	8004dd6 <LL_TIM_OC_SetCompareCH5>

  /* Write to TIMx CCER */
  LL_TIM_WriteReg(TIMx, CCER, tmpccer);
 8005482:	687b      	ldr	r3, [r7, #4]
 8005484:	68fa      	ldr	r2, [r7, #12]
 8005486:	621a      	str	r2, [r3, #32]

  return SUCCESS;
 8005488:	2300      	movs	r3, #0
}
 800548a:	4618      	mov	r0, r3
 800548c:	3710      	adds	r7, #16
 800548e:	46bd      	mov	sp, r7
 8005490:	bd80      	pop	{r7, pc}
 8005492:	bf00      	nop
 8005494:	40012c00 	.word	0x40012c00
 8005498:	40013400 	.word	0x40013400
 800549c:	40014000 	.word	0x40014000
 80054a0:	40014400 	.word	0x40014400
 80054a4:	40014800 	.word	0x40014800

080054a8 <OC6Config>:
  * @retval An ErrorStatus enumeration value:
  *          - SUCCESS: TIMx registers are de-initialized
  *          - ERROR: not applicable
  */
static ErrorStatus OC6Config(TIM_TypeDef *TIMx, LL_TIM_OC_InitTypeDef *TIM_OCInitStruct)
{
 80054a8:	b580      	push	{r7, lr}
 80054aa:	b084      	sub	sp, #16
 80054ac:	af00      	add	r7, sp, #0
 80054ae:	6078      	str	r0, [r7, #4]
 80054b0:	6039      	str	r1, [r7, #0]
  assert_param(IS_LL_TIM_OCPOLARITY(TIM_OCInitStruct->OCPolarity));
  assert_param(IS_LL_TIM_OCPOLARITY(TIM_OCInitStruct->OCNPolarity));
  assert_param(IS_LL_TIM_OCSTATE(TIM_OCInitStruct->OCNState));

  /* Disable the Channel 5: Reset the CC6E Bit */
  CLEAR_BIT(TIMx->CCER, TIM_CCER_CC6E);
 80054b2:	687b      	ldr	r3, [r7, #4]
 80054b4:	6a1b      	ldr	r3, [r3, #32]
 80054b6:	f423 1280 	bic.w	r2, r3, #1048576	; 0x100000
 80054ba:	687b      	ldr	r3, [r7, #4]
 80054bc:	621a      	str	r2, [r3, #32]

  /* Get the TIMx CCER register value */
  tmpccer = LL_TIM_ReadReg(TIMx, CCER);
 80054be:	687b      	ldr	r3, [r7, #4]
 80054c0:	6a1b      	ldr	r3, [r3, #32]
 80054c2:	60fb      	str	r3, [r7, #12]

  /* Get the TIMx CCMR3 register value */
  tmpccmr3 = LL_TIM_ReadReg(TIMx, CCMR3);
 80054c4:	687b      	ldr	r3, [r7, #4]
 80054c6:	6d5b      	ldr	r3, [r3, #84]	; 0x54
 80054c8:	60bb      	str	r3, [r7, #8]

  /* Select the Output Compare Mode */
  MODIFY_REG(tmpccmr3, TIM_CCMR3_OC6M, TIM_OCInitStruct->OCMode << 8U);
 80054ca:	68bb      	ldr	r3, [r7, #8]
 80054cc:	f023 7380 	bic.w	r3, r3, #16777216	; 0x1000000
 80054d0:	f423 43e0 	bic.w	r3, r3, #28672	; 0x7000
 80054d4:	683a      	ldr	r2, [r7, #0]
 80054d6:	6812      	ldr	r2, [r2, #0]
 80054d8:	0212      	lsls	r2, r2, #8
 80054da:	4313      	orrs	r3, r2
 80054dc:	60bb      	str	r3, [r7, #8]

  /* Set the Output Compare Polarity */
  MODIFY_REG(tmpccer, TIM_CCER_CC6P, TIM_OCInitStruct->OCPolarity << 20U);
 80054de:	68fb      	ldr	r3, [r7, #12]
 80054e0:	f423 1200 	bic.w	r2, r3, #2097152	; 0x200000
 80054e4:	683b      	ldr	r3, [r7, #0]
 80054e6:	691b      	ldr	r3, [r3, #16]
 80054e8:	051b      	lsls	r3, r3, #20
 80054ea:	4313      	orrs	r3, r2
 80054ec:	60fb      	str	r3, [r7, #12]

  /* Set the Output State */
  MODIFY_REG(tmpccer, TIM_CCER_CC6E, TIM_OCInitStruct->OCState << 20U);
 80054ee:	68fb      	ldr	r3, [r7, #12]
 80054f0:	f423 1280 	bic.w	r2, r3, #1048576	; 0x100000
 80054f4:	683b      	ldr	r3, [r7, #0]
 80054f6:	685b      	ldr	r3, [r3, #4]
 80054f8:	051b      	lsls	r3, r3, #20
 80054fa:	4313      	orrs	r3, r2
 80054fc:	60fb      	str	r3, [r7, #12]

  if (IS_TIM_BREAK_INSTANCE(TIMx))
 80054fe:	687b      	ldr	r3, [r7, #4]
 8005500:	4a16      	ldr	r2, [pc, #88]	; (800555c <OC6Config+0xb4>)
 8005502:	4293      	cmp	r3, r2
 8005504:	d00f      	beq.n	8005526 <OC6Config+0x7e>
 8005506:	687b      	ldr	r3, [r7, #4]
 8005508:	4a15      	ldr	r2, [pc, #84]	; (8005560 <OC6Config+0xb8>)
 800550a:	4293      	cmp	r3, r2
 800550c:	d00b      	beq.n	8005526 <OC6Config+0x7e>
 800550e:	687b      	ldr	r3, [r7, #4]
 8005510:	4a14      	ldr	r2, [pc, #80]	; (8005564 <OC6Config+0xbc>)
 8005512:	4293      	cmp	r3, r2
 8005514:	d007      	beq.n	8005526 <OC6Config+0x7e>
 8005516:	687b      	ldr	r3, [r7, #4]
 8005518:	4a13      	ldr	r2, [pc, #76]	; (8005568 <OC6Config+0xc0>)
 800551a:	4293      	cmp	r3, r2
 800551c:	d003      	beq.n	8005526 <OC6Config+0x7e>
 800551e:	687b      	ldr	r3, [r7, #4]
 8005520:	4a12      	ldr	r2, [pc, #72]	; (800556c <OC6Config+0xc4>)
 8005522:	4293      	cmp	r3, r2
 8005524:	d109      	bne.n	800553a <OC6Config+0x92>
  {
    assert_param(IS_LL_TIM_OCIDLESTATE(TIM_OCInitStruct->OCNIdleState));
    assert_param(IS_LL_TIM_OCIDLESTATE(TIM_OCInitStruct->OCIdleState));

    /* Set the Output Idle state */
    MODIFY_REG(TIMx->CR2, TIM_CR2_OIS6, TIM_OCInitStruct->OCIdleState << 10U);
 8005526:	687b      	ldr	r3, [r7, #4]
 8005528:	685b      	ldr	r3, [r3, #4]
 800552a:	f423 2280 	bic.w	r2, r3, #262144	; 0x40000
 800552e:	683b      	ldr	r3, [r7, #0]
 8005530:	699b      	ldr	r3, [r3, #24]
 8005532:	029b      	lsls	r3, r3, #10
 8005534:	431a      	orrs	r2, r3
 8005536:	687b      	ldr	r3, [r7, #4]
 8005538:	605a      	str	r2, [r3, #4]
  }

  /* Write to TIMx CCMR3 */
  LL_TIM_WriteReg(TIMx, CCMR3, tmpccmr3);
 800553a:	687b      	ldr	r3, [r7, #4]
 800553c:	68ba      	ldr	r2, [r7, #8]
 800553e:	655a      	str	r2, [r3, #84]	; 0x54

  /* Set the Capture Compare Register value */
  LL_TIM_OC_SetCompareCH6(TIMx, TIM_OCInitStruct->CompareValue);
 8005540:	683b      	ldr	r3, [r7, #0]
 8005542:	68db      	ldr	r3, [r3, #12]
 8005544:	4619      	mov	r1, r3
 8005546:	6878      	ldr	r0, [r7, #4]
 8005548:	f7ff fc55 	bl	8004df6 <LL_TIM_OC_SetCompareCH6>

  /* Write to TIMx CCER */
  LL_TIM_WriteReg(TIMx, CCER, tmpccer);
 800554c:	687b      	ldr	r3, [r7, #4]
 800554e:	68fa      	ldr	r2, [r7, #12]
 8005550:	621a      	str	r2, [r3, #32]

  return SUCCESS;
 8005552:	2300      	movs	r3, #0
}
 8005554:	4618      	mov	r0, r3
 8005556:	3710      	adds	r7, #16
 8005558:	46bd      	mov	sp, r7
 800555a:	bd80      	pop	{r7, pc}
 800555c:	40012c00 	.word	0x40012c00
 8005560:	40013400 	.word	0x40013400
 8005564:	40014000 	.word	0x40014000
 8005568:	40014400 	.word	0x40014400
 800556c:	40014800 	.word	0x40014800

08005570 <LL_USART_IsEnabled>:
{
 8005570:	b480      	push	{r7}
 8005572:	b083      	sub	sp, #12
 8005574:	af00      	add	r7, sp, #0
 8005576:	6078      	str	r0, [r7, #4]
  return ((READ_BIT(USARTx->CR1, USART_CR1_UE) == (USART_CR1_UE)) ? 1UL : 0UL);
 8005578:	687b      	ldr	r3, [r7, #4]
 800557a:	681b      	ldr	r3, [r3, #0]
 800557c:	f003 0301 	and.w	r3, r3, #1
 8005580:	2b01      	cmp	r3, #1
 8005582:	d101      	bne.n	8005588 <LL_USART_IsEnabled+0x18>
 8005584:	2301      	movs	r3, #1
 8005586:	e000      	b.n	800558a <LL_USART_IsEnabled+0x1a>
 8005588:	2300      	movs	r3, #0
}
 800558a:	4618      	mov	r0, r3
 800558c:	370c      	adds	r7, #12
 800558e:	46bd      	mov	sp, r7
 8005590:	f85d 7b04 	ldr.w	r7, [sp], #4
 8005594:	4770      	bx	lr

08005596 <LL_USART_SetStopBitsLength>:
{
 8005596:	b480      	push	{r7}
 8005598:	b083      	sub	sp, #12
 800559a:	af00      	add	r7, sp, #0
 800559c:	6078      	str	r0, [r7, #4]
 800559e:	6039      	str	r1, [r7, #0]
  MODIFY_REG(USARTx->CR2, USART_CR2_STOP, StopBits);
 80055a0:	687b      	ldr	r3, [r7, #4]
 80055a2:	685b      	ldr	r3, [r3, #4]
 80055a4:	f423 5240 	bic.w	r2, r3, #12288	; 0x3000
 80055a8:	683b      	ldr	r3, [r7, #0]
 80055aa:	431a      	orrs	r2, r3
 80055ac:	687b      	ldr	r3, [r7, #4]
 80055ae:	605a      	str	r2, [r3, #4]
}
 80055b0:	bf00      	nop
 80055b2:	370c      	adds	r7, #12
 80055b4:	46bd      	mov	sp, r7
 80055b6:	f85d 7b04 	ldr.w	r7, [sp], #4
 80055ba:	4770      	bx	lr

080055bc <LL_USART_SetHWFlowCtrl>:
{
 80055bc:	b480      	push	{r7}
 80055be:	b083      	sub	sp, #12
 80055c0:	af00      	add	r7, sp, #0
 80055c2:	6078      	str	r0, [r7, #4]
 80055c4:	6039      	str	r1, [r7, #0]
  MODIFY_REG(USARTx->CR3, USART_CR3_RTSE | USART_CR3_CTSE, HardwareFlowControl);
 80055c6:	687b      	ldr	r3, [r7, #4]
 80055c8:	689b      	ldr	r3, [r3, #8]
 80055ca:	f423 7240 	bic.w	r2, r3, #768	; 0x300
 80055ce:	683b      	ldr	r3, [r7, #0]
 80055d0:	431a      	orrs	r2, r3
 80055d2:	687b      	ldr	r3, [r7, #4]
 80055d4:	609a      	str	r2, [r3, #8]
}
 80055d6:	bf00      	nop
 80055d8:	370c      	adds	r7, #12
 80055da:	46bd      	mov	sp, r7
 80055dc:	f85d 7b04 	ldr.w	r7, [sp], #4
 80055e0:	4770      	bx	lr

080055e2 <LL_USART_SetBaudRate>:
{
 80055e2:	b480      	push	{r7}
 80055e4:	b087      	sub	sp, #28
 80055e6:	af00      	add	r7, sp, #0
 80055e8:	60f8      	str	r0, [r7, #12]
 80055ea:	60b9      	str	r1, [r7, #8]
 80055ec:	607a      	str	r2, [r7, #4]
 80055ee:	603b      	str	r3, [r7, #0]
  if (OverSampling == LL_USART_OVERSAMPLING_8)
 80055f0:	687b      	ldr	r3, [r7, #4]
 80055f2:	f5b3 4f00 	cmp.w	r3, #32768	; 0x8000
 80055f6:	d11a      	bne.n	800562e <LL_USART_SetBaudRate+0x4c>
    usartdiv = (uint16_t)(__LL_USART_DIV_SAMPLING8(PeriphClk, BaudRate));
 80055f8:	68bb      	ldr	r3, [r7, #8]
 80055fa:	005a      	lsls	r2, r3, #1
 80055fc:	683b      	ldr	r3, [r7, #0]
 80055fe:	085b      	lsrs	r3, r3, #1
 8005600:	441a      	add	r2, r3
 8005602:	683b      	ldr	r3, [r7, #0]
 8005604:	fbb2 f3f3 	udiv	r3, r2, r3
 8005608:	b29b      	uxth	r3, r3
 800560a:	617b      	str	r3, [r7, #20]
    brrtemp = usartdiv & 0xFFF0U;
 800560c:	697a      	ldr	r2, [r7, #20]
 800560e:	f64f 73f0 	movw	r3, #65520	; 0xfff0
 8005612:	4013      	ands	r3, r2
 8005614:	613b      	str	r3, [r7, #16]
    brrtemp |= (uint16_t)((usartdiv & (uint16_t)0x000FU) >> 1U);
 8005616:	697b      	ldr	r3, [r7, #20]
 8005618:	085b      	lsrs	r3, r3, #1
 800561a:	b29b      	uxth	r3, r3
 800561c:	f003 0307 	and.w	r3, r3, #7
 8005620:	693a      	ldr	r2, [r7, #16]
 8005622:	4313      	orrs	r3, r2
 8005624:	613b      	str	r3, [r7, #16]
    USARTx->BRR = brrtemp;
 8005626:	68fb      	ldr	r3, [r7, #12]
 8005628:	693a      	ldr	r2, [r7, #16]
 800562a:	60da      	str	r2, [r3, #12]
}
 800562c:	e00a      	b.n	8005644 <LL_USART_SetBaudRate+0x62>
    USARTx->BRR = (uint16_t)(__LL_USART_DIV_SAMPLING16(PeriphClk, BaudRate));
 800562e:	683b      	ldr	r3, [r7, #0]
 8005630:	085a      	lsrs	r2, r3, #1
 8005632:	68bb      	ldr	r3, [r7, #8]
 8005634:	441a      	add	r2, r3
 8005636:	683b      	ldr	r3, [r7, #0]
 8005638:	fbb2 f3f3 	udiv	r3, r2, r3
 800563c:	b29b      	uxth	r3, r3
 800563e:	461a      	mov	r2, r3
 8005640:	68fb      	ldr	r3, [r7, #12]
 8005642:	60da      	str	r2, [r3, #12]
}
 8005644:	bf00      	nop
 8005646:	371c      	adds	r7, #28
 8005648:	46bd      	mov	sp, r7
 800564a:	f85d 7b04 	ldr.w	r7, [sp], #4
 800564e:	4770      	bx	lr

08005650 <LL_USART_Init>:
  * @retval An ErrorStatus enumeration value:
  *          - SUCCESS: USART registers are initialized according to USART_InitStruct content
  *          - ERROR: Problem occurred during USART Registers initialization
  */
ErrorStatus LL_USART_Init(USART_TypeDef *USARTx, LL_USART_InitTypeDef *USART_InitStruct)
{
 8005650:	b580      	push	{r7, lr}
 8005652:	b084      	sub	sp, #16
 8005654:	af00      	add	r7, sp, #0
 8005656:	6078      	str	r0, [r7, #4]
 8005658:	6039      	str	r1, [r7, #0]
  ErrorStatus status = ERROR;
 800565a:	2301      	movs	r3, #1
 800565c:	73fb      	strb	r3, [r7, #15]
  uint32_t periphclk = LL_RCC_PERIPH_FREQUENCY_NO;
 800565e:	2300      	movs	r3, #0
 8005660:	60bb      	str	r3, [r7, #8]
  assert_param(IS_LL_USART_HWCONTROL(USART_InitStruct->HardwareFlowControl));
  assert_param(IS_LL_USART_OVERSAMPLING(USART_InitStruct->OverSampling));

  /* USART needs to be in disabled state, in order to be able to configure some bits in
     CRx registers */
  if (LL_USART_IsEnabled(USARTx) == 0U)
 8005662:	6878      	ldr	r0, [r7, #4]
 8005664:	f7ff ff84 	bl	8005570 <LL_USART_IsEnabled>
 8005668:	4603      	mov	r3, r0
 800566a:	2b00      	cmp	r3, #0
 800566c:	d15b      	bne.n	8005726 <LL_USART_Init+0xd6>
     * - DataWidth:          USART_CR1_M bits according to USART_InitStruct->DataWidth value
     * - Parity:             USART_CR1_PCE, USART_CR1_PS bits according to USART_InitStruct->Parity value
     * - TransferDirection:  USART_CR1_TE, USART_CR1_RE bits according to USART_InitStruct->TransferDirection value
     * - Oversampling:       USART_CR1_OVER8 bit according to USART_InitStruct->OverSampling value.
     */
    MODIFY_REG(USARTx->CR1,
 800566e:	687b      	ldr	r3, [r7, #4]
 8005670:	681a      	ldr	r2, [r3, #0]
 8005672:	4b2f      	ldr	r3, [pc, #188]	; (8005730 <LL_USART_Init+0xe0>)
 8005674:	4013      	ands	r3, r2
 8005676:	683a      	ldr	r2, [r7, #0]
 8005678:	6851      	ldr	r1, [r2, #4]
 800567a:	683a      	ldr	r2, [r7, #0]
 800567c:	68d2      	ldr	r2, [r2, #12]
 800567e:	4311      	orrs	r1, r2
 8005680:	683a      	ldr	r2, [r7, #0]
 8005682:	6912      	ldr	r2, [r2, #16]
 8005684:	4311      	orrs	r1, r2
 8005686:	683a      	ldr	r2, [r7, #0]
 8005688:	6992      	ldr	r2, [r2, #24]
 800568a:	430a      	orrs	r2, r1
 800568c:	431a      	orrs	r2, r3
 800568e:	687b      	ldr	r3, [r7, #4]
 8005690:	601a      	str	r2, [r3, #0]
    /*---------------------------- USART CR2 Configuration ---------------------
     * Configure USARTx CR2 (Stop bits) with parameters:
     * - Stop Bits:          USART_CR2_STOP bits according to USART_InitStruct->StopBits value.
     * - CLKEN, CPOL, CPHA and LBCL bits are to be configured using LL_USART_ClockInit().
     */
    LL_USART_SetStopBitsLength(USARTx, USART_InitStruct->StopBits);
 8005692:	683b      	ldr	r3, [r7, #0]
 8005694:	689b      	ldr	r3, [r3, #8]
 8005696:	4619      	mov	r1, r3
 8005698:	6878      	ldr	r0, [r7, #4]
 800569a:	f7ff ff7c 	bl	8005596 <LL_USART_SetStopBitsLength>

    /*---------------------------- USART CR3 Configuration ---------------------
     * Configure USARTx CR3 (Hardware Flow Control) with parameters:
     * - HardwareFlowControl: USART_CR3_RTSE, USART_CR3_CTSE bits according to USART_InitStruct->HardwareFlowControl value.
     */
    LL_USART_SetHWFlowCtrl(USARTx, USART_InitStruct->HardwareFlowControl);
 800569e:	683b      	ldr	r3, [r7, #0]
 80056a0:	695b      	ldr	r3, [r3, #20]
 80056a2:	4619      	mov	r1, r3
 80056a4:	6878      	ldr	r0, [r7, #4]
 80056a6:	f7ff ff89 	bl	80055bc <LL_USART_SetHWFlowCtrl>

    /*---------------------------- USART BRR Configuration ---------------------
     * Retrieve Clock frequency used for USART Peripheral
     */
    if (USARTx == USART1)
 80056aa:	687b      	ldr	r3, [r7, #4]
 80056ac:	4a21      	ldr	r2, [pc, #132]	; (8005734 <LL_USART_Init+0xe4>)
 80056ae:	4293      	cmp	r3, r2
 80056b0:	d104      	bne.n	80056bc <LL_USART_Init+0x6c>
    {
      periphclk = LL_RCC_GetUSARTClockFreq(LL_RCC_USART1_CLKSOURCE);
 80056b2:	2003      	movs	r0, #3
 80056b4:	f7fe fff6 	bl	80046a4 <LL_RCC_GetUSARTClockFreq>
 80056b8:	60b8      	str	r0, [r7, #8]
 80056ba:	e023      	b.n	8005704 <LL_USART_Init+0xb4>
    }
    else if (USARTx == USART2)
 80056bc:	687b      	ldr	r3, [r7, #4]
 80056be:	4a1e      	ldr	r2, [pc, #120]	; (8005738 <LL_USART_Init+0xe8>)
 80056c0:	4293      	cmp	r3, r2
 80056c2:	d104      	bne.n	80056ce <LL_USART_Init+0x7e>
    {
      periphclk = LL_RCC_GetUSARTClockFreq(LL_RCC_USART2_CLKSOURCE);
 80056c4:	200c      	movs	r0, #12
 80056c6:	f7fe ffed 	bl	80046a4 <LL_RCC_GetUSARTClockFreq>
 80056ca:	60b8      	str	r0, [r7, #8]
 80056cc:	e01a      	b.n	8005704 <LL_USART_Init+0xb4>
    }
#if defined(USART3)
    else if (USARTx == USART3)
 80056ce:	687b      	ldr	r3, [r7, #4]
 80056d0:	4a1a      	ldr	r2, [pc, #104]	; (800573c <LL_USART_Init+0xec>)
 80056d2:	4293      	cmp	r3, r2
 80056d4:	d104      	bne.n	80056e0 <LL_USART_Init+0x90>
    {
      periphclk = LL_RCC_GetUSARTClockFreq(LL_RCC_USART3_CLKSOURCE);
 80056d6:	2030      	movs	r0, #48	; 0x30
 80056d8:	f7fe ffe4 	bl	80046a4 <LL_RCC_GetUSARTClockFreq>
 80056dc:	60b8      	str	r0, [r7, #8]
 80056de:	e011      	b.n	8005704 <LL_USART_Init+0xb4>
    }
#endif /* USART3 */
#if defined(UART4)
    else if (USARTx == UART4)
 80056e0:	687b      	ldr	r3, [r7, #4]
 80056e2:	4a17      	ldr	r2, [pc, #92]	; (8005740 <LL_USART_Init+0xf0>)
 80056e4:	4293      	cmp	r3, r2
 80056e6:	d104      	bne.n	80056f2 <LL_USART_Init+0xa2>
    {
      periphclk = LL_RCC_GetUARTClockFreq(LL_RCC_UART4_CLKSOURCE);
 80056e8:	20c0      	movs	r0, #192	; 0xc0
 80056ea:	f7ff f8bb 	bl	8004864 <LL_RCC_GetUARTClockFreq>
 80056ee:	60b8      	str	r0, [r7, #8]
 80056f0:	e008      	b.n	8005704 <LL_USART_Init+0xb4>
    }
#endif /* UART4 */
#if defined(UART5)
    else if (USARTx == UART5)
 80056f2:	687b      	ldr	r3, [r7, #4]
 80056f4:	4a13      	ldr	r2, [pc, #76]	; (8005744 <LL_USART_Init+0xf4>)
 80056f6:	4293      	cmp	r3, r2
 80056f8:	d104      	bne.n	8005704 <LL_USART_Init+0xb4>
    {
      periphclk = LL_RCC_GetUARTClockFreq(LL_RCC_UART5_CLKSOURCE);
 80056fa:	f44f 7040 	mov.w	r0, #768	; 0x300
 80056fe:	f7ff f8b1 	bl	8004864 <LL_RCC_GetUARTClockFreq>
 8005702:	60b8      	str	r0, [r7, #8]
       - prescaler value is required
    #endif
       - valid baud rate value (different from 0) is required
       - Peripheral clock as returned by RCC service, should be valid (different from 0).
    */
    if ((periphclk != LL_RCC_PERIPH_FREQUENCY_NO)
 8005704:	68bb      	ldr	r3, [r7, #8]
 8005706:	2b00      	cmp	r3, #0
 8005708:	d00d      	beq.n	8005726 <LL_USART_Init+0xd6>
        && (USART_InitStruct->BaudRate != 0U))
 800570a:	683b      	ldr	r3, [r7, #0]
 800570c:	681b      	ldr	r3, [r3, #0]
 800570e:	2b00      	cmp	r3, #0
 8005710:	d009      	beq.n	8005726 <LL_USART_Init+0xd6>
    {
      status = SUCCESS;
 8005712:	2300      	movs	r3, #0
 8005714:	73fb      	strb	r3, [r7, #15]
      LL_USART_SetBaudRate(USARTx,
 8005716:	683b      	ldr	r3, [r7, #0]
 8005718:	699a      	ldr	r2, [r3, #24]
 800571a:	683b      	ldr	r3, [r7, #0]
 800571c:	681b      	ldr	r3, [r3, #0]
 800571e:	68b9      	ldr	r1, [r7, #8]
 8005720:	6878      	ldr	r0, [r7, #4]
 8005722:	f7ff ff5e 	bl	80055e2 <LL_USART_SetBaudRate>
    LL_USART_SetPrescaler(USARTx, USART_InitStruct->PrescalerValue);
#endif /* USART_PRESC_PRESCALER */
  }
  /* Endif (=> USART not in Disabled state => return ERROR) */

  return (status);
 8005726:	7bfb      	ldrb	r3, [r7, #15]
}
 8005728:	4618      	mov	r0, r3
 800572a:	3710      	adds	r7, #16
 800572c:	46bd      	mov	sp, r7
 800572e:	bd80      	pop	{r7, pc}
 8005730:	efff69f3 	.word	0xefff69f3
 8005734:	40013800 	.word	0x40013800
 8005738:	40004400 	.word	0x40004400
 800573c:	40004800 	.word	0x40004800
 8005740:	40004c00 	.word	0x40004c00
 8005744:	40005000 	.word	0x40005000

08005748 <LL_InitTick>:
  *         configuration by calling this function, for a delay use rather osDelay RTOS service.
  * @param  Ticks Number of ticks
  * @retval None
  */
__STATIC_INLINE void LL_InitTick(uint32_t HCLKFrequency, uint32_t Ticks)
{
 8005748:	b480      	push	{r7}
 800574a:	b083      	sub	sp, #12
 800574c:	af00      	add	r7, sp, #0
 800574e:	6078      	str	r0, [r7, #4]
 8005750:	6039      	str	r1, [r7, #0]
  /* Configure the SysTick to have interrupt in 1ms time base */
  SysTick->LOAD  = (uint32_t)((HCLKFrequency / Ticks) - 1UL);  /* set reload register */
 8005752:	687a      	ldr	r2, [r7, #4]
 8005754:	683b      	ldr	r3, [r7, #0]
 8005756:	fbb2 f3f3 	udiv	r3, r2, r3
 800575a:	4a07      	ldr	r2, [pc, #28]	; (8005778 <LL_InitTick+0x30>)
 800575c:	3b01      	subs	r3, #1
 800575e:	6053      	str	r3, [r2, #4]
  SysTick->VAL   = 0UL;                                       /* Load the SysTick Counter Value */
 8005760:	4b05      	ldr	r3, [pc, #20]	; (8005778 <LL_InitTick+0x30>)
 8005762:	2200      	movs	r2, #0
 8005764:	609a      	str	r2, [r3, #8]
  SysTick->CTRL  = SysTick_CTRL_CLKSOURCE_Msk |
 8005766:	4b04      	ldr	r3, [pc, #16]	; (8005778 <LL_InitTick+0x30>)
 8005768:	2205      	movs	r2, #5
 800576a:	601a      	str	r2, [r3, #0]
                   SysTick_CTRL_ENABLE_Msk;                   /* Enable the Systick Timer */
}
 800576c:	bf00      	nop
 800576e:	370c      	adds	r7, #12
 8005770:	46bd      	mov	sp, r7
 8005772:	f85d 7b04 	ldr.w	r7, [sp], #4
 8005776:	4770      	bx	lr
 8005778:	e000e010 	.word	0xe000e010

0800577c <LL_Init1msTick>:
  * @param  HCLKFrequency HCLK frequency in Hz
  * @note   HCLK frequency can be calculated thanks to RCC helper macro or function @ref LL_RCC_GetSystemClocksFreq
  * @retval None
  */
void LL_Init1msTick(uint32_t HCLKFrequency)
{
 800577c:	b580      	push	{r7, lr}
 800577e:	b082      	sub	sp, #8
 8005780:	af00      	add	r7, sp, #0
 8005782:	6078      	str	r0, [r7, #4]
  /* Use frequency provided in argument */
  LL_InitTick(HCLKFrequency, 1000U);
 8005784:	f44f 717a 	mov.w	r1, #1000	; 0x3e8
 8005788:	6878      	ldr	r0, [r7, #4]
 800578a:	f7ff ffdd 	bl	8005748 <LL_InitTick>
}
 800578e:	bf00      	nop
 8005790:	3708      	adds	r7, #8
 8005792:	46bd      	mov	sp, r7
 8005794:	bd80      	pop	{r7, pc}
	...

08005798 <LL_mDelay>:
  *         will configure Systick to 1ms
  * @param  Delay specifies the delay time length, in milliseconds.
  * @retval None
  */
void LL_mDelay(uint32_t Delay)
{
 8005798:	b480      	push	{r7}
 800579a:	b085      	sub	sp, #20
 800579c:	af00      	add	r7, sp, #0
 800579e:	6078      	str	r0, [r7, #4]
  __IO uint32_t  tmp = SysTick->CTRL;  /* Clear the COUNTFLAG first */
 80057a0:	4b0f      	ldr	r3, [pc, #60]	; (80057e0 <LL_mDelay+0x48>)
 80057a2:	681b      	ldr	r3, [r3, #0]
 80057a4:	60bb      	str	r3, [r7, #8]
  uint32_t tmpDelay = Delay;
 80057a6:	687b      	ldr	r3, [r7, #4]
 80057a8:	60fb      	str	r3, [r7, #12]

  /* Add this code to indicate that local variable is not used */
  ((void)tmp);
 80057aa:	68bb      	ldr	r3, [r7, #8]

  /* Add a period to guaranty minimum wait */
  if(tmpDelay < LL_MAX_DELAY)
 80057ac:	68fb      	ldr	r3, [r7, #12]
 80057ae:	f1b3 3fff 	cmp.w	r3, #4294967295
 80057b2:	d00c      	beq.n	80057ce <LL_mDelay+0x36>
  {
    tmpDelay++;
 80057b4:	68fb      	ldr	r3, [r7, #12]
 80057b6:	3301      	adds	r3, #1
 80057b8:	60fb      	str	r3, [r7, #12]
  }

  while (tmpDelay != 0U)
 80057ba:	e008      	b.n	80057ce <LL_mDelay+0x36>
  {
    if((SysTick->CTRL & SysTick_CTRL_COUNTFLAG_Msk) != 0U)
 80057bc:	4b08      	ldr	r3, [pc, #32]	; (80057e0 <LL_mDelay+0x48>)
 80057be:	681b      	ldr	r3, [r3, #0]
 80057c0:	f403 3380 	and.w	r3, r3, #65536	; 0x10000
 80057c4:	2b00      	cmp	r3, #0
 80057c6:	d002      	beq.n	80057ce <LL_mDelay+0x36>
    {
      tmpDelay--;
 80057c8:	68fb      	ldr	r3, [r7, #12]
 80057ca:	3b01      	subs	r3, #1
 80057cc:	60fb      	str	r3, [r7, #12]
  while (tmpDelay != 0U)
 80057ce:	68fb      	ldr	r3, [r7, #12]
 80057d0:	2b00      	cmp	r3, #0
 80057d2:	d1f3      	bne.n	80057bc <LL_mDelay+0x24>
    }
  }
}
 80057d4:	bf00      	nop
 80057d6:	3714      	adds	r7, #20
 80057d8:	46bd      	mov	sp, r7
 80057da:	f85d 7b04 	ldr.w	r7, [sp], #4
 80057de:	4770      	bx	lr
 80057e0:	e000e010 	.word	0xe000e010

080057e4 <LL_SetSystemCoreClock>:
  * @note   Variable can be calculated also through SystemCoreClockUpdate function.
  * @param  HCLKFrequency HCLK frequency in Hz (can be calculated thanks to RCC helper macro)
  * @retval None
  */
void LL_SetSystemCoreClock(uint32_t HCLKFrequency)
{
 80057e4:	b480      	push	{r7}
 80057e6:	b083      	sub	sp, #12
 80057e8:	af00      	add	r7, sp, #0
 80057ea:	6078      	str	r0, [r7, #4]
  /* HCLK clock frequency */
  SystemCoreClock = HCLKFrequency;
 80057ec:	4a04      	ldr	r2, [pc, #16]	; (8005800 <LL_SetSystemCoreClock+0x1c>)
 80057ee:	687b      	ldr	r3, [r7, #4]
 80057f0:	6013      	str	r3, [r2, #0]
}
 80057f2:	bf00      	nop
 80057f4:	370c      	adds	r7, #12
 80057f6:	46bd      	mov	sp, r7
 80057f8:	f85d 7b04 	ldr.w	r7, [sp], #4
 80057fc:	4770      	bx	lr
 80057fe:	bf00      	nop
 8005800:	2000055c 	.word	0x2000055c

08005804 <__errno>:
 8005804:	4b01      	ldr	r3, [pc, #4]	; (800580c <__errno+0x8>)
 8005806:	6818      	ldr	r0, [r3, #0]
 8005808:	4770      	bx	lr
 800580a:	bf00      	nop
 800580c:	20000560 	.word	0x20000560

08005810 <__libc_init_array>:
 8005810:	b570      	push	{r4, r5, r6, lr}
 8005812:	4e0d      	ldr	r6, [pc, #52]	; (8005848 <__libc_init_array+0x38>)
 8005814:	4c0d      	ldr	r4, [pc, #52]	; (800584c <__libc_init_array+0x3c>)
 8005816:	1ba4      	subs	r4, r4, r6
 8005818:	10a4      	asrs	r4, r4, #2
 800581a:	2500      	movs	r5, #0
 800581c:	42a5      	cmp	r5, r4
 800581e:	d109      	bne.n	8005834 <__libc_init_array+0x24>
 8005820:	4e0b      	ldr	r6, [pc, #44]	; (8005850 <__libc_init_array+0x40>)
 8005822:	4c0c      	ldr	r4, [pc, #48]	; (8005854 <__libc_init_array+0x44>)
 8005824:	f000 ff7a 	bl	800671c <_init>
 8005828:	1ba4      	subs	r4, r4, r6
 800582a:	10a4      	asrs	r4, r4, #2
 800582c:	2500      	movs	r5, #0
 800582e:	42a5      	cmp	r5, r4
 8005830:	d105      	bne.n	800583e <__libc_init_array+0x2e>
 8005832:	bd70      	pop	{r4, r5, r6, pc}
 8005834:	f856 3025 	ldr.w	r3, [r6, r5, lsl #2]
 8005838:	4798      	blx	r3
 800583a:	3501      	adds	r5, #1
 800583c:	e7ee      	b.n	800581c <__libc_init_array+0xc>
 800583e:	f856 3025 	ldr.w	r3, [r6, r5, lsl #2]
 8005842:	4798      	blx	r3
 8005844:	3501      	adds	r5, #1
 8005846:	e7f2      	b.n	800582e <__libc_init_array+0x1e>
 8005848:	08007730 	.word	0x08007730
 800584c:	08007730 	.word	0x08007730
 8005850:	08007730 	.word	0x08007730
 8005854:	08007734 	.word	0x08007734

08005858 <memset>:
 8005858:	4402      	add	r2, r0
 800585a:	4603      	mov	r3, r0
 800585c:	4293      	cmp	r3, r2
 800585e:	d100      	bne.n	8005862 <memset+0xa>
 8005860:	4770      	bx	lr
 8005862:	f803 1b01 	strb.w	r1, [r3], #1
 8005866:	e7f9      	b.n	800585c <memset+0x4>

08005868 <iprintf>:
 8005868:	b40f      	push	{r0, r1, r2, r3}
 800586a:	4b0a      	ldr	r3, [pc, #40]	; (8005894 <iprintf+0x2c>)
 800586c:	b513      	push	{r0, r1, r4, lr}
 800586e:	681c      	ldr	r4, [r3, #0]
 8005870:	b124      	cbz	r4, 800587c <iprintf+0x14>
 8005872:	69a3      	ldr	r3, [r4, #24]
 8005874:	b913      	cbnz	r3, 800587c <iprintf+0x14>
 8005876:	4620      	mov	r0, r4
 8005878:	f000 fa34 	bl	8005ce4 <__sinit>
 800587c:	ab05      	add	r3, sp, #20
 800587e:	9a04      	ldr	r2, [sp, #16]
 8005880:	68a1      	ldr	r1, [r4, #8]
 8005882:	9301      	str	r3, [sp, #4]
 8005884:	4620      	mov	r0, r4
 8005886:	f000 fbed 	bl	8006064 <_vfiprintf_r>
 800588a:	b002      	add	sp, #8
 800588c:	e8bd 4010 	ldmia.w	sp!, {r4, lr}
 8005890:	b004      	add	sp, #16
 8005892:	4770      	bx	lr
 8005894:	20000560 	.word	0x20000560

08005898 <_puts_r>:
 8005898:	b570      	push	{r4, r5, r6, lr}
 800589a:	460e      	mov	r6, r1
 800589c:	4605      	mov	r5, r0
 800589e:	b118      	cbz	r0, 80058a8 <_puts_r+0x10>
 80058a0:	6983      	ldr	r3, [r0, #24]
 80058a2:	b90b      	cbnz	r3, 80058a8 <_puts_r+0x10>
 80058a4:	f000 fa1e 	bl	8005ce4 <__sinit>
 80058a8:	69ab      	ldr	r3, [r5, #24]
 80058aa:	68ac      	ldr	r4, [r5, #8]
 80058ac:	b913      	cbnz	r3, 80058b4 <_puts_r+0x1c>
 80058ae:	4628      	mov	r0, r5
 80058b0:	f000 fa18 	bl	8005ce4 <__sinit>
 80058b4:	4b23      	ldr	r3, [pc, #140]	; (8005944 <_puts_r+0xac>)
 80058b6:	429c      	cmp	r4, r3
 80058b8:	d117      	bne.n	80058ea <_puts_r+0x52>
 80058ba:	686c      	ldr	r4, [r5, #4]
 80058bc:	89a3      	ldrh	r3, [r4, #12]
 80058be:	071b      	lsls	r3, r3, #28
 80058c0:	d51d      	bpl.n	80058fe <_puts_r+0x66>
 80058c2:	6923      	ldr	r3, [r4, #16]
 80058c4:	b1db      	cbz	r3, 80058fe <_puts_r+0x66>
 80058c6:	3e01      	subs	r6, #1
 80058c8:	68a3      	ldr	r3, [r4, #8]
 80058ca:	f816 1f01 	ldrb.w	r1, [r6, #1]!
 80058ce:	3b01      	subs	r3, #1
 80058d0:	60a3      	str	r3, [r4, #8]
 80058d2:	b9e9      	cbnz	r1, 8005910 <_puts_r+0x78>
 80058d4:	2b00      	cmp	r3, #0
 80058d6:	da2e      	bge.n	8005936 <_puts_r+0x9e>
 80058d8:	4622      	mov	r2, r4
 80058da:	210a      	movs	r1, #10
 80058dc:	4628      	mov	r0, r5
 80058de:	f000 f851 	bl	8005984 <__swbuf_r>
 80058e2:	3001      	adds	r0, #1
 80058e4:	d011      	beq.n	800590a <_puts_r+0x72>
 80058e6:	200a      	movs	r0, #10
 80058e8:	e011      	b.n	800590e <_puts_r+0x76>
 80058ea:	4b17      	ldr	r3, [pc, #92]	; (8005948 <_puts_r+0xb0>)
 80058ec:	429c      	cmp	r4, r3
 80058ee:	d101      	bne.n	80058f4 <_puts_r+0x5c>
 80058f0:	68ac      	ldr	r4, [r5, #8]
 80058f2:	e7e3      	b.n	80058bc <_puts_r+0x24>
 80058f4:	4b15      	ldr	r3, [pc, #84]	; (800594c <_puts_r+0xb4>)
 80058f6:	429c      	cmp	r4, r3
 80058f8:	bf08      	it	eq
 80058fa:	68ec      	ldreq	r4, [r5, #12]
 80058fc:	e7de      	b.n	80058bc <_puts_r+0x24>
 80058fe:	4621      	mov	r1, r4
 8005900:	4628      	mov	r0, r5
 8005902:	f000 f891 	bl	8005a28 <__swsetup_r>
 8005906:	2800      	cmp	r0, #0
 8005908:	d0dd      	beq.n	80058c6 <_puts_r+0x2e>
 800590a:	f04f 30ff 	mov.w	r0, #4294967295
 800590e:	bd70      	pop	{r4, r5, r6, pc}
 8005910:	2b00      	cmp	r3, #0
 8005912:	da04      	bge.n	800591e <_puts_r+0x86>
 8005914:	69a2      	ldr	r2, [r4, #24]
 8005916:	429a      	cmp	r2, r3
 8005918:	dc06      	bgt.n	8005928 <_puts_r+0x90>
 800591a:	290a      	cmp	r1, #10
 800591c:	d004      	beq.n	8005928 <_puts_r+0x90>
 800591e:	6823      	ldr	r3, [r4, #0]
 8005920:	1c5a      	adds	r2, r3, #1
 8005922:	6022      	str	r2, [r4, #0]
 8005924:	7019      	strb	r1, [r3, #0]
 8005926:	e7cf      	b.n	80058c8 <_puts_r+0x30>
 8005928:	4622      	mov	r2, r4
 800592a:	4628      	mov	r0, r5
 800592c:	f000 f82a 	bl	8005984 <__swbuf_r>
 8005930:	3001      	adds	r0, #1
 8005932:	d1c9      	bne.n	80058c8 <_puts_r+0x30>
 8005934:	e7e9      	b.n	800590a <_puts_r+0x72>
 8005936:	6823      	ldr	r3, [r4, #0]
 8005938:	200a      	movs	r0, #10
 800593a:	1c5a      	adds	r2, r3, #1
 800593c:	6022      	str	r2, [r4, #0]
 800593e:	7018      	strb	r0, [r3, #0]
 8005940:	e7e5      	b.n	800590e <_puts_r+0x76>
 8005942:	bf00      	nop
 8005944:	080076b4 	.word	0x080076b4
 8005948:	080076d4 	.word	0x080076d4
 800594c:	08007694 	.word	0x08007694

08005950 <puts>:
 8005950:	4b02      	ldr	r3, [pc, #8]	; (800595c <puts+0xc>)
 8005952:	4601      	mov	r1, r0
 8005954:	6818      	ldr	r0, [r3, #0]
 8005956:	f7ff bf9f 	b.w	8005898 <_puts_r>
 800595a:	bf00      	nop
 800595c:	20000560 	.word	0x20000560

08005960 <strncmp>:
 8005960:	b510      	push	{r4, lr}
 8005962:	b16a      	cbz	r2, 8005980 <strncmp+0x20>
 8005964:	3901      	subs	r1, #1
 8005966:	1884      	adds	r4, r0, r2
 8005968:	f810 3b01 	ldrb.w	r3, [r0], #1
 800596c:	f811 2f01 	ldrb.w	r2, [r1, #1]!
 8005970:	4293      	cmp	r3, r2
 8005972:	d103      	bne.n	800597c <strncmp+0x1c>
 8005974:	42a0      	cmp	r0, r4
 8005976:	d001      	beq.n	800597c <strncmp+0x1c>
 8005978:	2b00      	cmp	r3, #0
 800597a:	d1f5      	bne.n	8005968 <strncmp+0x8>
 800597c:	1a98      	subs	r0, r3, r2
 800597e:	bd10      	pop	{r4, pc}
 8005980:	4610      	mov	r0, r2
 8005982:	e7fc      	b.n	800597e <strncmp+0x1e>

08005984 <__swbuf_r>:
 8005984:	b5f8      	push	{r3, r4, r5, r6, r7, lr}
 8005986:	460e      	mov	r6, r1
 8005988:	4614      	mov	r4, r2
 800598a:	4605      	mov	r5, r0
 800598c:	b118      	cbz	r0, 8005996 <__swbuf_r+0x12>
 800598e:	6983      	ldr	r3, [r0, #24]
 8005990:	b90b      	cbnz	r3, 8005996 <__swbuf_r+0x12>
 8005992:	f000 f9a7 	bl	8005ce4 <__sinit>
 8005996:	4b21      	ldr	r3, [pc, #132]	; (8005a1c <__swbuf_r+0x98>)
 8005998:	429c      	cmp	r4, r3
 800599a:	d12a      	bne.n	80059f2 <__swbuf_r+0x6e>
 800599c:	686c      	ldr	r4, [r5, #4]
 800599e:	69a3      	ldr	r3, [r4, #24]
 80059a0:	60a3      	str	r3, [r4, #8]
 80059a2:	89a3      	ldrh	r3, [r4, #12]
 80059a4:	071a      	lsls	r2, r3, #28
 80059a6:	d52e      	bpl.n	8005a06 <__swbuf_r+0x82>
 80059a8:	6923      	ldr	r3, [r4, #16]
 80059aa:	b363      	cbz	r3, 8005a06 <__swbuf_r+0x82>
 80059ac:	6923      	ldr	r3, [r4, #16]
 80059ae:	6820      	ldr	r0, [r4, #0]
 80059b0:	1ac0      	subs	r0, r0, r3
 80059b2:	6963      	ldr	r3, [r4, #20]
 80059b4:	b2f6      	uxtb	r6, r6
 80059b6:	4283      	cmp	r3, r0
 80059b8:	4637      	mov	r7, r6
 80059ba:	dc04      	bgt.n	80059c6 <__swbuf_r+0x42>
 80059bc:	4621      	mov	r1, r4
 80059be:	4628      	mov	r0, r5
 80059c0:	f000 f926 	bl	8005c10 <_fflush_r>
 80059c4:	bb28      	cbnz	r0, 8005a12 <__swbuf_r+0x8e>
 80059c6:	68a3      	ldr	r3, [r4, #8]
 80059c8:	3b01      	subs	r3, #1
 80059ca:	60a3      	str	r3, [r4, #8]
 80059cc:	6823      	ldr	r3, [r4, #0]
 80059ce:	1c5a      	adds	r2, r3, #1
 80059d0:	6022      	str	r2, [r4, #0]
 80059d2:	701e      	strb	r6, [r3, #0]
 80059d4:	6963      	ldr	r3, [r4, #20]
 80059d6:	3001      	adds	r0, #1
 80059d8:	4283      	cmp	r3, r0
 80059da:	d004      	beq.n	80059e6 <__swbuf_r+0x62>
 80059dc:	89a3      	ldrh	r3, [r4, #12]
 80059de:	07db      	lsls	r3, r3, #31
 80059e0:	d519      	bpl.n	8005a16 <__swbuf_r+0x92>
 80059e2:	2e0a      	cmp	r6, #10
 80059e4:	d117      	bne.n	8005a16 <__swbuf_r+0x92>
 80059e6:	4621      	mov	r1, r4
 80059e8:	4628      	mov	r0, r5
 80059ea:	f000 f911 	bl	8005c10 <_fflush_r>
 80059ee:	b190      	cbz	r0, 8005a16 <__swbuf_r+0x92>
 80059f0:	e00f      	b.n	8005a12 <__swbuf_r+0x8e>
 80059f2:	4b0b      	ldr	r3, [pc, #44]	; (8005a20 <__swbuf_r+0x9c>)
 80059f4:	429c      	cmp	r4, r3
 80059f6:	d101      	bne.n	80059fc <__swbuf_r+0x78>
 80059f8:	68ac      	ldr	r4, [r5, #8]
 80059fa:	e7d0      	b.n	800599e <__swbuf_r+0x1a>
 80059fc:	4b09      	ldr	r3, [pc, #36]	; (8005a24 <__swbuf_r+0xa0>)
 80059fe:	429c      	cmp	r4, r3
 8005a00:	bf08      	it	eq
 8005a02:	68ec      	ldreq	r4, [r5, #12]
 8005a04:	e7cb      	b.n	800599e <__swbuf_r+0x1a>
 8005a06:	4621      	mov	r1, r4
 8005a08:	4628      	mov	r0, r5
 8005a0a:	f000 f80d 	bl	8005a28 <__swsetup_r>
 8005a0e:	2800      	cmp	r0, #0
 8005a10:	d0cc      	beq.n	80059ac <__swbuf_r+0x28>
 8005a12:	f04f 37ff 	mov.w	r7, #4294967295
 8005a16:	4638      	mov	r0, r7
 8005a18:	bdf8      	pop	{r3, r4, r5, r6, r7, pc}
 8005a1a:	bf00      	nop
 8005a1c:	080076b4 	.word	0x080076b4
 8005a20:	080076d4 	.word	0x080076d4
 8005a24:	08007694 	.word	0x08007694

08005a28 <__swsetup_r>:
 8005a28:	4b32      	ldr	r3, [pc, #200]	; (8005af4 <__swsetup_r+0xcc>)
 8005a2a:	b570      	push	{r4, r5, r6, lr}
 8005a2c:	681d      	ldr	r5, [r3, #0]
 8005a2e:	4606      	mov	r6, r0
 8005a30:	460c      	mov	r4, r1
 8005a32:	b125      	cbz	r5, 8005a3e <__swsetup_r+0x16>
 8005a34:	69ab      	ldr	r3, [r5, #24]
 8005a36:	b913      	cbnz	r3, 8005a3e <__swsetup_r+0x16>
 8005a38:	4628      	mov	r0, r5
 8005a3a:	f000 f953 	bl	8005ce4 <__sinit>
 8005a3e:	4b2e      	ldr	r3, [pc, #184]	; (8005af8 <__swsetup_r+0xd0>)
 8005a40:	429c      	cmp	r4, r3
 8005a42:	d10f      	bne.n	8005a64 <__swsetup_r+0x3c>
 8005a44:	686c      	ldr	r4, [r5, #4]
 8005a46:	f9b4 300c 	ldrsh.w	r3, [r4, #12]
 8005a4a:	b29a      	uxth	r2, r3
 8005a4c:	0715      	lsls	r5, r2, #28
 8005a4e:	d42c      	bmi.n	8005aaa <__swsetup_r+0x82>
 8005a50:	06d0      	lsls	r0, r2, #27
 8005a52:	d411      	bmi.n	8005a78 <__swsetup_r+0x50>
 8005a54:	2209      	movs	r2, #9
 8005a56:	6032      	str	r2, [r6, #0]
 8005a58:	f043 0340 	orr.w	r3, r3, #64	; 0x40
 8005a5c:	81a3      	strh	r3, [r4, #12]
 8005a5e:	f04f 30ff 	mov.w	r0, #4294967295
 8005a62:	e03e      	b.n	8005ae2 <__swsetup_r+0xba>
 8005a64:	4b25      	ldr	r3, [pc, #148]	; (8005afc <__swsetup_r+0xd4>)
 8005a66:	429c      	cmp	r4, r3
 8005a68:	d101      	bne.n	8005a6e <__swsetup_r+0x46>
 8005a6a:	68ac      	ldr	r4, [r5, #8]
 8005a6c:	e7eb      	b.n	8005a46 <__swsetup_r+0x1e>
 8005a6e:	4b24      	ldr	r3, [pc, #144]	; (8005b00 <__swsetup_r+0xd8>)
 8005a70:	429c      	cmp	r4, r3
 8005a72:	bf08      	it	eq
 8005a74:	68ec      	ldreq	r4, [r5, #12]
 8005a76:	e7e6      	b.n	8005a46 <__swsetup_r+0x1e>
 8005a78:	0751      	lsls	r1, r2, #29
 8005a7a:	d512      	bpl.n	8005aa2 <__swsetup_r+0x7a>
 8005a7c:	6b61      	ldr	r1, [r4, #52]	; 0x34
 8005a7e:	b141      	cbz	r1, 8005a92 <__swsetup_r+0x6a>
 8005a80:	f104 0344 	add.w	r3, r4, #68	; 0x44
 8005a84:	4299      	cmp	r1, r3
 8005a86:	d002      	beq.n	8005a8e <__swsetup_r+0x66>
 8005a88:	4630      	mov	r0, r6
 8005a8a:	f000 fa19 	bl	8005ec0 <_free_r>
 8005a8e:	2300      	movs	r3, #0
 8005a90:	6363      	str	r3, [r4, #52]	; 0x34
 8005a92:	89a3      	ldrh	r3, [r4, #12]
 8005a94:	f023 0324 	bic.w	r3, r3, #36	; 0x24
 8005a98:	81a3      	strh	r3, [r4, #12]
 8005a9a:	2300      	movs	r3, #0
 8005a9c:	6063      	str	r3, [r4, #4]
 8005a9e:	6923      	ldr	r3, [r4, #16]
 8005aa0:	6023      	str	r3, [r4, #0]
 8005aa2:	89a3      	ldrh	r3, [r4, #12]
 8005aa4:	f043 0308 	orr.w	r3, r3, #8
 8005aa8:	81a3      	strh	r3, [r4, #12]
 8005aaa:	6923      	ldr	r3, [r4, #16]
 8005aac:	b94b      	cbnz	r3, 8005ac2 <__swsetup_r+0x9a>
 8005aae:	89a3      	ldrh	r3, [r4, #12]
 8005ab0:	f403 7320 	and.w	r3, r3, #640	; 0x280
 8005ab4:	f5b3 7f00 	cmp.w	r3, #512	; 0x200
 8005ab8:	d003      	beq.n	8005ac2 <__swsetup_r+0x9a>
 8005aba:	4621      	mov	r1, r4
 8005abc:	4630      	mov	r0, r6
 8005abe:	f000 f9bf 	bl	8005e40 <__smakebuf_r>
 8005ac2:	89a2      	ldrh	r2, [r4, #12]
 8005ac4:	f012 0301 	ands.w	r3, r2, #1
 8005ac8:	d00c      	beq.n	8005ae4 <__swsetup_r+0xbc>
 8005aca:	2300      	movs	r3, #0
 8005acc:	60a3      	str	r3, [r4, #8]
 8005ace:	6963      	ldr	r3, [r4, #20]
 8005ad0:	425b      	negs	r3, r3
 8005ad2:	61a3      	str	r3, [r4, #24]
 8005ad4:	6923      	ldr	r3, [r4, #16]
 8005ad6:	b953      	cbnz	r3, 8005aee <__swsetup_r+0xc6>
 8005ad8:	f9b4 300c 	ldrsh.w	r3, [r4, #12]
 8005adc:	f013 0080 	ands.w	r0, r3, #128	; 0x80
 8005ae0:	d1ba      	bne.n	8005a58 <__swsetup_r+0x30>
 8005ae2:	bd70      	pop	{r4, r5, r6, pc}
 8005ae4:	0792      	lsls	r2, r2, #30
 8005ae6:	bf58      	it	pl
 8005ae8:	6963      	ldrpl	r3, [r4, #20]
 8005aea:	60a3      	str	r3, [r4, #8]
 8005aec:	e7f2      	b.n	8005ad4 <__swsetup_r+0xac>
 8005aee:	2000      	movs	r0, #0
 8005af0:	e7f7      	b.n	8005ae2 <__swsetup_r+0xba>
 8005af2:	bf00      	nop
 8005af4:	20000560 	.word	0x20000560
 8005af8:	080076b4 	.word	0x080076b4
 8005afc:	080076d4 	.word	0x080076d4
 8005b00:	08007694 	.word	0x08007694

08005b04 <__sflush_r>:
 8005b04:	898a      	ldrh	r2, [r1, #12]
 8005b06:	e92d 41f0 	stmdb	sp!, {r4, r5, r6, r7, r8, lr}
 8005b0a:	4605      	mov	r5, r0
 8005b0c:	0710      	lsls	r0, r2, #28
 8005b0e:	460c      	mov	r4, r1
 8005b10:	d458      	bmi.n	8005bc4 <__sflush_r+0xc0>
 8005b12:	684b      	ldr	r3, [r1, #4]
 8005b14:	2b00      	cmp	r3, #0
 8005b16:	dc05      	bgt.n	8005b24 <__sflush_r+0x20>
 8005b18:	6c0b      	ldr	r3, [r1, #64]	; 0x40
 8005b1a:	2b00      	cmp	r3, #0
 8005b1c:	dc02      	bgt.n	8005b24 <__sflush_r+0x20>
 8005b1e:	2000      	movs	r0, #0
 8005b20:	e8bd 81f0 	ldmia.w	sp!, {r4, r5, r6, r7, r8, pc}
 8005b24:	6ae6      	ldr	r6, [r4, #44]	; 0x2c
 8005b26:	2e00      	cmp	r6, #0
 8005b28:	d0f9      	beq.n	8005b1e <__sflush_r+0x1a>
 8005b2a:	2300      	movs	r3, #0
 8005b2c:	f412 5280 	ands.w	r2, r2, #4096	; 0x1000
 8005b30:	682f      	ldr	r7, [r5, #0]
 8005b32:	6a21      	ldr	r1, [r4, #32]
 8005b34:	602b      	str	r3, [r5, #0]
 8005b36:	d032      	beq.n	8005b9e <__sflush_r+0x9a>
 8005b38:	6d60      	ldr	r0, [r4, #84]	; 0x54
 8005b3a:	89a3      	ldrh	r3, [r4, #12]
 8005b3c:	075a      	lsls	r2, r3, #29
 8005b3e:	d505      	bpl.n	8005b4c <__sflush_r+0x48>
 8005b40:	6863      	ldr	r3, [r4, #4]
 8005b42:	1ac0      	subs	r0, r0, r3
 8005b44:	6b63      	ldr	r3, [r4, #52]	; 0x34
 8005b46:	b10b      	cbz	r3, 8005b4c <__sflush_r+0x48>
 8005b48:	6c23      	ldr	r3, [r4, #64]	; 0x40
 8005b4a:	1ac0      	subs	r0, r0, r3
 8005b4c:	2300      	movs	r3, #0
 8005b4e:	4602      	mov	r2, r0
 8005b50:	6ae6      	ldr	r6, [r4, #44]	; 0x2c
 8005b52:	6a21      	ldr	r1, [r4, #32]
 8005b54:	4628      	mov	r0, r5
 8005b56:	47b0      	blx	r6
 8005b58:	1c43      	adds	r3, r0, #1
 8005b5a:	89a3      	ldrh	r3, [r4, #12]
 8005b5c:	d106      	bne.n	8005b6c <__sflush_r+0x68>
 8005b5e:	6829      	ldr	r1, [r5, #0]
 8005b60:	291d      	cmp	r1, #29
 8005b62:	d848      	bhi.n	8005bf6 <__sflush_r+0xf2>
 8005b64:	4a29      	ldr	r2, [pc, #164]	; (8005c0c <__sflush_r+0x108>)
 8005b66:	40ca      	lsrs	r2, r1
 8005b68:	07d6      	lsls	r6, r2, #31
 8005b6a:	d544      	bpl.n	8005bf6 <__sflush_r+0xf2>
 8005b6c:	2200      	movs	r2, #0
 8005b6e:	6062      	str	r2, [r4, #4]
 8005b70:	04d9      	lsls	r1, r3, #19
 8005b72:	6922      	ldr	r2, [r4, #16]
 8005b74:	6022      	str	r2, [r4, #0]
 8005b76:	d504      	bpl.n	8005b82 <__sflush_r+0x7e>
 8005b78:	1c42      	adds	r2, r0, #1
 8005b7a:	d101      	bne.n	8005b80 <__sflush_r+0x7c>
 8005b7c:	682b      	ldr	r3, [r5, #0]
 8005b7e:	b903      	cbnz	r3, 8005b82 <__sflush_r+0x7e>
 8005b80:	6560      	str	r0, [r4, #84]	; 0x54
 8005b82:	6b61      	ldr	r1, [r4, #52]	; 0x34
 8005b84:	602f      	str	r7, [r5, #0]
 8005b86:	2900      	cmp	r1, #0
 8005b88:	d0c9      	beq.n	8005b1e <__sflush_r+0x1a>
 8005b8a:	f104 0344 	add.w	r3, r4, #68	; 0x44
 8005b8e:	4299      	cmp	r1, r3
 8005b90:	d002      	beq.n	8005b98 <__sflush_r+0x94>
 8005b92:	4628      	mov	r0, r5
 8005b94:	f000 f994 	bl	8005ec0 <_free_r>
 8005b98:	2000      	movs	r0, #0
 8005b9a:	6360      	str	r0, [r4, #52]	; 0x34
 8005b9c:	e7c0      	b.n	8005b20 <__sflush_r+0x1c>
 8005b9e:	2301      	movs	r3, #1
 8005ba0:	4628      	mov	r0, r5
 8005ba2:	47b0      	blx	r6
 8005ba4:	1c41      	adds	r1, r0, #1
 8005ba6:	d1c8      	bne.n	8005b3a <__sflush_r+0x36>
 8005ba8:	682b      	ldr	r3, [r5, #0]
 8005baa:	2b00      	cmp	r3, #0
 8005bac:	d0c5      	beq.n	8005b3a <__sflush_r+0x36>
 8005bae:	2b1d      	cmp	r3, #29
 8005bb0:	d001      	beq.n	8005bb6 <__sflush_r+0xb2>
 8005bb2:	2b16      	cmp	r3, #22
 8005bb4:	d101      	bne.n	8005bba <__sflush_r+0xb6>
 8005bb6:	602f      	str	r7, [r5, #0]
 8005bb8:	e7b1      	b.n	8005b1e <__sflush_r+0x1a>
 8005bba:	89a3      	ldrh	r3, [r4, #12]
 8005bbc:	f043 0340 	orr.w	r3, r3, #64	; 0x40
 8005bc0:	81a3      	strh	r3, [r4, #12]
 8005bc2:	e7ad      	b.n	8005b20 <__sflush_r+0x1c>
 8005bc4:	690f      	ldr	r7, [r1, #16]
 8005bc6:	2f00      	cmp	r7, #0
 8005bc8:	d0a9      	beq.n	8005b1e <__sflush_r+0x1a>
 8005bca:	0793      	lsls	r3, r2, #30
 8005bcc:	680e      	ldr	r6, [r1, #0]
 8005bce:	bf08      	it	eq
 8005bd0:	694b      	ldreq	r3, [r1, #20]
 8005bd2:	600f      	str	r7, [r1, #0]
 8005bd4:	bf18      	it	ne
 8005bd6:	2300      	movne	r3, #0
 8005bd8:	eba6 0807 	sub.w	r8, r6, r7
 8005bdc:	608b      	str	r3, [r1, #8]
 8005bde:	f1b8 0f00 	cmp.w	r8, #0
 8005be2:	dd9c      	ble.n	8005b1e <__sflush_r+0x1a>
 8005be4:	4643      	mov	r3, r8
 8005be6:	463a      	mov	r2, r7
 8005be8:	6a21      	ldr	r1, [r4, #32]
 8005bea:	6aa6      	ldr	r6, [r4, #40]	; 0x28
 8005bec:	4628      	mov	r0, r5
 8005bee:	47b0      	blx	r6
 8005bf0:	2800      	cmp	r0, #0
 8005bf2:	dc06      	bgt.n	8005c02 <__sflush_r+0xfe>
 8005bf4:	89a3      	ldrh	r3, [r4, #12]
 8005bf6:	f043 0340 	orr.w	r3, r3, #64	; 0x40
 8005bfa:	81a3      	strh	r3, [r4, #12]
 8005bfc:	f04f 30ff 	mov.w	r0, #4294967295
 8005c00:	e78e      	b.n	8005b20 <__sflush_r+0x1c>
 8005c02:	4407      	add	r7, r0
 8005c04:	eba8 0800 	sub.w	r8, r8, r0
 8005c08:	e7e9      	b.n	8005bde <__sflush_r+0xda>
 8005c0a:	bf00      	nop
 8005c0c:	20400001 	.word	0x20400001

08005c10 <_fflush_r>:
 8005c10:	b538      	push	{r3, r4, r5, lr}
 8005c12:	690b      	ldr	r3, [r1, #16]
 8005c14:	4605      	mov	r5, r0
 8005c16:	460c      	mov	r4, r1
 8005c18:	b1db      	cbz	r3, 8005c52 <_fflush_r+0x42>
 8005c1a:	b118      	cbz	r0, 8005c24 <_fflush_r+0x14>
 8005c1c:	6983      	ldr	r3, [r0, #24]
 8005c1e:	b90b      	cbnz	r3, 8005c24 <_fflush_r+0x14>
 8005c20:	f000 f860 	bl	8005ce4 <__sinit>
 8005c24:	4b0c      	ldr	r3, [pc, #48]	; (8005c58 <_fflush_r+0x48>)
 8005c26:	429c      	cmp	r4, r3
 8005c28:	d109      	bne.n	8005c3e <_fflush_r+0x2e>
 8005c2a:	686c      	ldr	r4, [r5, #4]
 8005c2c:	f9b4 300c 	ldrsh.w	r3, [r4, #12]
 8005c30:	b17b      	cbz	r3, 8005c52 <_fflush_r+0x42>
 8005c32:	4621      	mov	r1, r4
 8005c34:	4628      	mov	r0, r5
 8005c36:	e8bd 4038 	ldmia.w	sp!, {r3, r4, r5, lr}
 8005c3a:	f7ff bf63 	b.w	8005b04 <__sflush_r>
 8005c3e:	4b07      	ldr	r3, [pc, #28]	; (8005c5c <_fflush_r+0x4c>)
 8005c40:	429c      	cmp	r4, r3
 8005c42:	d101      	bne.n	8005c48 <_fflush_r+0x38>
 8005c44:	68ac      	ldr	r4, [r5, #8]
 8005c46:	e7f1      	b.n	8005c2c <_fflush_r+0x1c>
 8005c48:	4b05      	ldr	r3, [pc, #20]	; (8005c60 <_fflush_r+0x50>)
 8005c4a:	429c      	cmp	r4, r3
 8005c4c:	bf08      	it	eq
 8005c4e:	68ec      	ldreq	r4, [r5, #12]
 8005c50:	e7ec      	b.n	8005c2c <_fflush_r+0x1c>
 8005c52:	2000      	movs	r0, #0
 8005c54:	bd38      	pop	{r3, r4, r5, pc}
 8005c56:	bf00      	nop
 8005c58:	080076b4 	.word	0x080076b4
 8005c5c:	080076d4 	.word	0x080076d4
 8005c60:	08007694 	.word	0x08007694

08005c64 <std>:
 8005c64:	2300      	movs	r3, #0
 8005c66:	b510      	push	{r4, lr}
 8005c68:	4604      	mov	r4, r0
 8005c6a:	e9c0 3300 	strd	r3, r3, [r0]
 8005c6e:	6083      	str	r3, [r0, #8]
 8005c70:	8181      	strh	r1, [r0, #12]
 8005c72:	6643      	str	r3, [r0, #100]	; 0x64
 8005c74:	81c2      	strh	r2, [r0, #14]
 8005c76:	e9c0 3304 	strd	r3, r3, [r0, #16]
 8005c7a:	6183      	str	r3, [r0, #24]
 8005c7c:	4619      	mov	r1, r3
 8005c7e:	2208      	movs	r2, #8
 8005c80:	305c      	adds	r0, #92	; 0x5c
 8005c82:	f7ff fde9 	bl	8005858 <memset>
 8005c86:	4b05      	ldr	r3, [pc, #20]	; (8005c9c <std+0x38>)
 8005c88:	6263      	str	r3, [r4, #36]	; 0x24
 8005c8a:	4b05      	ldr	r3, [pc, #20]	; (8005ca0 <std+0x3c>)
 8005c8c:	62a3      	str	r3, [r4, #40]	; 0x28
 8005c8e:	4b05      	ldr	r3, [pc, #20]	; (8005ca4 <std+0x40>)
 8005c90:	62e3      	str	r3, [r4, #44]	; 0x2c
 8005c92:	4b05      	ldr	r3, [pc, #20]	; (8005ca8 <std+0x44>)
 8005c94:	6224      	str	r4, [r4, #32]
 8005c96:	6323      	str	r3, [r4, #48]	; 0x30
 8005c98:	bd10      	pop	{r4, pc}
 8005c9a:	bf00      	nop
 8005c9c:	080065c1 	.word	0x080065c1
 8005ca0:	080065e3 	.word	0x080065e3
 8005ca4:	0800661b 	.word	0x0800661b
 8005ca8:	0800663f 	.word	0x0800663f

08005cac <_cleanup_r>:
 8005cac:	4901      	ldr	r1, [pc, #4]	; (8005cb4 <_cleanup_r+0x8>)
 8005cae:	f000 b885 	b.w	8005dbc <_fwalk_reent>
 8005cb2:	bf00      	nop
 8005cb4:	08005c11 	.word	0x08005c11

08005cb8 <__sfmoreglue>:
 8005cb8:	b570      	push	{r4, r5, r6, lr}
 8005cba:	1e4a      	subs	r2, r1, #1
 8005cbc:	2568      	movs	r5, #104	; 0x68
 8005cbe:	4355      	muls	r5, r2
 8005cc0:	460e      	mov	r6, r1
 8005cc2:	f105 0174 	add.w	r1, r5, #116	; 0x74
 8005cc6:	f000 f949 	bl	8005f5c <_malloc_r>
 8005cca:	4604      	mov	r4, r0
 8005ccc:	b140      	cbz	r0, 8005ce0 <__sfmoreglue+0x28>
 8005cce:	2100      	movs	r1, #0
 8005cd0:	e9c0 1600 	strd	r1, r6, [r0]
 8005cd4:	300c      	adds	r0, #12
 8005cd6:	60a0      	str	r0, [r4, #8]
 8005cd8:	f105 0268 	add.w	r2, r5, #104	; 0x68
 8005cdc:	f7ff fdbc 	bl	8005858 <memset>
 8005ce0:	4620      	mov	r0, r4
 8005ce2:	bd70      	pop	{r4, r5, r6, pc}

08005ce4 <__sinit>:
 8005ce4:	6983      	ldr	r3, [r0, #24]
 8005ce6:	b510      	push	{r4, lr}
 8005ce8:	4604      	mov	r4, r0
 8005cea:	bb33      	cbnz	r3, 8005d3a <__sinit+0x56>
 8005cec:	e9c0 3312 	strd	r3, r3, [r0, #72]	; 0x48
 8005cf0:	6503      	str	r3, [r0, #80]	; 0x50
 8005cf2:	4b12      	ldr	r3, [pc, #72]	; (8005d3c <__sinit+0x58>)
 8005cf4:	4a12      	ldr	r2, [pc, #72]	; (8005d40 <__sinit+0x5c>)
 8005cf6:	681b      	ldr	r3, [r3, #0]
 8005cf8:	6282      	str	r2, [r0, #40]	; 0x28
 8005cfa:	4298      	cmp	r0, r3
 8005cfc:	bf04      	itt	eq
 8005cfe:	2301      	moveq	r3, #1
 8005d00:	6183      	streq	r3, [r0, #24]
 8005d02:	f000 f81f 	bl	8005d44 <__sfp>
 8005d06:	6060      	str	r0, [r4, #4]
 8005d08:	4620      	mov	r0, r4
 8005d0a:	f000 f81b 	bl	8005d44 <__sfp>
 8005d0e:	60a0      	str	r0, [r4, #8]
 8005d10:	4620      	mov	r0, r4
 8005d12:	f000 f817 	bl	8005d44 <__sfp>
 8005d16:	2200      	movs	r2, #0
 8005d18:	60e0      	str	r0, [r4, #12]
 8005d1a:	2104      	movs	r1, #4
 8005d1c:	6860      	ldr	r0, [r4, #4]
 8005d1e:	f7ff ffa1 	bl	8005c64 <std>
 8005d22:	2201      	movs	r2, #1
 8005d24:	2109      	movs	r1, #9
 8005d26:	68a0      	ldr	r0, [r4, #8]
 8005d28:	f7ff ff9c 	bl	8005c64 <std>
 8005d2c:	2202      	movs	r2, #2
 8005d2e:	2112      	movs	r1, #18
 8005d30:	68e0      	ldr	r0, [r4, #12]
 8005d32:	f7ff ff97 	bl	8005c64 <std>
 8005d36:	2301      	movs	r3, #1
 8005d38:	61a3      	str	r3, [r4, #24]
 8005d3a:	bd10      	pop	{r4, pc}
 8005d3c:	08007690 	.word	0x08007690
 8005d40:	08005cad 	.word	0x08005cad

08005d44 <__sfp>:
 8005d44:	b5f8      	push	{r3, r4, r5, r6, r7, lr}
 8005d46:	4b1b      	ldr	r3, [pc, #108]	; (8005db4 <__sfp+0x70>)
 8005d48:	681e      	ldr	r6, [r3, #0]
 8005d4a:	69b3      	ldr	r3, [r6, #24]
 8005d4c:	4607      	mov	r7, r0
 8005d4e:	b913      	cbnz	r3, 8005d56 <__sfp+0x12>
 8005d50:	4630      	mov	r0, r6
 8005d52:	f7ff ffc7 	bl	8005ce4 <__sinit>
 8005d56:	3648      	adds	r6, #72	; 0x48
 8005d58:	e9d6 3401 	ldrd	r3, r4, [r6, #4]
 8005d5c:	3b01      	subs	r3, #1
 8005d5e:	d503      	bpl.n	8005d68 <__sfp+0x24>
 8005d60:	6833      	ldr	r3, [r6, #0]
 8005d62:	b133      	cbz	r3, 8005d72 <__sfp+0x2e>
 8005d64:	6836      	ldr	r6, [r6, #0]
 8005d66:	e7f7      	b.n	8005d58 <__sfp+0x14>
 8005d68:	f9b4 500c 	ldrsh.w	r5, [r4, #12]
 8005d6c:	b16d      	cbz	r5, 8005d8a <__sfp+0x46>
 8005d6e:	3468      	adds	r4, #104	; 0x68
 8005d70:	e7f4      	b.n	8005d5c <__sfp+0x18>
 8005d72:	2104      	movs	r1, #4
 8005d74:	4638      	mov	r0, r7
 8005d76:	f7ff ff9f 	bl	8005cb8 <__sfmoreglue>
 8005d7a:	6030      	str	r0, [r6, #0]
 8005d7c:	2800      	cmp	r0, #0
 8005d7e:	d1f1      	bne.n	8005d64 <__sfp+0x20>
 8005d80:	230c      	movs	r3, #12
 8005d82:	603b      	str	r3, [r7, #0]
 8005d84:	4604      	mov	r4, r0
 8005d86:	4620      	mov	r0, r4
 8005d88:	bdf8      	pop	{r3, r4, r5, r6, r7, pc}
 8005d8a:	4b0b      	ldr	r3, [pc, #44]	; (8005db8 <__sfp+0x74>)
 8005d8c:	6665      	str	r5, [r4, #100]	; 0x64
 8005d8e:	e9c4 5500 	strd	r5, r5, [r4]
 8005d92:	60a5      	str	r5, [r4, #8]
 8005d94:	e9c4 3503 	strd	r3, r5, [r4, #12]
 8005d98:	e9c4 5505 	strd	r5, r5, [r4, #20]
 8005d9c:	2208      	movs	r2, #8
 8005d9e:	4629      	mov	r1, r5
 8005da0:	f104 005c 	add.w	r0, r4, #92	; 0x5c
 8005da4:	f7ff fd58 	bl	8005858 <memset>
 8005da8:	e9c4 550d 	strd	r5, r5, [r4, #52]	; 0x34
 8005dac:	e9c4 5512 	strd	r5, r5, [r4, #72]	; 0x48
 8005db0:	e7e9      	b.n	8005d86 <__sfp+0x42>
 8005db2:	bf00      	nop
 8005db4:	08007690 	.word	0x08007690
 8005db8:	ffff0001 	.word	0xffff0001

08005dbc <_fwalk_reent>:
 8005dbc:	e92d 43f8 	stmdb	sp!, {r3, r4, r5, r6, r7, r8, r9, lr}
 8005dc0:	4680      	mov	r8, r0
 8005dc2:	4689      	mov	r9, r1
 8005dc4:	f100 0448 	add.w	r4, r0, #72	; 0x48
 8005dc8:	2600      	movs	r6, #0
 8005dca:	b914      	cbnz	r4, 8005dd2 <_fwalk_reent+0x16>
 8005dcc:	4630      	mov	r0, r6
 8005dce:	e8bd 83f8 	ldmia.w	sp!, {r3, r4, r5, r6, r7, r8, r9, pc}
 8005dd2:	e9d4 7501 	ldrd	r7, r5, [r4, #4]
 8005dd6:	3f01      	subs	r7, #1
 8005dd8:	d501      	bpl.n	8005dde <_fwalk_reent+0x22>
 8005dda:	6824      	ldr	r4, [r4, #0]
 8005ddc:	e7f5      	b.n	8005dca <_fwalk_reent+0xe>
 8005dde:	89ab      	ldrh	r3, [r5, #12]
 8005de0:	2b01      	cmp	r3, #1
 8005de2:	d907      	bls.n	8005df4 <_fwalk_reent+0x38>
 8005de4:	f9b5 300e 	ldrsh.w	r3, [r5, #14]
 8005de8:	3301      	adds	r3, #1
 8005dea:	d003      	beq.n	8005df4 <_fwalk_reent+0x38>
 8005dec:	4629      	mov	r1, r5
 8005dee:	4640      	mov	r0, r8
 8005df0:	47c8      	blx	r9
 8005df2:	4306      	orrs	r6, r0
 8005df4:	3568      	adds	r5, #104	; 0x68
 8005df6:	e7ee      	b.n	8005dd6 <_fwalk_reent+0x1a>

08005df8 <__swhatbuf_r>:
 8005df8:	b570      	push	{r4, r5, r6, lr}
 8005dfa:	460e      	mov	r6, r1
 8005dfc:	f9b1 100e 	ldrsh.w	r1, [r1, #14]
 8005e00:	2900      	cmp	r1, #0
 8005e02:	b096      	sub	sp, #88	; 0x58
 8005e04:	4614      	mov	r4, r2
 8005e06:	461d      	mov	r5, r3
 8005e08:	da07      	bge.n	8005e1a <__swhatbuf_r+0x22>
 8005e0a:	2300      	movs	r3, #0
 8005e0c:	602b      	str	r3, [r5, #0]
 8005e0e:	89b3      	ldrh	r3, [r6, #12]
 8005e10:	061a      	lsls	r2, r3, #24
 8005e12:	d410      	bmi.n	8005e36 <__swhatbuf_r+0x3e>
 8005e14:	f44f 6380 	mov.w	r3, #1024	; 0x400
 8005e18:	e00e      	b.n	8005e38 <__swhatbuf_r+0x40>
 8005e1a:	466a      	mov	r2, sp
 8005e1c:	f000 fc36 	bl	800668c <_fstat_r>
 8005e20:	2800      	cmp	r0, #0
 8005e22:	dbf2      	blt.n	8005e0a <__swhatbuf_r+0x12>
 8005e24:	9a01      	ldr	r2, [sp, #4]
 8005e26:	f402 4270 	and.w	r2, r2, #61440	; 0xf000
 8005e2a:	f5a2 5300 	sub.w	r3, r2, #8192	; 0x2000
 8005e2e:	425a      	negs	r2, r3
 8005e30:	415a      	adcs	r2, r3
 8005e32:	602a      	str	r2, [r5, #0]
 8005e34:	e7ee      	b.n	8005e14 <__swhatbuf_r+0x1c>
 8005e36:	2340      	movs	r3, #64	; 0x40
 8005e38:	2000      	movs	r0, #0
 8005e3a:	6023      	str	r3, [r4, #0]
 8005e3c:	b016      	add	sp, #88	; 0x58
 8005e3e:	bd70      	pop	{r4, r5, r6, pc}

08005e40 <__smakebuf_r>:
 8005e40:	898b      	ldrh	r3, [r1, #12]
 8005e42:	b573      	push	{r0, r1, r4, r5, r6, lr}
 8005e44:	079d      	lsls	r5, r3, #30
 8005e46:	4606      	mov	r6, r0
 8005e48:	460c      	mov	r4, r1
 8005e4a:	d507      	bpl.n	8005e5c <__smakebuf_r+0x1c>
 8005e4c:	f104 0347 	add.w	r3, r4, #71	; 0x47
 8005e50:	6023      	str	r3, [r4, #0]
 8005e52:	6123      	str	r3, [r4, #16]
 8005e54:	2301      	movs	r3, #1
 8005e56:	6163      	str	r3, [r4, #20]
 8005e58:	b002      	add	sp, #8
 8005e5a:	bd70      	pop	{r4, r5, r6, pc}
 8005e5c:	ab01      	add	r3, sp, #4
 8005e5e:	466a      	mov	r2, sp
 8005e60:	f7ff ffca 	bl	8005df8 <__swhatbuf_r>
 8005e64:	9900      	ldr	r1, [sp, #0]
 8005e66:	4605      	mov	r5, r0
 8005e68:	4630      	mov	r0, r6
 8005e6a:	f000 f877 	bl	8005f5c <_malloc_r>
 8005e6e:	b948      	cbnz	r0, 8005e84 <__smakebuf_r+0x44>
 8005e70:	f9b4 300c 	ldrsh.w	r3, [r4, #12]
 8005e74:	059a      	lsls	r2, r3, #22
 8005e76:	d4ef      	bmi.n	8005e58 <__smakebuf_r+0x18>
 8005e78:	f023 0303 	bic.w	r3, r3, #3
 8005e7c:	f043 0302 	orr.w	r3, r3, #2
 8005e80:	81a3      	strh	r3, [r4, #12]
 8005e82:	e7e3      	b.n	8005e4c <__smakebuf_r+0xc>
 8005e84:	4b0d      	ldr	r3, [pc, #52]	; (8005ebc <__smakebuf_r+0x7c>)
 8005e86:	62b3      	str	r3, [r6, #40]	; 0x28
 8005e88:	89a3      	ldrh	r3, [r4, #12]
 8005e8a:	6020      	str	r0, [r4, #0]
 8005e8c:	f043 0380 	orr.w	r3, r3, #128	; 0x80
 8005e90:	81a3      	strh	r3, [r4, #12]
 8005e92:	9b00      	ldr	r3, [sp, #0]
 8005e94:	6163      	str	r3, [r4, #20]
 8005e96:	9b01      	ldr	r3, [sp, #4]
 8005e98:	6120      	str	r0, [r4, #16]
 8005e9a:	b15b      	cbz	r3, 8005eb4 <__smakebuf_r+0x74>
 8005e9c:	f9b4 100e 	ldrsh.w	r1, [r4, #14]
 8005ea0:	4630      	mov	r0, r6
 8005ea2:	f000 fc05 	bl	80066b0 <_isatty_r>
 8005ea6:	b128      	cbz	r0, 8005eb4 <__smakebuf_r+0x74>
 8005ea8:	89a3      	ldrh	r3, [r4, #12]
 8005eaa:	f023 0303 	bic.w	r3, r3, #3
 8005eae:	f043 0301 	orr.w	r3, r3, #1
 8005eb2:	81a3      	strh	r3, [r4, #12]
 8005eb4:	89a3      	ldrh	r3, [r4, #12]
 8005eb6:	431d      	orrs	r5, r3
 8005eb8:	81a5      	strh	r5, [r4, #12]
 8005eba:	e7cd      	b.n	8005e58 <__smakebuf_r+0x18>
 8005ebc:	08005cad 	.word	0x08005cad

08005ec0 <_free_r>:
 8005ec0:	b538      	push	{r3, r4, r5, lr}
 8005ec2:	4605      	mov	r5, r0
 8005ec4:	2900      	cmp	r1, #0
 8005ec6:	d045      	beq.n	8005f54 <_free_r+0x94>
 8005ec8:	f851 3c04 	ldr.w	r3, [r1, #-4]
 8005ecc:	1f0c      	subs	r4, r1, #4
 8005ece:	2b00      	cmp	r3, #0
 8005ed0:	bfb8      	it	lt
 8005ed2:	18e4      	addlt	r4, r4, r3
 8005ed4:	f000 fc0e 	bl	80066f4 <__malloc_lock>
 8005ed8:	4a1f      	ldr	r2, [pc, #124]	; (8005f58 <_free_r+0x98>)
 8005eda:	6813      	ldr	r3, [r2, #0]
 8005edc:	4610      	mov	r0, r2
 8005ede:	b933      	cbnz	r3, 8005eee <_free_r+0x2e>
 8005ee0:	6063      	str	r3, [r4, #4]
 8005ee2:	6014      	str	r4, [r2, #0]
 8005ee4:	4628      	mov	r0, r5
 8005ee6:	e8bd 4038 	ldmia.w	sp!, {r3, r4, r5, lr}
 8005eea:	f000 bc04 	b.w	80066f6 <__malloc_unlock>
 8005eee:	42a3      	cmp	r3, r4
 8005ef0:	d90c      	bls.n	8005f0c <_free_r+0x4c>
 8005ef2:	6821      	ldr	r1, [r4, #0]
 8005ef4:	1862      	adds	r2, r4, r1
 8005ef6:	4293      	cmp	r3, r2
 8005ef8:	bf04      	itt	eq
 8005efa:	681a      	ldreq	r2, [r3, #0]
 8005efc:	685b      	ldreq	r3, [r3, #4]
 8005efe:	6063      	str	r3, [r4, #4]
 8005f00:	bf04      	itt	eq
 8005f02:	1852      	addeq	r2, r2, r1
 8005f04:	6022      	streq	r2, [r4, #0]
 8005f06:	6004      	str	r4, [r0, #0]
 8005f08:	e7ec      	b.n	8005ee4 <_free_r+0x24>
 8005f0a:	4613      	mov	r3, r2
 8005f0c:	685a      	ldr	r2, [r3, #4]
 8005f0e:	b10a      	cbz	r2, 8005f14 <_free_r+0x54>
 8005f10:	42a2      	cmp	r2, r4
 8005f12:	d9fa      	bls.n	8005f0a <_free_r+0x4a>
 8005f14:	6819      	ldr	r1, [r3, #0]
 8005f16:	1858      	adds	r0, r3, r1
 8005f18:	42a0      	cmp	r0, r4
 8005f1a:	d10b      	bne.n	8005f34 <_free_r+0x74>
 8005f1c:	6820      	ldr	r0, [r4, #0]
 8005f1e:	4401      	add	r1, r0
 8005f20:	1858      	adds	r0, r3, r1
 8005f22:	4282      	cmp	r2, r0
 8005f24:	6019      	str	r1, [r3, #0]
 8005f26:	d1dd      	bne.n	8005ee4 <_free_r+0x24>
 8005f28:	6810      	ldr	r0, [r2, #0]
 8005f2a:	6852      	ldr	r2, [r2, #4]
 8005f2c:	605a      	str	r2, [r3, #4]
 8005f2e:	4401      	add	r1, r0
 8005f30:	6019      	str	r1, [r3, #0]
 8005f32:	e7d7      	b.n	8005ee4 <_free_r+0x24>
 8005f34:	d902      	bls.n	8005f3c <_free_r+0x7c>
 8005f36:	230c      	movs	r3, #12
 8005f38:	602b      	str	r3, [r5, #0]
 8005f3a:	e7d3      	b.n	8005ee4 <_free_r+0x24>
 8005f3c:	6820      	ldr	r0, [r4, #0]
 8005f3e:	1821      	adds	r1, r4, r0
 8005f40:	428a      	cmp	r2, r1
 8005f42:	bf04      	itt	eq
 8005f44:	6811      	ldreq	r1, [r2, #0]
 8005f46:	6852      	ldreq	r2, [r2, #4]
 8005f48:	6062      	str	r2, [r4, #4]
 8005f4a:	bf04      	itt	eq
 8005f4c:	1809      	addeq	r1, r1, r0
 8005f4e:	6021      	streq	r1, [r4, #0]
 8005f50:	605c      	str	r4, [r3, #4]
 8005f52:	e7c7      	b.n	8005ee4 <_free_r+0x24>
 8005f54:	bd38      	pop	{r3, r4, r5, pc}
 8005f56:	bf00      	nop
 8005f58:	20000684 	.word	0x20000684

08005f5c <_malloc_r>:
 8005f5c:	b570      	push	{r4, r5, r6, lr}
 8005f5e:	1ccd      	adds	r5, r1, #3
 8005f60:	f025 0503 	bic.w	r5, r5, #3
 8005f64:	3508      	adds	r5, #8
 8005f66:	2d0c      	cmp	r5, #12
 8005f68:	bf38      	it	cc
 8005f6a:	250c      	movcc	r5, #12
 8005f6c:	2d00      	cmp	r5, #0
 8005f6e:	4606      	mov	r6, r0
 8005f70:	db01      	blt.n	8005f76 <_malloc_r+0x1a>
 8005f72:	42a9      	cmp	r1, r5
 8005f74:	d903      	bls.n	8005f7e <_malloc_r+0x22>
 8005f76:	230c      	movs	r3, #12
 8005f78:	6033      	str	r3, [r6, #0]
 8005f7a:	2000      	movs	r0, #0
 8005f7c:	bd70      	pop	{r4, r5, r6, pc}
 8005f7e:	f000 fbb9 	bl	80066f4 <__malloc_lock>
 8005f82:	4a21      	ldr	r2, [pc, #132]	; (8006008 <_malloc_r+0xac>)
 8005f84:	6814      	ldr	r4, [r2, #0]
 8005f86:	4621      	mov	r1, r4
 8005f88:	b991      	cbnz	r1, 8005fb0 <_malloc_r+0x54>
 8005f8a:	4c20      	ldr	r4, [pc, #128]	; (800600c <_malloc_r+0xb0>)
 8005f8c:	6823      	ldr	r3, [r4, #0]
 8005f8e:	b91b      	cbnz	r3, 8005f98 <_malloc_r+0x3c>
 8005f90:	4630      	mov	r0, r6
 8005f92:	f000 fb05 	bl	80065a0 <_sbrk_r>
 8005f96:	6020      	str	r0, [r4, #0]
 8005f98:	4629      	mov	r1, r5
 8005f9a:	4630      	mov	r0, r6
 8005f9c:	f000 fb00 	bl	80065a0 <_sbrk_r>
 8005fa0:	1c43      	adds	r3, r0, #1
 8005fa2:	d124      	bne.n	8005fee <_malloc_r+0x92>
 8005fa4:	230c      	movs	r3, #12
 8005fa6:	6033      	str	r3, [r6, #0]
 8005fa8:	4630      	mov	r0, r6
 8005faa:	f000 fba4 	bl	80066f6 <__malloc_unlock>
 8005fae:	e7e4      	b.n	8005f7a <_malloc_r+0x1e>
 8005fb0:	680b      	ldr	r3, [r1, #0]
 8005fb2:	1b5b      	subs	r3, r3, r5
 8005fb4:	d418      	bmi.n	8005fe8 <_malloc_r+0x8c>
 8005fb6:	2b0b      	cmp	r3, #11
 8005fb8:	d90f      	bls.n	8005fda <_malloc_r+0x7e>
 8005fba:	600b      	str	r3, [r1, #0]
 8005fbc:	50cd      	str	r5, [r1, r3]
 8005fbe:	18cc      	adds	r4, r1, r3
 8005fc0:	4630      	mov	r0, r6
 8005fc2:	f000 fb98 	bl	80066f6 <__malloc_unlock>
 8005fc6:	f104 000b 	add.w	r0, r4, #11
 8005fca:	1d23      	adds	r3, r4, #4
 8005fcc:	f020 0007 	bic.w	r0, r0, #7
 8005fd0:	1ac3      	subs	r3, r0, r3
 8005fd2:	d0d3      	beq.n	8005f7c <_malloc_r+0x20>
 8005fd4:	425a      	negs	r2, r3
 8005fd6:	50e2      	str	r2, [r4, r3]
 8005fd8:	e7d0      	b.n	8005f7c <_malloc_r+0x20>
 8005fda:	428c      	cmp	r4, r1
 8005fdc:	684b      	ldr	r3, [r1, #4]
 8005fde:	bf16      	itet	ne
 8005fe0:	6063      	strne	r3, [r4, #4]
 8005fe2:	6013      	streq	r3, [r2, #0]
 8005fe4:	460c      	movne	r4, r1
 8005fe6:	e7eb      	b.n	8005fc0 <_malloc_r+0x64>
 8005fe8:	460c      	mov	r4, r1
 8005fea:	6849      	ldr	r1, [r1, #4]
 8005fec:	e7cc      	b.n	8005f88 <_malloc_r+0x2c>
 8005fee:	1cc4      	adds	r4, r0, #3
 8005ff0:	f024 0403 	bic.w	r4, r4, #3
 8005ff4:	42a0      	cmp	r0, r4
 8005ff6:	d005      	beq.n	8006004 <_malloc_r+0xa8>
 8005ff8:	1a21      	subs	r1, r4, r0
 8005ffa:	4630      	mov	r0, r6
 8005ffc:	f000 fad0 	bl	80065a0 <_sbrk_r>
 8006000:	3001      	adds	r0, #1
 8006002:	d0cf      	beq.n	8005fa4 <_malloc_r+0x48>
 8006004:	6025      	str	r5, [r4, #0]
 8006006:	e7db      	b.n	8005fc0 <_malloc_r+0x64>
 8006008:	20000684 	.word	0x20000684
 800600c:	20000688 	.word	0x20000688

08006010 <__sfputc_r>:
 8006010:	6893      	ldr	r3, [r2, #8]
 8006012:	3b01      	subs	r3, #1
 8006014:	2b00      	cmp	r3, #0
 8006016:	b410      	push	{r4}
 8006018:	6093      	str	r3, [r2, #8]
 800601a:	da08      	bge.n	800602e <__sfputc_r+0x1e>
 800601c:	6994      	ldr	r4, [r2, #24]
 800601e:	42a3      	cmp	r3, r4
 8006020:	db01      	blt.n	8006026 <__sfputc_r+0x16>
 8006022:	290a      	cmp	r1, #10
 8006024:	d103      	bne.n	800602e <__sfputc_r+0x1e>
 8006026:	f85d 4b04 	ldr.w	r4, [sp], #4
 800602a:	f7ff bcab 	b.w	8005984 <__swbuf_r>
 800602e:	6813      	ldr	r3, [r2, #0]
 8006030:	1c58      	adds	r0, r3, #1
 8006032:	6010      	str	r0, [r2, #0]
 8006034:	7019      	strb	r1, [r3, #0]
 8006036:	4608      	mov	r0, r1
 8006038:	f85d 4b04 	ldr.w	r4, [sp], #4
 800603c:	4770      	bx	lr

0800603e <__sfputs_r>:
 800603e:	b5f8      	push	{r3, r4, r5, r6, r7, lr}
 8006040:	4606      	mov	r6, r0
 8006042:	460f      	mov	r7, r1
 8006044:	4614      	mov	r4, r2
 8006046:	18d5      	adds	r5, r2, r3
 8006048:	42ac      	cmp	r4, r5
 800604a:	d101      	bne.n	8006050 <__sfputs_r+0x12>
 800604c:	2000      	movs	r0, #0
 800604e:	e007      	b.n	8006060 <__sfputs_r+0x22>
 8006050:	463a      	mov	r2, r7
 8006052:	f814 1b01 	ldrb.w	r1, [r4], #1
 8006056:	4630      	mov	r0, r6
 8006058:	f7ff ffda 	bl	8006010 <__sfputc_r>
 800605c:	1c43      	adds	r3, r0, #1
 800605e:	d1f3      	bne.n	8006048 <__sfputs_r+0xa>
 8006060:	bdf8      	pop	{r3, r4, r5, r6, r7, pc}
	...

08006064 <_vfiprintf_r>:
 8006064:	e92d 4ff0 	stmdb	sp!, {r4, r5, r6, r7, r8, r9, sl, fp, lr}
 8006068:	460c      	mov	r4, r1
 800606a:	b09d      	sub	sp, #116	; 0x74
 800606c:	4617      	mov	r7, r2
 800606e:	461d      	mov	r5, r3
 8006070:	4606      	mov	r6, r0
 8006072:	b118      	cbz	r0, 800607c <_vfiprintf_r+0x18>
 8006074:	6983      	ldr	r3, [r0, #24]
 8006076:	b90b      	cbnz	r3, 800607c <_vfiprintf_r+0x18>
 8006078:	f7ff fe34 	bl	8005ce4 <__sinit>
 800607c:	4b7c      	ldr	r3, [pc, #496]	; (8006270 <_vfiprintf_r+0x20c>)
 800607e:	429c      	cmp	r4, r3
 8006080:	d158      	bne.n	8006134 <_vfiprintf_r+0xd0>
 8006082:	6874      	ldr	r4, [r6, #4]
 8006084:	89a3      	ldrh	r3, [r4, #12]
 8006086:	0718      	lsls	r0, r3, #28
 8006088:	d55e      	bpl.n	8006148 <_vfiprintf_r+0xe4>
 800608a:	6923      	ldr	r3, [r4, #16]
 800608c:	2b00      	cmp	r3, #0
 800608e:	d05b      	beq.n	8006148 <_vfiprintf_r+0xe4>
 8006090:	2300      	movs	r3, #0
 8006092:	9309      	str	r3, [sp, #36]	; 0x24
 8006094:	2320      	movs	r3, #32
 8006096:	f88d 3029 	strb.w	r3, [sp, #41]	; 0x29
 800609a:	2330      	movs	r3, #48	; 0x30
 800609c:	f88d 302a 	strb.w	r3, [sp, #42]	; 0x2a
 80060a0:	9503      	str	r5, [sp, #12]
 80060a2:	f04f 0b01 	mov.w	fp, #1
 80060a6:	46b8      	mov	r8, r7
 80060a8:	4645      	mov	r5, r8
 80060aa:	f815 3b01 	ldrb.w	r3, [r5], #1
 80060ae:	b10b      	cbz	r3, 80060b4 <_vfiprintf_r+0x50>
 80060b0:	2b25      	cmp	r3, #37	; 0x25
 80060b2:	d154      	bne.n	800615e <_vfiprintf_r+0xfa>
 80060b4:	ebb8 0a07 	subs.w	sl, r8, r7
 80060b8:	d00b      	beq.n	80060d2 <_vfiprintf_r+0x6e>
 80060ba:	4653      	mov	r3, sl
 80060bc:	463a      	mov	r2, r7
 80060be:	4621      	mov	r1, r4
 80060c0:	4630      	mov	r0, r6
 80060c2:	f7ff ffbc 	bl	800603e <__sfputs_r>
 80060c6:	3001      	adds	r0, #1
 80060c8:	f000 80c2 	beq.w	8006250 <_vfiprintf_r+0x1ec>
 80060cc:	9b09      	ldr	r3, [sp, #36]	; 0x24
 80060ce:	4453      	add	r3, sl
 80060d0:	9309      	str	r3, [sp, #36]	; 0x24
 80060d2:	f898 3000 	ldrb.w	r3, [r8]
 80060d6:	2b00      	cmp	r3, #0
 80060d8:	f000 80ba 	beq.w	8006250 <_vfiprintf_r+0x1ec>
 80060dc:	2300      	movs	r3, #0
 80060de:	f04f 32ff 	mov.w	r2, #4294967295
 80060e2:	e9cd 2305 	strd	r2, r3, [sp, #20]
 80060e6:	9304      	str	r3, [sp, #16]
 80060e8:	9307      	str	r3, [sp, #28]
 80060ea:	f88d 3053 	strb.w	r3, [sp, #83]	; 0x53
 80060ee:	931a      	str	r3, [sp, #104]	; 0x68
 80060f0:	46a8      	mov	r8, r5
 80060f2:	2205      	movs	r2, #5
 80060f4:	f818 1b01 	ldrb.w	r1, [r8], #1
 80060f8:	485e      	ldr	r0, [pc, #376]	; (8006274 <_vfiprintf_r+0x210>)
 80060fa:	f7fa f869 	bl	80001d0 <memchr>
 80060fe:	9b04      	ldr	r3, [sp, #16]
 8006100:	bb78      	cbnz	r0, 8006162 <_vfiprintf_r+0xfe>
 8006102:	06d9      	lsls	r1, r3, #27
 8006104:	bf44      	itt	mi
 8006106:	2220      	movmi	r2, #32
 8006108:	f88d 2053 	strbmi.w	r2, [sp, #83]	; 0x53
 800610c:	071a      	lsls	r2, r3, #28
 800610e:	bf44      	itt	mi
 8006110:	222b      	movmi	r2, #43	; 0x2b
 8006112:	f88d 2053 	strbmi.w	r2, [sp, #83]	; 0x53
 8006116:	782a      	ldrb	r2, [r5, #0]
 8006118:	2a2a      	cmp	r2, #42	; 0x2a
 800611a:	d02a      	beq.n	8006172 <_vfiprintf_r+0x10e>
 800611c:	9a07      	ldr	r2, [sp, #28]
 800611e:	46a8      	mov	r8, r5
 8006120:	2000      	movs	r0, #0
 8006122:	250a      	movs	r5, #10
 8006124:	4641      	mov	r1, r8
 8006126:	f811 3b01 	ldrb.w	r3, [r1], #1
 800612a:	3b30      	subs	r3, #48	; 0x30
 800612c:	2b09      	cmp	r3, #9
 800612e:	d969      	bls.n	8006204 <_vfiprintf_r+0x1a0>
 8006130:	b360      	cbz	r0, 800618c <_vfiprintf_r+0x128>
 8006132:	e024      	b.n	800617e <_vfiprintf_r+0x11a>
 8006134:	4b50      	ldr	r3, [pc, #320]	; (8006278 <_vfiprintf_r+0x214>)
 8006136:	429c      	cmp	r4, r3
 8006138:	d101      	bne.n	800613e <_vfiprintf_r+0xda>
 800613a:	68b4      	ldr	r4, [r6, #8]
 800613c:	e7a2      	b.n	8006084 <_vfiprintf_r+0x20>
 800613e:	4b4f      	ldr	r3, [pc, #316]	; (800627c <_vfiprintf_r+0x218>)
 8006140:	429c      	cmp	r4, r3
 8006142:	bf08      	it	eq
 8006144:	68f4      	ldreq	r4, [r6, #12]
 8006146:	e79d      	b.n	8006084 <_vfiprintf_r+0x20>
 8006148:	4621      	mov	r1, r4
 800614a:	4630      	mov	r0, r6
 800614c:	f7ff fc6c 	bl	8005a28 <__swsetup_r>
 8006150:	2800      	cmp	r0, #0
 8006152:	d09d      	beq.n	8006090 <_vfiprintf_r+0x2c>
 8006154:	f04f 30ff 	mov.w	r0, #4294967295
 8006158:	b01d      	add	sp, #116	; 0x74
 800615a:	e8bd 8ff0 	ldmia.w	sp!, {r4, r5, r6, r7, r8, r9, sl, fp, pc}
 800615e:	46a8      	mov	r8, r5
 8006160:	e7a2      	b.n	80060a8 <_vfiprintf_r+0x44>
 8006162:	4a44      	ldr	r2, [pc, #272]	; (8006274 <_vfiprintf_r+0x210>)
 8006164:	1a80      	subs	r0, r0, r2
 8006166:	fa0b f000 	lsl.w	r0, fp, r0
 800616a:	4318      	orrs	r0, r3
 800616c:	9004      	str	r0, [sp, #16]
 800616e:	4645      	mov	r5, r8
 8006170:	e7be      	b.n	80060f0 <_vfiprintf_r+0x8c>
 8006172:	9a03      	ldr	r2, [sp, #12]
 8006174:	1d11      	adds	r1, r2, #4
 8006176:	6812      	ldr	r2, [r2, #0]
 8006178:	9103      	str	r1, [sp, #12]
 800617a:	2a00      	cmp	r2, #0
 800617c:	db01      	blt.n	8006182 <_vfiprintf_r+0x11e>
 800617e:	9207      	str	r2, [sp, #28]
 8006180:	e004      	b.n	800618c <_vfiprintf_r+0x128>
 8006182:	4252      	negs	r2, r2
 8006184:	f043 0302 	orr.w	r3, r3, #2
 8006188:	9207      	str	r2, [sp, #28]
 800618a:	9304      	str	r3, [sp, #16]
 800618c:	f898 3000 	ldrb.w	r3, [r8]
 8006190:	2b2e      	cmp	r3, #46	; 0x2e
 8006192:	d10e      	bne.n	80061b2 <_vfiprintf_r+0x14e>
 8006194:	f898 3001 	ldrb.w	r3, [r8, #1]
 8006198:	2b2a      	cmp	r3, #42	; 0x2a
 800619a:	d138      	bne.n	800620e <_vfiprintf_r+0x1aa>
 800619c:	9b03      	ldr	r3, [sp, #12]
 800619e:	1d1a      	adds	r2, r3, #4
 80061a0:	681b      	ldr	r3, [r3, #0]
 80061a2:	9203      	str	r2, [sp, #12]
 80061a4:	2b00      	cmp	r3, #0
 80061a6:	bfb8      	it	lt
 80061a8:	f04f 33ff 	movlt.w	r3, #4294967295
 80061ac:	f108 0802 	add.w	r8, r8, #2
 80061b0:	9305      	str	r3, [sp, #20]
 80061b2:	4d33      	ldr	r5, [pc, #204]	; (8006280 <_vfiprintf_r+0x21c>)
 80061b4:	f898 1000 	ldrb.w	r1, [r8]
 80061b8:	2203      	movs	r2, #3
 80061ba:	4628      	mov	r0, r5
 80061bc:	f7fa f808 	bl	80001d0 <memchr>
 80061c0:	b140      	cbz	r0, 80061d4 <_vfiprintf_r+0x170>
 80061c2:	2340      	movs	r3, #64	; 0x40
 80061c4:	1b40      	subs	r0, r0, r5
 80061c6:	fa03 f000 	lsl.w	r0, r3, r0
 80061ca:	9b04      	ldr	r3, [sp, #16]
 80061cc:	4303      	orrs	r3, r0
 80061ce:	f108 0801 	add.w	r8, r8, #1
 80061d2:	9304      	str	r3, [sp, #16]
 80061d4:	f898 1000 	ldrb.w	r1, [r8]
 80061d8:	482a      	ldr	r0, [pc, #168]	; (8006284 <_vfiprintf_r+0x220>)
 80061da:	f88d 1028 	strb.w	r1, [sp, #40]	; 0x28
 80061de:	2206      	movs	r2, #6
 80061e0:	f108 0701 	add.w	r7, r8, #1
 80061e4:	f7f9 fff4 	bl	80001d0 <memchr>
 80061e8:	2800      	cmp	r0, #0
 80061ea:	d037      	beq.n	800625c <_vfiprintf_r+0x1f8>
 80061ec:	4b26      	ldr	r3, [pc, #152]	; (8006288 <_vfiprintf_r+0x224>)
 80061ee:	bb1b      	cbnz	r3, 8006238 <_vfiprintf_r+0x1d4>
 80061f0:	9b03      	ldr	r3, [sp, #12]
 80061f2:	3307      	adds	r3, #7
 80061f4:	f023 0307 	bic.w	r3, r3, #7
 80061f8:	3308      	adds	r3, #8
 80061fa:	9303      	str	r3, [sp, #12]
 80061fc:	9b09      	ldr	r3, [sp, #36]	; 0x24
 80061fe:	444b      	add	r3, r9
 8006200:	9309      	str	r3, [sp, #36]	; 0x24
 8006202:	e750      	b.n	80060a6 <_vfiprintf_r+0x42>
 8006204:	fb05 3202 	mla	r2, r5, r2, r3
 8006208:	2001      	movs	r0, #1
 800620a:	4688      	mov	r8, r1
 800620c:	e78a      	b.n	8006124 <_vfiprintf_r+0xc0>
 800620e:	2300      	movs	r3, #0
 8006210:	f108 0801 	add.w	r8, r8, #1
 8006214:	9305      	str	r3, [sp, #20]
 8006216:	4619      	mov	r1, r3
 8006218:	250a      	movs	r5, #10
 800621a:	4640      	mov	r0, r8
 800621c:	f810 2b01 	ldrb.w	r2, [r0], #1
 8006220:	3a30      	subs	r2, #48	; 0x30
 8006222:	2a09      	cmp	r2, #9
 8006224:	d903      	bls.n	800622e <_vfiprintf_r+0x1ca>
 8006226:	2b00      	cmp	r3, #0
 8006228:	d0c3      	beq.n	80061b2 <_vfiprintf_r+0x14e>
 800622a:	9105      	str	r1, [sp, #20]
 800622c:	e7c1      	b.n	80061b2 <_vfiprintf_r+0x14e>
 800622e:	fb05 2101 	mla	r1, r5, r1, r2
 8006232:	2301      	movs	r3, #1
 8006234:	4680      	mov	r8, r0
 8006236:	e7f0      	b.n	800621a <_vfiprintf_r+0x1b6>
 8006238:	ab03      	add	r3, sp, #12
 800623a:	9300      	str	r3, [sp, #0]
 800623c:	4622      	mov	r2, r4
 800623e:	4b13      	ldr	r3, [pc, #76]	; (800628c <_vfiprintf_r+0x228>)
 8006240:	a904      	add	r1, sp, #16
 8006242:	4630      	mov	r0, r6
 8006244:	f3af 8000 	nop.w
 8006248:	f1b0 3fff 	cmp.w	r0, #4294967295
 800624c:	4681      	mov	r9, r0
 800624e:	d1d5      	bne.n	80061fc <_vfiprintf_r+0x198>
 8006250:	89a3      	ldrh	r3, [r4, #12]
 8006252:	065b      	lsls	r3, r3, #25
 8006254:	f53f af7e 	bmi.w	8006154 <_vfiprintf_r+0xf0>
 8006258:	9809      	ldr	r0, [sp, #36]	; 0x24
 800625a:	e77d      	b.n	8006158 <_vfiprintf_r+0xf4>
 800625c:	ab03      	add	r3, sp, #12
 800625e:	9300      	str	r3, [sp, #0]
 8006260:	4622      	mov	r2, r4
 8006262:	4b0a      	ldr	r3, [pc, #40]	; (800628c <_vfiprintf_r+0x228>)
 8006264:	a904      	add	r1, sp, #16
 8006266:	4630      	mov	r0, r6
 8006268:	f000 f888 	bl	800637c <_printf_i>
 800626c:	e7ec      	b.n	8006248 <_vfiprintf_r+0x1e4>
 800626e:	bf00      	nop
 8006270:	080076b4 	.word	0x080076b4
 8006274:	080076f4 	.word	0x080076f4
 8006278:	080076d4 	.word	0x080076d4
 800627c:	08007694 	.word	0x08007694
 8006280:	080076fa 	.word	0x080076fa
 8006284:	080076fe 	.word	0x080076fe
 8006288:	00000000 	.word	0x00000000
 800628c:	0800603f 	.word	0x0800603f

08006290 <_printf_common>:
 8006290:	e92d 47f0 	stmdb	sp!, {r4, r5, r6, r7, r8, r9, sl, lr}
 8006294:	4691      	mov	r9, r2
 8006296:	461f      	mov	r7, r3
 8006298:	688a      	ldr	r2, [r1, #8]
 800629a:	690b      	ldr	r3, [r1, #16]
 800629c:	f8dd 8020 	ldr.w	r8, [sp, #32]
 80062a0:	4293      	cmp	r3, r2
 80062a2:	bfb8      	it	lt
 80062a4:	4613      	movlt	r3, r2
 80062a6:	f8c9 3000 	str.w	r3, [r9]
 80062aa:	f891 2043 	ldrb.w	r2, [r1, #67]	; 0x43
 80062ae:	4606      	mov	r6, r0
 80062b0:	460c      	mov	r4, r1
 80062b2:	b112      	cbz	r2, 80062ba <_printf_common+0x2a>
 80062b4:	3301      	adds	r3, #1
 80062b6:	f8c9 3000 	str.w	r3, [r9]
 80062ba:	6823      	ldr	r3, [r4, #0]
 80062bc:	0699      	lsls	r1, r3, #26
 80062be:	bf42      	ittt	mi
 80062c0:	f8d9 3000 	ldrmi.w	r3, [r9]
 80062c4:	3302      	addmi	r3, #2
 80062c6:	f8c9 3000 	strmi.w	r3, [r9]
 80062ca:	6825      	ldr	r5, [r4, #0]
 80062cc:	f015 0506 	ands.w	r5, r5, #6
 80062d0:	d107      	bne.n	80062e2 <_printf_common+0x52>
 80062d2:	f104 0a19 	add.w	sl, r4, #25
 80062d6:	68e3      	ldr	r3, [r4, #12]
 80062d8:	f8d9 2000 	ldr.w	r2, [r9]
 80062dc:	1a9b      	subs	r3, r3, r2
 80062de:	42ab      	cmp	r3, r5
 80062e0:	dc28      	bgt.n	8006334 <_printf_common+0xa4>
 80062e2:	f894 3043 	ldrb.w	r3, [r4, #67]	; 0x43
 80062e6:	6822      	ldr	r2, [r4, #0]
 80062e8:	3300      	adds	r3, #0
 80062ea:	bf18      	it	ne
 80062ec:	2301      	movne	r3, #1
 80062ee:	0692      	lsls	r2, r2, #26
 80062f0:	d42d      	bmi.n	800634e <_printf_common+0xbe>
 80062f2:	f104 0243 	add.w	r2, r4, #67	; 0x43
 80062f6:	4639      	mov	r1, r7
 80062f8:	4630      	mov	r0, r6
 80062fa:	47c0      	blx	r8
 80062fc:	3001      	adds	r0, #1
 80062fe:	d020      	beq.n	8006342 <_printf_common+0xb2>
 8006300:	6823      	ldr	r3, [r4, #0]
 8006302:	68e5      	ldr	r5, [r4, #12]
 8006304:	f8d9 2000 	ldr.w	r2, [r9]
 8006308:	f003 0306 	and.w	r3, r3, #6
 800630c:	2b04      	cmp	r3, #4
 800630e:	bf08      	it	eq
 8006310:	1aad      	subeq	r5, r5, r2
 8006312:	68a3      	ldr	r3, [r4, #8]
 8006314:	6922      	ldr	r2, [r4, #16]
 8006316:	bf0c      	ite	eq
 8006318:	ea25 75e5 	biceq.w	r5, r5, r5, asr #31
 800631c:	2500      	movne	r5, #0
 800631e:	4293      	cmp	r3, r2
 8006320:	bfc4      	itt	gt
 8006322:	1a9b      	subgt	r3, r3, r2
 8006324:	18ed      	addgt	r5, r5, r3
 8006326:	f04f 0900 	mov.w	r9, #0
 800632a:	341a      	adds	r4, #26
 800632c:	454d      	cmp	r5, r9
 800632e:	d11a      	bne.n	8006366 <_printf_common+0xd6>
 8006330:	2000      	movs	r0, #0
 8006332:	e008      	b.n	8006346 <_printf_common+0xb6>
 8006334:	2301      	movs	r3, #1
 8006336:	4652      	mov	r2, sl
 8006338:	4639      	mov	r1, r7
 800633a:	4630      	mov	r0, r6
 800633c:	47c0      	blx	r8
 800633e:	3001      	adds	r0, #1
 8006340:	d103      	bne.n	800634a <_printf_common+0xba>
 8006342:	f04f 30ff 	mov.w	r0, #4294967295
 8006346:	e8bd 87f0 	ldmia.w	sp!, {r4, r5, r6, r7, r8, r9, sl, pc}
 800634a:	3501      	adds	r5, #1
 800634c:	e7c3      	b.n	80062d6 <_printf_common+0x46>
 800634e:	18e1      	adds	r1, r4, r3
 8006350:	1c5a      	adds	r2, r3, #1
 8006352:	2030      	movs	r0, #48	; 0x30
 8006354:	f881 0043 	strb.w	r0, [r1, #67]	; 0x43
 8006358:	4422      	add	r2, r4
 800635a:	f894 1045 	ldrb.w	r1, [r4, #69]	; 0x45
 800635e:	f882 1043 	strb.w	r1, [r2, #67]	; 0x43
 8006362:	3302      	adds	r3, #2
 8006364:	e7c5      	b.n	80062f2 <_printf_common+0x62>
 8006366:	2301      	movs	r3, #1
 8006368:	4622      	mov	r2, r4
 800636a:	4639      	mov	r1, r7
 800636c:	4630      	mov	r0, r6
 800636e:	47c0      	blx	r8
 8006370:	3001      	adds	r0, #1
 8006372:	d0e6      	beq.n	8006342 <_printf_common+0xb2>
 8006374:	f109 0901 	add.w	r9, r9, #1
 8006378:	e7d8      	b.n	800632c <_printf_common+0x9c>
	...

0800637c <_printf_i>:
 800637c:	e92d 43f0 	stmdb	sp!, {r4, r5, r6, r7, r8, r9, lr}
 8006380:	f101 0c43 	add.w	ip, r1, #67	; 0x43
 8006384:	460c      	mov	r4, r1
 8006386:	7e09      	ldrb	r1, [r1, #24]
 8006388:	b085      	sub	sp, #20
 800638a:	296e      	cmp	r1, #110	; 0x6e
 800638c:	4617      	mov	r7, r2
 800638e:	4606      	mov	r6, r0
 8006390:	4698      	mov	r8, r3
 8006392:	9a0c      	ldr	r2, [sp, #48]	; 0x30
 8006394:	f000 80b3 	beq.w	80064fe <_printf_i+0x182>
 8006398:	d822      	bhi.n	80063e0 <_printf_i+0x64>
 800639a:	2963      	cmp	r1, #99	; 0x63
 800639c:	d036      	beq.n	800640c <_printf_i+0x90>
 800639e:	d80a      	bhi.n	80063b6 <_printf_i+0x3a>
 80063a0:	2900      	cmp	r1, #0
 80063a2:	f000 80b9 	beq.w	8006518 <_printf_i+0x19c>
 80063a6:	2958      	cmp	r1, #88	; 0x58
 80063a8:	f000 8083 	beq.w	80064b2 <_printf_i+0x136>
 80063ac:	f104 0542 	add.w	r5, r4, #66	; 0x42
 80063b0:	f884 1042 	strb.w	r1, [r4, #66]	; 0x42
 80063b4:	e032      	b.n	800641c <_printf_i+0xa0>
 80063b6:	2964      	cmp	r1, #100	; 0x64
 80063b8:	d001      	beq.n	80063be <_printf_i+0x42>
 80063ba:	2969      	cmp	r1, #105	; 0x69
 80063bc:	d1f6      	bne.n	80063ac <_printf_i+0x30>
 80063be:	6820      	ldr	r0, [r4, #0]
 80063c0:	6813      	ldr	r3, [r2, #0]
 80063c2:	0605      	lsls	r5, r0, #24
 80063c4:	f103 0104 	add.w	r1, r3, #4
 80063c8:	d52a      	bpl.n	8006420 <_printf_i+0xa4>
 80063ca:	681b      	ldr	r3, [r3, #0]
 80063cc:	6011      	str	r1, [r2, #0]
 80063ce:	2b00      	cmp	r3, #0
 80063d0:	da03      	bge.n	80063da <_printf_i+0x5e>
 80063d2:	222d      	movs	r2, #45	; 0x2d
 80063d4:	425b      	negs	r3, r3
 80063d6:	f884 2043 	strb.w	r2, [r4, #67]	; 0x43
 80063da:	486f      	ldr	r0, [pc, #444]	; (8006598 <_printf_i+0x21c>)
 80063dc:	220a      	movs	r2, #10
 80063de:	e039      	b.n	8006454 <_printf_i+0xd8>
 80063e0:	2973      	cmp	r1, #115	; 0x73
 80063e2:	f000 809d 	beq.w	8006520 <_printf_i+0x1a4>
 80063e6:	d808      	bhi.n	80063fa <_printf_i+0x7e>
 80063e8:	296f      	cmp	r1, #111	; 0x6f
 80063ea:	d020      	beq.n	800642e <_printf_i+0xb2>
 80063ec:	2970      	cmp	r1, #112	; 0x70
 80063ee:	d1dd      	bne.n	80063ac <_printf_i+0x30>
 80063f0:	6823      	ldr	r3, [r4, #0]
 80063f2:	f043 0320 	orr.w	r3, r3, #32
 80063f6:	6023      	str	r3, [r4, #0]
 80063f8:	e003      	b.n	8006402 <_printf_i+0x86>
 80063fa:	2975      	cmp	r1, #117	; 0x75
 80063fc:	d017      	beq.n	800642e <_printf_i+0xb2>
 80063fe:	2978      	cmp	r1, #120	; 0x78
 8006400:	d1d4      	bne.n	80063ac <_printf_i+0x30>
 8006402:	2378      	movs	r3, #120	; 0x78
 8006404:	f884 3045 	strb.w	r3, [r4, #69]	; 0x45
 8006408:	4864      	ldr	r0, [pc, #400]	; (800659c <_printf_i+0x220>)
 800640a:	e055      	b.n	80064b8 <_printf_i+0x13c>
 800640c:	6813      	ldr	r3, [r2, #0]
 800640e:	1d19      	adds	r1, r3, #4
 8006410:	681b      	ldr	r3, [r3, #0]
 8006412:	6011      	str	r1, [r2, #0]
 8006414:	f104 0542 	add.w	r5, r4, #66	; 0x42
 8006418:	f884 3042 	strb.w	r3, [r4, #66]	; 0x42
 800641c:	2301      	movs	r3, #1
 800641e:	e08c      	b.n	800653a <_printf_i+0x1be>
 8006420:	681b      	ldr	r3, [r3, #0]
 8006422:	6011      	str	r1, [r2, #0]
 8006424:	f010 0f40 	tst.w	r0, #64	; 0x40
 8006428:	bf18      	it	ne
 800642a:	b21b      	sxthne	r3, r3
 800642c:	e7cf      	b.n	80063ce <_printf_i+0x52>
 800642e:	6813      	ldr	r3, [r2, #0]
 8006430:	6825      	ldr	r5, [r4, #0]
 8006432:	1d18      	adds	r0, r3, #4
 8006434:	6010      	str	r0, [r2, #0]
 8006436:	0628      	lsls	r0, r5, #24
 8006438:	d501      	bpl.n	800643e <_printf_i+0xc2>
 800643a:	681b      	ldr	r3, [r3, #0]
 800643c:	e002      	b.n	8006444 <_printf_i+0xc8>
 800643e:	0668      	lsls	r0, r5, #25
 8006440:	d5fb      	bpl.n	800643a <_printf_i+0xbe>
 8006442:	881b      	ldrh	r3, [r3, #0]
 8006444:	4854      	ldr	r0, [pc, #336]	; (8006598 <_printf_i+0x21c>)
 8006446:	296f      	cmp	r1, #111	; 0x6f
 8006448:	bf14      	ite	ne
 800644a:	220a      	movne	r2, #10
 800644c:	2208      	moveq	r2, #8
 800644e:	2100      	movs	r1, #0
 8006450:	f884 1043 	strb.w	r1, [r4, #67]	; 0x43
 8006454:	6865      	ldr	r5, [r4, #4]
 8006456:	60a5      	str	r5, [r4, #8]
 8006458:	2d00      	cmp	r5, #0
 800645a:	f2c0 8095 	blt.w	8006588 <_printf_i+0x20c>
 800645e:	6821      	ldr	r1, [r4, #0]
 8006460:	f021 0104 	bic.w	r1, r1, #4
 8006464:	6021      	str	r1, [r4, #0]
 8006466:	2b00      	cmp	r3, #0
 8006468:	d13d      	bne.n	80064e6 <_printf_i+0x16a>
 800646a:	2d00      	cmp	r5, #0
 800646c:	f040 808e 	bne.w	800658c <_printf_i+0x210>
 8006470:	4665      	mov	r5, ip
 8006472:	2a08      	cmp	r2, #8
 8006474:	d10b      	bne.n	800648e <_printf_i+0x112>
 8006476:	6823      	ldr	r3, [r4, #0]
 8006478:	07db      	lsls	r3, r3, #31
 800647a:	d508      	bpl.n	800648e <_printf_i+0x112>
 800647c:	6923      	ldr	r3, [r4, #16]
 800647e:	6862      	ldr	r2, [r4, #4]
 8006480:	429a      	cmp	r2, r3
 8006482:	bfde      	ittt	le
 8006484:	2330      	movle	r3, #48	; 0x30
 8006486:	f805 3c01 	strble.w	r3, [r5, #-1]
 800648a:	f105 35ff 	addle.w	r5, r5, #4294967295
 800648e:	ebac 0305 	sub.w	r3, ip, r5
 8006492:	6123      	str	r3, [r4, #16]
 8006494:	f8cd 8000 	str.w	r8, [sp]
 8006498:	463b      	mov	r3, r7
 800649a:	aa03      	add	r2, sp, #12
 800649c:	4621      	mov	r1, r4
 800649e:	4630      	mov	r0, r6
 80064a0:	f7ff fef6 	bl	8006290 <_printf_common>
 80064a4:	3001      	adds	r0, #1
 80064a6:	d14d      	bne.n	8006544 <_printf_i+0x1c8>
 80064a8:	f04f 30ff 	mov.w	r0, #4294967295
 80064ac:	b005      	add	sp, #20
 80064ae:	e8bd 83f0 	ldmia.w	sp!, {r4, r5, r6, r7, r8, r9, pc}
 80064b2:	4839      	ldr	r0, [pc, #228]	; (8006598 <_printf_i+0x21c>)
 80064b4:	f884 1045 	strb.w	r1, [r4, #69]	; 0x45
 80064b8:	6813      	ldr	r3, [r2, #0]
 80064ba:	6821      	ldr	r1, [r4, #0]
 80064bc:	1d1d      	adds	r5, r3, #4
 80064be:	681b      	ldr	r3, [r3, #0]
 80064c0:	6015      	str	r5, [r2, #0]
 80064c2:	060a      	lsls	r2, r1, #24
 80064c4:	d50b      	bpl.n	80064de <_printf_i+0x162>
 80064c6:	07ca      	lsls	r2, r1, #31
 80064c8:	bf44      	itt	mi
 80064ca:	f041 0120 	orrmi.w	r1, r1, #32
 80064ce:	6021      	strmi	r1, [r4, #0]
 80064d0:	b91b      	cbnz	r3, 80064da <_printf_i+0x15e>
 80064d2:	6822      	ldr	r2, [r4, #0]
 80064d4:	f022 0220 	bic.w	r2, r2, #32
 80064d8:	6022      	str	r2, [r4, #0]
 80064da:	2210      	movs	r2, #16
 80064dc:	e7b7      	b.n	800644e <_printf_i+0xd2>
 80064de:	064d      	lsls	r5, r1, #25
 80064e0:	bf48      	it	mi
 80064e2:	b29b      	uxthmi	r3, r3
 80064e4:	e7ef      	b.n	80064c6 <_printf_i+0x14a>
 80064e6:	4665      	mov	r5, ip
 80064e8:	fbb3 f1f2 	udiv	r1, r3, r2
 80064ec:	fb02 3311 	mls	r3, r2, r1, r3
 80064f0:	5cc3      	ldrb	r3, [r0, r3]
 80064f2:	f805 3d01 	strb.w	r3, [r5, #-1]!
 80064f6:	460b      	mov	r3, r1
 80064f8:	2900      	cmp	r1, #0
 80064fa:	d1f5      	bne.n	80064e8 <_printf_i+0x16c>
 80064fc:	e7b9      	b.n	8006472 <_printf_i+0xf6>
 80064fe:	6813      	ldr	r3, [r2, #0]
 8006500:	6825      	ldr	r5, [r4, #0]
 8006502:	6961      	ldr	r1, [r4, #20]
 8006504:	1d18      	adds	r0, r3, #4
 8006506:	6010      	str	r0, [r2, #0]
 8006508:	0628      	lsls	r0, r5, #24
 800650a:	681b      	ldr	r3, [r3, #0]
 800650c:	d501      	bpl.n	8006512 <_printf_i+0x196>
 800650e:	6019      	str	r1, [r3, #0]
 8006510:	e002      	b.n	8006518 <_printf_i+0x19c>
 8006512:	066a      	lsls	r2, r5, #25
 8006514:	d5fb      	bpl.n	800650e <_printf_i+0x192>
 8006516:	8019      	strh	r1, [r3, #0]
 8006518:	2300      	movs	r3, #0
 800651a:	6123      	str	r3, [r4, #16]
 800651c:	4665      	mov	r5, ip
 800651e:	e7b9      	b.n	8006494 <_printf_i+0x118>
 8006520:	6813      	ldr	r3, [r2, #0]
 8006522:	1d19      	adds	r1, r3, #4
 8006524:	6011      	str	r1, [r2, #0]
 8006526:	681d      	ldr	r5, [r3, #0]
 8006528:	6862      	ldr	r2, [r4, #4]
 800652a:	2100      	movs	r1, #0
 800652c:	4628      	mov	r0, r5
 800652e:	f7f9 fe4f 	bl	80001d0 <memchr>
 8006532:	b108      	cbz	r0, 8006538 <_printf_i+0x1bc>
 8006534:	1b40      	subs	r0, r0, r5
 8006536:	6060      	str	r0, [r4, #4]
 8006538:	6863      	ldr	r3, [r4, #4]
 800653a:	6123      	str	r3, [r4, #16]
 800653c:	2300      	movs	r3, #0
 800653e:	f884 3043 	strb.w	r3, [r4, #67]	; 0x43
 8006542:	e7a7      	b.n	8006494 <_printf_i+0x118>
 8006544:	6923      	ldr	r3, [r4, #16]
 8006546:	462a      	mov	r2, r5
 8006548:	4639      	mov	r1, r7
 800654a:	4630      	mov	r0, r6
 800654c:	47c0      	blx	r8
 800654e:	3001      	adds	r0, #1
 8006550:	d0aa      	beq.n	80064a8 <_printf_i+0x12c>
 8006552:	6823      	ldr	r3, [r4, #0]
 8006554:	079b      	lsls	r3, r3, #30
 8006556:	d413      	bmi.n	8006580 <_printf_i+0x204>
 8006558:	68e0      	ldr	r0, [r4, #12]
 800655a:	9b03      	ldr	r3, [sp, #12]
 800655c:	4298      	cmp	r0, r3
 800655e:	bfb8      	it	lt
 8006560:	4618      	movlt	r0, r3
 8006562:	e7a3      	b.n	80064ac <_printf_i+0x130>
 8006564:	2301      	movs	r3, #1
 8006566:	464a      	mov	r2, r9
 8006568:	4639      	mov	r1, r7
 800656a:	4630      	mov	r0, r6
 800656c:	47c0      	blx	r8
 800656e:	3001      	adds	r0, #1
 8006570:	d09a      	beq.n	80064a8 <_printf_i+0x12c>
 8006572:	3501      	adds	r5, #1
 8006574:	68e3      	ldr	r3, [r4, #12]
 8006576:	9a03      	ldr	r2, [sp, #12]
 8006578:	1a9b      	subs	r3, r3, r2
 800657a:	42ab      	cmp	r3, r5
 800657c:	dcf2      	bgt.n	8006564 <_printf_i+0x1e8>
 800657e:	e7eb      	b.n	8006558 <_printf_i+0x1dc>
 8006580:	2500      	movs	r5, #0
 8006582:	f104 0919 	add.w	r9, r4, #25
 8006586:	e7f5      	b.n	8006574 <_printf_i+0x1f8>
 8006588:	2b00      	cmp	r3, #0
 800658a:	d1ac      	bne.n	80064e6 <_printf_i+0x16a>
 800658c:	7803      	ldrb	r3, [r0, #0]
 800658e:	f884 3042 	strb.w	r3, [r4, #66]	; 0x42
 8006592:	f104 0542 	add.w	r5, r4, #66	; 0x42
 8006596:	e76c      	b.n	8006472 <_printf_i+0xf6>
 8006598:	08007705 	.word	0x08007705
 800659c:	08007716 	.word	0x08007716

080065a0 <_sbrk_r>:
 80065a0:	b538      	push	{r3, r4, r5, lr}
 80065a2:	4c06      	ldr	r4, [pc, #24]	; (80065bc <_sbrk_r+0x1c>)
 80065a4:	2300      	movs	r3, #0
 80065a6:	4605      	mov	r5, r0
 80065a8:	4608      	mov	r0, r1
 80065aa:	6023      	str	r3, [r4, #0]
 80065ac:	f7fc fe2e 	bl	800320c <_sbrk>
 80065b0:	1c43      	adds	r3, r0, #1
 80065b2:	d102      	bne.n	80065ba <_sbrk_r+0x1a>
 80065b4:	6823      	ldr	r3, [r4, #0]
 80065b6:	b103      	cbz	r3, 80065ba <_sbrk_r+0x1a>
 80065b8:	602b      	str	r3, [r5, #0]
 80065ba:	bd38      	pop	{r3, r4, r5, pc}
 80065bc:	20000694 	.word	0x20000694

080065c0 <__sread>:
 80065c0:	b510      	push	{r4, lr}
 80065c2:	460c      	mov	r4, r1
 80065c4:	f9b1 100e 	ldrsh.w	r1, [r1, #14]
 80065c8:	f000 f896 	bl	80066f8 <_read_r>
 80065cc:	2800      	cmp	r0, #0
 80065ce:	bfab      	itete	ge
 80065d0:	6d63      	ldrge	r3, [r4, #84]	; 0x54
 80065d2:	89a3      	ldrhlt	r3, [r4, #12]
 80065d4:	181b      	addge	r3, r3, r0
 80065d6:	f423 5380 	biclt.w	r3, r3, #4096	; 0x1000
 80065da:	bfac      	ite	ge
 80065dc:	6563      	strge	r3, [r4, #84]	; 0x54
 80065de:	81a3      	strhlt	r3, [r4, #12]
 80065e0:	bd10      	pop	{r4, pc}

080065e2 <__swrite>:
 80065e2:	e92d 41f0 	stmdb	sp!, {r4, r5, r6, r7, r8, lr}
 80065e6:	461f      	mov	r7, r3
 80065e8:	898b      	ldrh	r3, [r1, #12]
 80065ea:	05db      	lsls	r3, r3, #23
 80065ec:	4605      	mov	r5, r0
 80065ee:	460c      	mov	r4, r1
 80065f0:	4616      	mov	r6, r2
 80065f2:	d505      	bpl.n	8006600 <__swrite+0x1e>
 80065f4:	2302      	movs	r3, #2
 80065f6:	2200      	movs	r2, #0
 80065f8:	f9b1 100e 	ldrsh.w	r1, [r1, #14]
 80065fc:	f000 f868 	bl	80066d0 <_lseek_r>
 8006600:	89a3      	ldrh	r3, [r4, #12]
 8006602:	f9b4 100e 	ldrsh.w	r1, [r4, #14]
 8006606:	f423 5380 	bic.w	r3, r3, #4096	; 0x1000
 800660a:	81a3      	strh	r3, [r4, #12]
 800660c:	4632      	mov	r2, r6
 800660e:	463b      	mov	r3, r7
 8006610:	4628      	mov	r0, r5
 8006612:	e8bd 41f0 	ldmia.w	sp!, {r4, r5, r6, r7, r8, lr}
 8006616:	f000 b817 	b.w	8006648 <_write_r>

0800661a <__sseek>:
 800661a:	b510      	push	{r4, lr}
 800661c:	460c      	mov	r4, r1
 800661e:	f9b1 100e 	ldrsh.w	r1, [r1, #14]
 8006622:	f000 f855 	bl	80066d0 <_lseek_r>
 8006626:	1c43      	adds	r3, r0, #1
 8006628:	89a3      	ldrh	r3, [r4, #12]
 800662a:	bf15      	itete	ne
 800662c:	6560      	strne	r0, [r4, #84]	; 0x54
 800662e:	f423 5380 	biceq.w	r3, r3, #4096	; 0x1000
 8006632:	f443 5380 	orrne.w	r3, r3, #4096	; 0x1000
 8006636:	81a3      	strheq	r3, [r4, #12]
 8006638:	bf18      	it	ne
 800663a:	81a3      	strhne	r3, [r4, #12]
 800663c:	bd10      	pop	{r4, pc}

0800663e <__sclose>:
 800663e:	f9b1 100e 	ldrsh.w	r1, [r1, #14]
 8006642:	f000 b813 	b.w	800666c <_close_r>
	...

08006648 <_write_r>:
 8006648:	b538      	push	{r3, r4, r5, lr}
 800664a:	4c07      	ldr	r4, [pc, #28]	; (8006668 <_write_r+0x20>)
 800664c:	4605      	mov	r5, r0
 800664e:	4608      	mov	r0, r1
 8006650:	4611      	mov	r1, r2
 8006652:	2200      	movs	r2, #0
 8006654:	6022      	str	r2, [r4, #0]
 8006656:	461a      	mov	r2, r3
 8006658:	f7fc fd88 	bl	800316c <_write>
 800665c:	1c43      	adds	r3, r0, #1
 800665e:	d102      	bne.n	8006666 <_write_r+0x1e>
 8006660:	6823      	ldr	r3, [r4, #0]
 8006662:	b103      	cbz	r3, 8006666 <_write_r+0x1e>
 8006664:	602b      	str	r3, [r5, #0]
 8006666:	bd38      	pop	{r3, r4, r5, pc}
 8006668:	20000694 	.word	0x20000694

0800666c <_close_r>:
 800666c:	b538      	push	{r3, r4, r5, lr}
 800666e:	4c06      	ldr	r4, [pc, #24]	; (8006688 <_close_r+0x1c>)
 8006670:	2300      	movs	r3, #0
 8006672:	4605      	mov	r5, r0
 8006674:	4608      	mov	r0, r1
 8006676:	6023      	str	r3, [r4, #0]
 8006678:	f7fc fd94 	bl	80031a4 <_close>
 800667c:	1c43      	adds	r3, r0, #1
 800667e:	d102      	bne.n	8006686 <_close_r+0x1a>
 8006680:	6823      	ldr	r3, [r4, #0]
 8006682:	b103      	cbz	r3, 8006686 <_close_r+0x1a>
 8006684:	602b      	str	r3, [r5, #0]
 8006686:	bd38      	pop	{r3, r4, r5, pc}
 8006688:	20000694 	.word	0x20000694

0800668c <_fstat_r>:
 800668c:	b538      	push	{r3, r4, r5, lr}
 800668e:	4c07      	ldr	r4, [pc, #28]	; (80066ac <_fstat_r+0x20>)
 8006690:	2300      	movs	r3, #0
 8006692:	4605      	mov	r5, r0
 8006694:	4608      	mov	r0, r1
 8006696:	4611      	mov	r1, r2
 8006698:	6023      	str	r3, [r4, #0]
 800669a:	f7fc fd8f 	bl	80031bc <_fstat>
 800669e:	1c43      	adds	r3, r0, #1
 80066a0:	d102      	bne.n	80066a8 <_fstat_r+0x1c>
 80066a2:	6823      	ldr	r3, [r4, #0]
 80066a4:	b103      	cbz	r3, 80066a8 <_fstat_r+0x1c>
 80066a6:	602b      	str	r3, [r5, #0]
 80066a8:	bd38      	pop	{r3, r4, r5, pc}
 80066aa:	bf00      	nop
 80066ac:	20000694 	.word	0x20000694

080066b0 <_isatty_r>:
 80066b0:	b538      	push	{r3, r4, r5, lr}
 80066b2:	4c06      	ldr	r4, [pc, #24]	; (80066cc <_isatty_r+0x1c>)
 80066b4:	2300      	movs	r3, #0
 80066b6:	4605      	mov	r5, r0
 80066b8:	4608      	mov	r0, r1
 80066ba:	6023      	str	r3, [r4, #0]
 80066bc:	f7fc fd8e 	bl	80031dc <_isatty>
 80066c0:	1c43      	adds	r3, r0, #1
 80066c2:	d102      	bne.n	80066ca <_isatty_r+0x1a>
 80066c4:	6823      	ldr	r3, [r4, #0]
 80066c6:	b103      	cbz	r3, 80066ca <_isatty_r+0x1a>
 80066c8:	602b      	str	r3, [r5, #0]
 80066ca:	bd38      	pop	{r3, r4, r5, pc}
 80066cc:	20000694 	.word	0x20000694

080066d0 <_lseek_r>:
 80066d0:	b538      	push	{r3, r4, r5, lr}
 80066d2:	4c07      	ldr	r4, [pc, #28]	; (80066f0 <_lseek_r+0x20>)
 80066d4:	4605      	mov	r5, r0
 80066d6:	4608      	mov	r0, r1
 80066d8:	4611      	mov	r1, r2
 80066da:	2200      	movs	r2, #0
 80066dc:	6022      	str	r2, [r4, #0]
 80066de:	461a      	mov	r2, r3
 80066e0:	f7fc fd87 	bl	80031f2 <_lseek>
 80066e4:	1c43      	adds	r3, r0, #1
 80066e6:	d102      	bne.n	80066ee <_lseek_r+0x1e>
 80066e8:	6823      	ldr	r3, [r4, #0]
 80066ea:	b103      	cbz	r3, 80066ee <_lseek_r+0x1e>
 80066ec:	602b      	str	r3, [r5, #0]
 80066ee:	bd38      	pop	{r3, r4, r5, pc}
 80066f0:	20000694 	.word	0x20000694

080066f4 <__malloc_lock>:
 80066f4:	4770      	bx	lr

080066f6 <__malloc_unlock>:
 80066f6:	4770      	bx	lr

080066f8 <_read_r>:
 80066f8:	b538      	push	{r3, r4, r5, lr}
 80066fa:	4c07      	ldr	r4, [pc, #28]	; (8006718 <_read_r+0x20>)
 80066fc:	4605      	mov	r5, r0
 80066fe:	4608      	mov	r0, r1
 8006700:	4611      	mov	r1, r2
 8006702:	2200      	movs	r2, #0
 8006704:	6022      	str	r2, [r4, #0]
 8006706:	461a      	mov	r2, r3
 8006708:	f7fc fd13 	bl	8003132 <_read>
 800670c:	1c43      	adds	r3, r0, #1
 800670e:	d102      	bne.n	8006716 <_read_r+0x1e>
 8006710:	6823      	ldr	r3, [r4, #0]
 8006712:	b103      	cbz	r3, 8006716 <_read_r+0x1e>
 8006714:	602b      	str	r3, [r5, #0]
 8006716:	bd38      	pop	{r3, r4, r5, pc}
 8006718:	20000694 	.word	0x20000694

0800671c <_init>:
 800671c:	b5f8      	push	{r3, r4, r5, r6, r7, lr}
 800671e:	bf00      	nop
 8006720:	bcf8      	pop	{r3, r4, r5, r6, r7}
 8006722:	bc08      	pop	{r3}
 8006724:	469e      	mov	lr, r3
 8006726:	4770      	bx	lr

08006728 <_fini>:
 8006728:	b5f8      	push	{r3, r4, r5, r6, r7, lr}
 800672a:	bf00      	nop
 800672c:	bcf8      	pop	{r3, r4, r5, r6, r7}
 800672e:	bc08      	pop	{r3}
 8006730:	469e      	mov	lr, r3
 8006732:	4770      	bx	lr
